
test_usb_hspi.elf:     file format elf32-littleriscv
test_usb_hspi.elf
architecture: riscv:rv32, flags 0x00000112:
EXEC_P, HAS_SYMS, D_PAGED
start address 0x00000000

Program Header:
    LOAD off    0x00001000 vaddr 0x00000000 paddr 0x00000000 align 2**12
         filesz 0x00003074 memsz 0x00003074 flags r-x
    LOAD off    0x00005000 vaddr 0x20000000 paddr 0x00003074 align 2**12
         filesz 0x000000d8 memsz 0x00000124 flags rw-
    LOAD off    0x00006000 vaddr 0x20020000 paddr 0x0000314c align 2**12
         filesz 0x00001200 memsz 0x00001200 flags rw-
    LOAD off    0x00007800 vaddr 0x20003800 paddr 0x20003800 align 2**12
         filesz 0x00000000 memsz 0x00000800 flags rw-

Sections:
Idx Name           Size      VMA       LMA       File off  Algn  Flags
  0 .init          00000004  00000000  00000000  00001000  2**1  CONTENTS, ALLOC, LOAD, READONLY, CODE
  1 .vector        000000bc  00000004  00000004  00001004  2**1  CONTENTS, ALLOC, LOAD, READONLY, CODE
  2 .hclib         00000000  00000000  00000000  00007200  2**0  CONTENTS
  3 .text          00002fb4  000000c0  000000c0  000010c0  2**2  CONTENTS, ALLOC, LOAD, READONLY, CODE
  4 .fini          00000000  00003074  00003074  00007200  2**0  CONTENTS, ALLOC, LOAD, CODE
  5 .dalign        00000000  20000000  20000000  00007200  2**0  CONTENTS
  6 .dlalign       00000000  00003074  00003074  00007200  2**0  CONTENTS
  7 .data          000000d8  20000000  00003074  00005000  2**2  CONTENTS, ALLOC, LOAD, DATA
  8 .bss           0000004c  200000d8  0000314c  000050d8  2**2  ALLOC
  9 .DMADATA       00001200  20020000  0000314c  00006000  2**4  CONTENTS, ALLOC, LOAD, DATA
 10 .stack         00000800  20003800  20003800  00007800  2**0  ALLOC
 11 .debug_info    00007ffb  00000000  00000000  00007200  2**0  CONTENTS, READONLY, DEBUGGING
 12 .debug_abbrev  00001a46  00000000  00000000  0000f1fb  2**0  CONTENTS, READONLY, DEBUGGING
 13 .debug_loc     00000bfd  00000000  00000000  00010c41  2**0  CONTENTS, READONLY, DEBUGGING
 14 .debug_aranges 000002c8  00000000  00000000  00011840  2**3  CONTENTS, READONLY, DEBUGGING
 15 .debug_ranges  000003c0  00000000  00000000  00011b08  2**3  CONTENTS, READONLY, DEBUGGING
 16 .debug_line    00005996  00000000  00000000  00011ec8  2**0  CONTENTS, READONLY, DEBUGGING
 17 .debug_str     0000170d  00000000  00000000  0001785e  2**0  CONTENTS, READONLY, DEBUGGING
 18 .comment       00000033  00000000  00000000  00018f6b  2**0  CONTENTS, READONLY
 19 .debug_frame   00000fd4  00000000  00000000  00018fa0  2**2  CONTENTS, READONLY, DEBUGGING
 20 .stab          00000084  00000000  00000000  00019f74  2**2  CONTENTS, READONLY, DEBUGGING
 21 .stabstr       00000117  00000000  00000000  00019ff8  2**0  CONTENTS, READONLY, DEBUGGING
SYMBOL TABLE:
00000000 l    d  .init	00000000 .init
00000004 l    d  .vector	00000000 .vector
00000000 l    d  .hclib	00000000 .hclib
000000c0 l    d  .text	00000000 .text
00003074 l    d  .fini	00000000 .fini
20000000 l    d  .dalign	00000000 .dalign
00003074 l    d  .dlalign	00000000 .dlalign
20000000 l    d  .data	00000000 .data
200000d8 l    d  .bss	00000000 .bss
20020000 l    d  .DMADATA	00000000 .DMADATA
20003800 l    d  .stack	00000000 .stack
00000000 l    d  .debug_info	00000000 .debug_info
00000000 l    d  .debug_abbrev	00000000 .debug_abbrev
00000000 l    d  .debug_loc	00000000 .debug_loc
00000000 l    d  .debug_aranges	00000000 .debug_aranges
00000000 l    d  .debug_ranges	00000000 .debug_ranges
00000000 l    d  .debug_line	00000000 .debug_line
00000000 l    d  .debug_str	00000000 .debug_str
00000000 l    d  .comment	00000000 .comment
00000000 l    d  .debug_frame	00000000 .debug_frame
00000000 l    d  .stab	00000000 .stab
00000000 l    d  .stabstr	00000000 .stabstr
00000000 l    df *ABS*	00000000 ./Startup/startup_CH56x.o
00000004 l       .vector	00000000 _vector_base
00000000 l    df *ABS*	00000000 usb30_int.c
20000108 l     O .bss	00000001 count_IN
20000107 l     O .bss	00000001 count_OUT
00000000 l    df *ABS*	00000000 CH56x_usb30.c
00000652 l     F .text	00000018 PFIC_DisableIRQ
200000dc l     O .bss	00000004 SetupLen
200000e0 l     O .bss	00000001 SetupReqCode
200000e8 l     O .bss	00000004 pDescr
00000000 l    df *ABS*	00000000 CH56x_usb20.c
200000f0 l     O .bss	00000001 SetupReq
200000f4 l     O .bss	00000001 SetupReqType
200000f8 l     O .bss	00000004 pDescr
00000000 l    df *ABS*	00000000 hspi.c
200000fc l     O .bss	00000004 Rx_Cnt.4056
00000000 l    df *ABS*	00000000 Main.c
00000000 l    df *ABS*	00000000 dma_fifo.c
00000000 l    df *ABS*	00000000 CH56x_clk.c
00000000 l    df *ABS*	00000000 CH56x_sys.c
20000104 l     O .bss	00000002 p_ms
20000106 l     O .bss	00000001 p_us
00000000 l    df *ABS*	00000000 CH56x_timer.c
00000000 l    df *ABS*	00000000 memcpy.c
00000000 l    df *ABS*	00000000 printf.c
00000000 l    df *ABS*	00000000 puts.c
00000000 l    df *ABS*	00000000 wbuf.c
00000000 l    df *ABS*	00000000 wsetup.c
00000000 l    df *ABS*	00000000 fflush.c
00000000 l    df *ABS*	00000000 findfp.c
00001f6e l     F .text	0000006a std
00000000 l    df *ABS*	00000000 fwalk.c
00000000 l    df *ABS*	00000000 makebuf.c
00000000 l    df *ABS*	00000000 nano-mallocr.c
00000000 l    df *ABS*	00000000 nano-mallocr.c
00000000 l    df *ABS*	00000000 nano-vfprintf.c
0000240a l     F .text	0000002a __sfputc_r
00000000 l    df *ABS*	00000000 nano-vfprintf_i.c
00000000 l    df *ABS*	00000000 sbrkr.c
00000000 l    df *ABS*	00000000 stdio.c
00000000 l    df *ABS*	00000000 writer.c
00000000 l    df *ABS*	00000000 closer.c
00000000 l    df *ABS*	00000000 fstatr.c
00000000 l    df *ABS*	00000000 isattyr.c
00000000 l    df *ABS*	00000000 lseekr.c
00000000 l    df *ABS*	00000000 memchr.c
00000000 l    df *ABS*	00000000 mlock.c
00000000 l    df *ABS*	00000000 readr.c
00000000 l    df *ABS*	00000000 close.c
00000000 l    df *ABS*	00000000 fstat.c
00000000 l    df *ABS*	00000000 isatty.c
00000000 l    df *ABS*	00000000 lseek.c
00000000 l    df *ABS*	00000000 read.c
00000000 l    df *ABS*	00000000 sbrk.c
20000114 l     O .bss	00000004 heap_end.1518
00000000 l    df *ABS*	00000000 impure.c
20000050 l     O .data	00000060 impure_data
00000000 l    df *ABS*	00000000 reent.c
0000177c g     F .text	00000028 dma_fifo_peek_pop_addr
00001800  w      .text	00000000 GPIO_IRQHandler
00002c26 g     F .text	00000028 _isatty_r
00000392 g     F .text	0000000a USB30_getDevAddress
00001b16 g     F .text	000000da _puts_r
00002c4e g     F .text	0000002c _lseek_r
00001800  w      .text	00000000 EMMC_IRQHandler
0000022e g     F .text	00000016 USB30_OUT_ClearPendingIT
000001d6 g     F .text	00000026 USB30_OUT_Status
00000a8a g     F .text	0000023a LINK_IRQHandler
00001ad2 g     F .text	00000044 printf
200008b0 g       .data	00000000 __global_pointer$
00002b6a g     F .text	00000036 __sseek
00002028 g     F .text	00000066 __sinit
00001bfe g     F .text	000000c0 __swbuf_r
00001800  w      .text	00000000 HardFault_Handler
00002f00 g     O .text	00000020 hs_config_descriptor
00001fe2 g     F .text	00000046 __sfmoreglue
0000039c g     F .text	0000008e stdreq
00002c96 g     F .text	00000002 __malloc_unlock
200000ec g     O .bss	00000001 usb_sending_flag
00001800  w      .text	00000000 SysTick_Handler
20020000 g     O .DMADATA	00000200 endp0RTbuff
00001800  w      .text	00000000 NMI_Handler
00001800  w      .text	00000000 UART1_IRQHandler
00000e22 g     F .text	00000002 EP4_IN_Callback
00001274 g     F .text	000001aa USBHS_IRQHandler
0000066a g     F .text	00000066 USB30D_init
00002bfc g     F .text	0000002a _fstat_r
20000120 g     O .bss	00000004 errno
00000792 g     F .text	000001d6 USB30_StandardReq
200000d8 g       .bss	00000000 _sbss
00000800 g       *ABS*	00000000 __stack_size
000001a8 g     F .text	0000002e USB30_ITP_Enable
20000034 g     O .data	0000001c pEpInt_OUT
00001708 g     F .text	0000000e dma_fifo_init
00002f34 g     O .text	00000026 hs_string_descriptor2
00000e30 g     F .text	00000002 EP5_OUT_Callback
00001800  w      .text	00000000 UART0_IRQHandler
200000d8 g     O .bss	00000001 Link_Sta
20000118 g     O .bss	00000005 g_devInfo
00001a1c g     F .text	000000b6 memcpy
200000bc g     O .data	00000008 StringVendor
00000e1c g     F .text	00000002 EP1_OUT_Callback
00001fd8 g     F .text	0000000a _cleanup_r
200000f2 g     O .bss	00000002 SetupReqLen
00001bf0 g     F .text	0000000e puts
00000e2c g     F .text	00000002 EP3_OUT_Callback
200000c8 g     O .data	00000008 hs_string_descriptor1
20000101 g     O .bss	00000001 data_count
00002cd0 g     F .text	0000000c _fstat
00000004 g       .init	00000000 _einit
00000e1e g     F .text	00000002 EP2_IN_Callback
00000e26 g     F .text	00000002 EP6_IN_Callback
0000042a g     F .text	00000180 USB30_IRQHandler
00001800  w      .text	00000000 PMT_IRQHandler
00001800  w      .text	00000000 SPI1_IRQHandler
00002ac4 g     F .text	00000028 _sbrk_r
000009f6 g     F .text	00000094 TMR0_IRQHandler
00002c98 g     F .text	0000002c _read_r
000009da g     F .text	00000004 EP0_OUT_Callback
000019b2 g     F .text	0000002e mDelaymS
00001800  w      .text	00000000 ECDC_IRQHandler
00000e90 g     F .text	00000024 USB20_Device_Init
20000018 g     O .data	0000001c pEpInt_IN
20000100 g     O .bss	00000001 have_new_data
00002cdc g     F .text	0000000c _isatty
200000d0 g     O .data	00000004 _global_impure_ptr
00002d00 g     F .text	00000020 _sbrk
20020000 g       .DMADATA	00000000 _dmadata_start
00001746 g     F .text	00000036 dma_fifo_push
00002d20 g     O .text	00000016 BOSDescriptor
20000124 g       .bss	00000000 _ebss
00001990 g     F .text	00000022 Delay_Init
00001800  w      .text	00000000 DVP_IRQHandler
000009f0 g     F .text	00000006 USBSS_IRQHandler
00000344 g     F .text	00000024 USB30_Send_ERDY
20020000 g       .DMADATA	00000000 _dmadata_end
000002d8 g     F .text	00000016 USB30_IN_ITflag
00002fd8 g     O .text	00000020 __sf_fake_stderr
20000124 g       .bss	00000000 end
00001800  w      .text	00000000 UART2_IRQHandler
00002434 g     F .text	00000042 __sfputs_r
00002c7a g     F .text	0000001a memchr
0000228e g     F .text	000000a8 _free_r
000001fc g     F .text	0000001a USB30_OUT_Set
00000d76 g     F .text	000000a6 usb_start_sending
00000286 g     F .text	00000024 USB30_IN_Set
000011e6 g     F .text	0000008e U20_Endp0_IN_Callback
000015d2 g     F .text	00000052 DebugInit
00000000 g       .init	00000000 _start
000001a0 g     F .text	00000008 USB30_ISO_Setdelay
00002ce8 g     F .text	0000000c _lseek
20000000 g     O .data	00000016 StringSerial
00000368 g     F .text	00000016 USB30_Device_Setaddress
000000ca g     F .text	00000090 USB30_Device_Init
2000010a g     O .bss	00000001 ISO_endp
200000e4 g     O .bss	00000004 last_send_packet
0000141e g     F .text	000000ce hspi_init
200000ee g     O .bss	00000002 SetupLen
20000103 g     O .bss	00000001 write_ind
00001800  w      .text	00000000 TMR2_IRQHandler
000002c0 g     F .text	00000018 USB30_IN_ClearIT
00002bd4 g     F .text	00000028 _close_r
20000000 g       .dalign	00000000 _data_vma
20020200 g     O .DMADATA	00001000 endp1RTbuff
00001cbe g     F .text	00000110 __swsetup_r
0000208e g     F .text	0000009c __sfp
200000b2 g     O .data	00000001 hspi_receive_flag
00000160 g     F .text	00000040 USB30_ISO_Setendp
00002aec g     F .text	00000030 __sread
00002e5c g     O .text	00000026 StringProduct
20000109 g     O .bss	00000001 ISO_MODE_STATUS
200000e1 g     O .bss	00000001 Tx_Lmp_Port
00002c94 g     F .text	00000002 __malloc_lock
00001f0a g     F .text	00000064 _fflush_r
00002ff8 g     O .text	00000020 __sf_fake_stdin
000005aa g     F .text	000000a8 memset
00001624 g     F .text	000000e4 main
000002ee g     F .text	00000028 USB30_IN_Nump
00000316 g     F .text	0000002e USB30_Set_endp_seqnumber
00000eb4 g     F .text	00000332 U20_Standard_Request_Deal
00002ba0 g     F .text	00000006 __sclose
000017a4 g     F .text	00000034 dma_fifo_pop
00002d8c g     O .text	0000008e PropertyHeader
00002336 g     F .text	000000d4 _malloc_r
200000c4 g     O .data	00000004 hs_string_descriptor0
00000e24 g     F .text	00000002 EP5_IN_Callback
00001716 g     F .text	00000030 dma_fifo_peek_push_addr
200000b8 g     O .data	00000004 StringLangID
00000e2e g     F .text	00000002 EP4_OUT_Callback
00001896 g     F .text	000000fa SystemInit
000017d8 g     F .text	00000028 dma_fifo_check_pop_block_contiguous
00000e32 g     F .text	00000002 EP6_OUT_Callback
00002e48 g     O .text	00000012 SS_DeviceDescriptor
00000e28 g     F .text	00000002 EP7_IN_Callback
00001ad2 g     F .text	00000044 iprintf
00000000 g       .init	00000000 _sinit
000002aa g     F .text	00000016 USB30_IN_ClearPendingIT
00002ba6 g     F .text	0000002e _write_r
00001800  w      .text	00000000 ETH_IRQHandler
00002710 g     F .text	0000010c _printf_common
200000b4 g     O .data	00000004 _impure_ptr
00001dce g     F .text	0000013c __sflush_r
00002e1c g     O .text	0000002c SS_ConfigDescriptor
00002f20 g     O .text	00000012 hs_device_descriptor
20000102 g     O .bss	00000001 read_ind
00000cc4 g     F .text	000000b2 EP1_IN_Callback
20004000 g       .stack	00000000 _eusrstack
00001800  w      .text	00000000 SW_Handler
00000e36 g     F .text	00000002 USB30_ITP_Callback
00000244 g     F .text	00000016 USB30_OUT_ITflag
00002196 g     F .text	0000005a __swhatbuf_r
00000e2a g     F .text	00000002 EP2_OUT_Callback
000019e0 g     F .text	00000028 _write
200000d8 g       .data	00000000 _edata
00001800  w      .text	00000000 SPI0_IRQHandler
00002d78 g     O .text	00000012 OSStringDescriptor
00000e20 g     F .text	00000002 EP3_IN_Callback
00003074 g       .dlalign	00000000 _data_lma
0000015a g     F .text	00000006 USB30_Lib_Getversion
00000216 g     F .text	00000018 USB30_OUT_ClearIT
000006d0 g     F .text	000000c2 USB30_NonStandardReq
00002b1c g     F .text	0000004e __swrite
00002476 g     F .text	0000029a _vfiprintf_r
0000212a g     F .text	0000006c _fwalk_reent
000009de g     F .text	00000012 USB30_Setup_Status
00003018 g     O .text	00000020 __sf_fake_stdout
00001800  w      .text	00000000 WDOG_IRQHandler
000014ec g     F .text	000000e6 HSPI_IRQHandler
00002cf4 g     F .text	0000000c _read
00001802  w      .text	00000000 handle_reset
00000e38 g     F .text	00000058 USB20_Endp_Init
000021f0 g     F .text	0000009e __smakebuf_r
0000281c g     F .text	000002a8 _printf_i
00000968 g     F .text	00000072 EP0_IN_Callback
00001800  w      .text	00000000 UART3_IRQHandler
20000110 g     O .bss	00000004 __malloc_sbrk_start
2000010c g     O .bss	00000004 __malloc_free_list
00002476 g     F .text	0000029a _vfprintf_r
00001800  w      .text	00000000 TMR1_IRQHandler
00000e34 g     F .text	00000002 EP7_OUT_Callback
0000025a g     F .text	0000002c USB30_IN_ISO_Set
00001800  w      .text	00000000 SERDES_IRQHandler
000000c0 g     F .text	0000000a USB30_Device_forceclr
0000037e g     F .text	00000014 USB30_Switch_Powermode
200000b0 g     O .data	00000002 U20_EndpnMaxSize
00002cc4 g     F .text	0000000c _close
00001a08 g     F .text	00000014 TMR0_TimerInit



Disassembly of section .init:

00000000 <_sinit>:
_start():
c:\Users\rui\Desktop\iphone_screen\wch\code\test_usb_hspi\test_usb_hspi\obj/../Startup/startup_CH56x.S:17

	.section	.init,"ax",@progbits
	.global	_start
	.align	1
_start:
	j	handle_reset
   0:	0030106f          	j	1802 <handle_reset>

Disassembly of section .vector:

00000004 <_vector_base>:
	...
_vector_base():
c:\Users\rui\Desktop\iphone_screen\wch\code\test_usb_hspi\test_usb_hspi\obj/../Startup/startup_CH56x.S:25
    .align  1
_vector_base:
    .option norvc;
    .word   0
    .word   0
        j   NMI_Handler                 /* NMI Handler */
   c:	7f40106f          	j	1800 <DVP_IRQHandler>
c:\Users\rui\Desktop\iphone_screen\wch\code\test_usb_hspi\test_usb_hspi\obj/../Startup/startup_CH56x.S:26
        j   HardFault_Handler           /* Hard Fault Handler */
  10:	7f00106f          	j	1800 <DVP_IRQHandler>
  14:	bf11                	j	ffffff28 <endp1RTbuff+0xdffdfd28>
  16:	f7f9                	bnez	a5,ffffffe4 <endp1RTbuff+0xdffdfde4>
	...
c:\Users\rui\Desktop\iphone_screen\wch\code\test_usb_hspi\test_usb_hspi\obj/../Startup/startup_CH56x.S:35
    .word   0
    .word   0
    .word   0
    .word   0
    .word   0
        j   SysTick_Handler            /* SysTick Handler */
  34:	7cc0106f          	j	1800 <DVP_IRQHandler>
  38:	0000                	unimp
  3a:	0000                	unimp
c:\Users\rui\Desktop\iphone_screen\wch\code\test_usb_hspi\test_usb_hspi\obj/../Startup/startup_CH56x.S:37
    .word   0
        j   SW_Handler                 /* SW Handler */
  3c:	7c40106f          	j	1800 <DVP_IRQHandler>
  40:	0000                	unimp
  42:	0000                	unimp
c:\Users\rui\Desktop\iphone_screen\wch\code\test_usb_hspi\test_usb_hspi\obj/../Startup/startup_CH56x.S:40
    .word   0
    /* External Interrupts */
        j   WDOG_IRQHandler			   /* WDOG */
  44:	7bc0106f          	j	1800 <DVP_IRQHandler>
c:\Users\rui\Desktop\iphone_screen\wch\code\test_usb_hspi\test_usb_hspi\obj/../Startup/startup_CH56x.S:41
        j   TMR0_IRQHandler            /* TMR0 */
  48:	1af0006f          	j	9f6 <TMR0_IRQHandler>
c:\Users\rui\Desktop\iphone_screen\wch\code\test_usb_hspi\test_usb_hspi\obj/../Startup/startup_CH56x.S:42
        j   GPIO_IRQHandler            /* GPIO */
  4c:	7b40106f          	j	1800 <DVP_IRQHandler>
c:\Users\rui\Desktop\iphone_screen\wch\code\test_usb_hspi\test_usb_hspi\obj/../Startup/startup_CH56x.S:43
        j   SPI0_IRQHandler            /* SPI0 */
  50:	7b00106f          	j	1800 <DVP_IRQHandler>
c:\Users\rui\Desktop\iphone_screen\wch\code\test_usb_hspi\test_usb_hspi\obj/../Startup/startup_CH56x.S:44
        j   USBSS_IRQHandler           /* USBSS */
  54:	19d0006f          	j	9f0 <USBSS_IRQHandler>
c:\Users\rui\Desktop\iphone_screen\wch\code\test_usb_hspi\test_usb_hspi\obj/../Startup/startup_CH56x.S:45
        j   LINK_IRQHandler            /* LINK */
  58:	2330006f          	j	a8a <LINK_IRQHandler>
c:\Users\rui\Desktop\iphone_screen\wch\code\test_usb_hspi\test_usb_hspi\obj/../Startup/startup_CH56x.S:46
        j   TMR1_IRQHandler            /* TMR1 */
  5c:	7a40106f          	j	1800 <DVP_IRQHandler>
c:\Users\rui\Desktop\iphone_screen\wch\code\test_usb_hspi\test_usb_hspi\obj/../Startup/startup_CH56x.S:47
        j   TMR2_IRQHandler            /* TMR2 */
  60:	7a00106f          	j	1800 <DVP_IRQHandler>
c:\Users\rui\Desktop\iphone_screen\wch\code\test_usb_hspi\test_usb_hspi\obj/../Startup/startup_CH56x.S:48
        j   UART0_IRQHandler           /* UART0 */
  64:	79c0106f          	j	1800 <DVP_IRQHandler>
c:\Users\rui\Desktop\iphone_screen\wch\code\test_usb_hspi\test_usb_hspi\obj/../Startup/startup_CH56x.S:49
        j   USBHS_IRQHandler           /* USBHS */
  68:	20c0106f          	j	1274 <USBHS_IRQHandler>
c:\Users\rui\Desktop\iphone_screen\wch\code\test_usb_hspi\test_usb_hspi\obj/../Startup/startup_CH56x.S:50
        j   EMMC_IRQHandler            /* EMMC */
  6c:	7940106f          	j	1800 <DVP_IRQHandler>
c:\Users\rui\Desktop\iphone_screen\wch\code\test_usb_hspi\test_usb_hspi\obj/../Startup/startup_CH56x.S:51
        j   DVP_IRQHandler             /* DVP */
  70:	7900106f          	j	1800 <DVP_IRQHandler>
c:\Users\rui\Desktop\iphone_screen\wch\code\test_usb_hspi\test_usb_hspi\obj/../Startup/startup_CH56x.S:52
        j   HSPI_IRQHandler            /* HSPI */
  74:	4780106f          	j	14ec <HSPI_IRQHandler>
c:\Users\rui\Desktop\iphone_screen\wch\code\test_usb_hspi\test_usb_hspi\obj/../Startup/startup_CH56x.S:53
        j   SPI1_IRQHandler            /* SPI1 */
  78:	7880106f          	j	1800 <DVP_IRQHandler>
c:\Users\rui\Desktop\iphone_screen\wch\code\test_usb_hspi\test_usb_hspi\obj/../Startup/startup_CH56x.S:54
        j   UART1_IRQHandler           /* UART1 */
  7c:	7840106f          	j	1800 <DVP_IRQHandler>
c:\Users\rui\Desktop\iphone_screen\wch\code\test_usb_hspi\test_usb_hspi\obj/../Startup/startup_CH56x.S:55
        j   UART2_IRQHandler           /* UART2 */
  80:	7800106f          	j	1800 <DVP_IRQHandler>
c:\Users\rui\Desktop\iphone_screen\wch\code\test_usb_hspi\test_usb_hspi\obj/../Startup/startup_CH56x.S:56
        j   UART3_IRQHandler           /* UART3 */
  84:	77c0106f          	j	1800 <DVP_IRQHandler>
c:\Users\rui\Desktop\iphone_screen\wch\code\test_usb_hspi\test_usb_hspi\obj/../Startup/startup_CH56x.S:57
        j   SERDES_IRQHandler          /* SERDES */
  88:	7780106f          	j	1800 <DVP_IRQHandler>
c:\Users\rui\Desktop\iphone_screen\wch\code\test_usb_hspi\test_usb_hspi\obj/../Startup/startup_CH56x.S:58
        j   ETH_IRQHandler             /* ETH */
  8c:	7740106f          	j	1800 <DVP_IRQHandler>
c:\Users\rui\Desktop\iphone_screen\wch\code\test_usb_hspi\test_usb_hspi\obj/../Startup/startup_CH56x.S:59
        j   PMT_IRQHandler             /* PMT */
  90:	7700106f          	j	1800 <DVP_IRQHandler>
c:\Users\rui\Desktop\iphone_screen\wch\code\test_usb_hspi\test_usb_hspi\obj/../Startup/startup_CH56x.S:60
        j   ECDC_IRQHandler            /* ECDC */
  94:	76c0106f          	j	1800 <DVP_IRQHandler>
	...

Disassembly of section .text:

000000c0 <USB30_Device_forceclr>:
USB30_Device_forceclr():
      c0:	400087b7          	lui	a5,0x40008
      c4:	4719                	li	a4,6
      c6:	d398                	sw	a4,32(a5)
      c8:	8082                	ret

000000ca <USB30_Device_Init>:
USB30_Device_Init():
      ca:	400087b7          	lui	a5,0x40008
      ce:	14000713          	li	a4,320
      d2:	c398                	sw	a4,0(a5)
      d4:	4749                	li	a4,18
      d6:	c3d8                	sw	a4,4(a5)
      d8:	004c5737          	lui	a4,0x4c5
      dc:	b4170713          	addi	a4,a4,-1215 # 4c4b41 <_data_lma+0x4c1acd>
      e0:	4b94                	lw	a3,16(a5)
      e2:	8a91                	andi	a3,a3,4
      e4:	e6bd                	bnez	a3,152 <USB30_Device_Init+0x88>
      e6:	0607ae23          	sw	zero,124(a5) # 4000807c <endp1RTbuff+0x1ffe7e7c>
      ea:	0607ac23          	sw	zero,120(a5)
      ee:	0807a623          	sw	zero,140(a5)
      f2:	0807a423          	sw	zero,136(a5)
      f6:	0807ae23          	sw	zero,156(a5)
      fa:	0807ac23          	sw	zero,152(a5)
      fe:	0a07a623          	sw	zero,172(a5)
     102:	0a07a423          	sw	zero,168(a5)
     106:	0a07ae23          	sw	zero,188(a5)
     10a:	0a07ac23          	sw	zero,184(a5)
     10e:	0c07a623          	sw	zero,204(a5)
     112:	0c07a423          	sw	zero,200(a5)
     116:	0c07ae23          	sw	zero,220(a5)
     11a:	0c07ac23          	sw	zero,216(a5)
     11e:	0e07a623          	sw	zero,236(a5)
     122:	0e07a423          	sw	zero,232(a5)
     126:	474d                	li	a4,19
     128:	d3d8                	sw	a4,36(a5)
     12a:	00030737          	lui	a4,0x30
     12e:	02170713          	addi	a4,a4,33 # 30021 <_data_lma+0x2cfad>
     132:	d398                	sw	a4,32(a5)
     134:	0607a823          	sw	zero,112(a5)
     138:	4398                	lw	a4,0(a5)
     13a:	4501                	li	a0,0
     13c:	00276713          	ori	a4,a4,2
     140:	c398                	sw	a4,0(a5)
     142:	0010c737          	lui	a4,0x10c
     146:	c7d70713          	addi	a4,a4,-899 # 10bc7d <_data_lma+0x108c09>
     14a:	c798                	sw	a4,8(a5)
     14c:	4709                	li	a4,2
     14e:	c3d8                	sw	a4,4(a5)
     150:	8082                	ret
     152:	177d                	addi	a4,a4,-1
     154:	f751                	bnez	a4,e0 <USB30_Device_Init+0x16>
     156:	4505                	li	a0,1
     158:	8082                	ret

0000015a <USB30_Lib_Getversion>:
USB30_Lib_Getversion():
     15a:	02100513          	li	a0,33
     15e:	8082                	ret

00000160 <USB30_ISO_Setendp>:
USB30_ISO_Setendp():
     160:	01851793          	slli	a5,a0,0x18
     164:	87e1                	srai	a5,a5,0x18
     166:	00757693          	andi	a3,a0,7
     16a:	0007df63          	bgez	a5,188 <USB30_ISO_Setendp+0x28>
     16e:	010007b7          	lui	a5,0x1000
     172:	00d797b3          	sll	a5,a5,a3
     176:	c999                	beqz	a1,18c <USB30_ISO_Setendp+0x2c>
     178:	40008637          	lui	a2,0x40008
     17c:	5a34                	lw	a3,112(a2)
     17e:	8fd5                	or	a5,a5,a3
     180:	da3c                	sw	a5,112(a2)
     182:	84a18d23          	sb	a0,-1958(gp) # 2000010a <ISO_endp>
     186:	8082                	ret
     188:	67c1                	lui	a5,0x10
     18a:	b7e5                	j	172 <USB30_ISO_Setendp+0x12>
     18c:	400086b7          	lui	a3,0x40008
     190:	5ab0                	lw	a2,112(a3)
     192:	fff7c793          	not	a5,a5
     196:	8ff1                	and	a5,a5,a2
     198:	dabc                	sw	a5,112(a3)
     19a:	84018d23          	sb	zero,-1958(gp) # 2000010a <ISO_endp>
     19e:	8082                	ret

000001a0 <USB30_ISO_Setdelay>:
USB30_ISO_Setdelay():
     1a0:	400087b7          	lui	a5,0x40008
     1a4:	df88                	sw	a0,56(a5)
     1a6:	8082                	ret

000001a8 <USB30_ITP_Enable>:
USB30_ITP_Enable():
     1a8:	cd01                	beqz	a0,1c0 <USB30_ITP_Enable+0x18>
     1aa:	40008737          	lui	a4,0x40008
     1ae:	531c                	lw	a5,32(a4)
     1b0:	00080637          	lui	a2,0x80
     1b4:	8fd1                	or	a5,a5,a2
     1b6:	d31c                	sw	a5,32(a4)
     1b8:	4785                	li	a5,1
     1ba:	84f18ca3          	sb	a5,-1959(gp) # 20000109 <ISO_MODE_STATUS>
     1be:	8082                	ret
     1c0:	40008637          	lui	a2,0x40008
     1c4:	521c                	lw	a5,32(a2)
     1c6:	fff80737          	lui	a4,0xfff80
     1ca:	177d                	addi	a4,a4,-1
     1cc:	8ff9                	and	a5,a5,a4
     1ce:	d21c                	sw	a5,32(a2)
     1d0:	84018ca3          	sb	zero,-1959(gp) # 20000109 <ISO_MODE_STATUS>
     1d4:	8082                	ret

000001d6 <USB30_OUT_Status>:
USB30_OUT_Status():
     1d6:	400087b7          	lui	a5,0x40008
     1da:	07878793          	addi	a5,a5,120 # 40008078 <endp1RTbuff+0x1ffe7e78>
     1de:	0512                	slli	a0,a0,0x4
     1e0:	953e                	add	a0,a0,a5
     1e2:	411c                	lw	a5,0(a0)
     1e4:	0107d713          	srli	a4,a5,0x10
     1e8:	00f61023          	sh	a5,0(a2) # 40008000 <endp1RTbuff+0x1ffe7e00>
     1ec:	8b7d                	andi	a4,a4,31
     1ee:	83f1                	srli	a5,a5,0x1c
     1f0:	00e58023          	sb	a4,0(a1)
     1f4:	8b9d                	andi	a5,a5,7
     1f6:	00f68023          	sb	a5,0(a3) # 40008000 <endp1RTbuff+0x1ffe7e00>
     1fa:	8082                	ret

000001fc <USB30_OUT_Set>:
USB30_OUT_Set():
     1fc:	400087b7          	lui	a5,0x40008
     200:	07878793          	addi	a5,a5,120 # 40008078 <endp1RTbuff+0x1ffe7e78>
     204:	0512                	slli	a0,a0,0x4
     206:	953e                	add	a0,a0,a5
     208:	411c                	lw	a5,0(a0)
     20a:	0642                	slli	a2,a2,0x10
     20c:	05ea                	slli	a1,a1,0x1a
     20e:	8e4d                	or	a2,a2,a1
     210:	8e5d                	or	a2,a2,a5
     212:	c110                	sw	a2,0(a0)
     214:	8082                	ret

00000216 <USB30_OUT_ClearIT>:
USB30_OUT_ClearIT():
     216:	400087b7          	lui	a5,0x40008
     21a:	07878793          	addi	a5,a5,120 # 40008078 <endp1RTbuff+0x1ffe7e78>
     21e:	0512                	slli	a0,a0,0x4
     220:	953e                	add	a0,a0,a5
     222:	411c                	lw	a5,0(a0)
     224:	03e00737          	lui	a4,0x3e00
     228:	8ff9                	and	a5,a5,a4
     22a:	c11c                	sw	a5,0(a0)
     22c:	8082                	ret

0000022e <USB30_OUT_ClearPendingIT>:
USB30_OUT_ClearPendingIT():
     22e:	400087b7          	lui	a5,0x40008
     232:	07878793          	addi	a5,a5,120 # 40008078 <endp1RTbuff+0x1ffe7e78>
     236:	0512                	slli	a0,a0,0x4
     238:	953e                	add	a0,a0,a5
     23a:	411c                	lw	a5,0(a0)
     23c:	0786                	slli	a5,a5,0x1
     23e:	8385                	srli	a5,a5,0x1
     240:	c11c                	sw	a5,0(a0)
     242:	8082                	ret

00000244 <USB30_OUT_ITflag>:
USB30_OUT_ITflag():
     244:	400087b7          	lui	a5,0x40008
     248:	07878793          	addi	a5,a5,120 # 40008078 <endp1RTbuff+0x1ffe7e78>
     24c:	0512                	slli	a0,a0,0x4
     24e:	953e                	add	a0,a0,a5
     250:	4108                	lw	a0,0(a0)
     252:	8161                	srli	a0,a0,0x18
     254:	08057513          	andi	a0,a0,128
     258:	8082                	ret

0000025a <USB30_IN_ISO_Set>:
USB30_IN_ISO_Set():
     25a:	40008837          	lui	a6,0x40008
     25e:	07c80813          	addi	a6,a6,124 # 4000807c <endp1RTbuff+0x1ffe7e7c>
     262:	0512                	slli	a0,a0,0x4
     264:	9542                	add	a0,a0,a6
     266:	07d6                	slli	a5,a5,0x15
     268:	03e00837          	lui	a6,0x3e00
     26c:	0107f7b3          	and	a5,a5,a6
     270:	05f2                	slli	a1,a1,0x1c
     272:	8fcd                	or	a5,a5,a1
     274:	066a                	slli	a2,a2,0x1a
     276:	8fd1                	or	a5,a5,a2
     278:	06c2                	slli	a3,a3,0x10
     27a:	8fd5                	or	a5,a5,a3
     27c:	7ff77713          	andi	a4,a4,2047
     280:	8fd9                	or	a5,a5,a4
     282:	c11c                	sw	a5,0(a0)
     284:	8082                	ret

00000286 <USB30_IN_Set>:
USB30_IN_Set():
     286:	400087b7          	lui	a5,0x40008
     28a:	07c78793          	addi	a5,a5,124 # 4000807c <endp1RTbuff+0x1ffe7e7c>
     28e:	0512                	slli	a0,a0,0x4
     290:	953e                	add	a0,a0,a5
     292:	066a                	slli	a2,a2,0x1a
     294:	05f2                	slli	a1,a1,0x1c
     296:	411c                	lw	a5,0(a0)
     298:	8e4d                	or	a2,a2,a1
     29a:	06c2                	slli	a3,a3,0x10
     29c:	8e55                	or	a2,a2,a3
     29e:	7ff77713          	andi	a4,a4,2047
     2a2:	8e59                	or	a2,a2,a4
     2a4:	8e5d                	or	a2,a2,a5
     2a6:	c110                	sw	a2,0(a0)
     2a8:	8082                	ret

000002aa <USB30_IN_ClearPendingIT>:
USB30_IN_ClearPendingIT():
     2aa:	400087b7          	lui	a5,0x40008
     2ae:	07c78793          	addi	a5,a5,124 # 4000807c <endp1RTbuff+0x1ffe7e7c>
     2b2:	0512                	slli	a0,a0,0x4
     2b4:	953e                	add	a0,a0,a5
     2b6:	411c                	lw	a5,0(a0)
     2b8:	0786                	slli	a5,a5,0x1
     2ba:	8385                	srli	a5,a5,0x1
     2bc:	c11c                	sw	a5,0(a0)
     2be:	8082                	ret

000002c0 <USB30_IN_ClearIT>:
USB30_IN_ClearIT():
     2c0:	400087b7          	lui	a5,0x40008
     2c4:	07c78793          	addi	a5,a5,124 # 4000807c <endp1RTbuff+0x1ffe7e7c>
     2c8:	0512                	slli	a0,a0,0x4
     2ca:	953e                	add	a0,a0,a5
     2cc:	411c                	lw	a5,0(a0)
     2ce:	03e00737          	lui	a4,0x3e00
     2d2:	8ff9                	and	a5,a5,a4
     2d4:	c11c                	sw	a5,0(a0)
     2d6:	8082                	ret

000002d8 <USB30_IN_ITflag>:
USB30_IN_ITflag():
     2d8:	400087b7          	lui	a5,0x40008
     2dc:	07c78793          	addi	a5,a5,124 # 4000807c <endp1RTbuff+0x1ffe7e7c>
     2e0:	0512                	slli	a0,a0,0x4
     2e2:	953e                	add	a0,a0,a5
     2e4:	4108                	lw	a0,0(a0)
     2e6:	8161                	srli	a0,a0,0x18
     2e8:	08057513          	andi	a0,a0,128
     2ec:	8082                	ret

000002ee <USB30_IN_Nump>:
USB30_IN_Nump():
     2ee:	85a1c783          	lbu	a5,-1958(gp) # 2000010a <ISO_endp>
     2f2:	8fa9                	xor	a5,a5,a0
     2f4:	8b9d                	andi	a5,a5,7
     2f6:	e799                	bnez	a5,304 <USB30_IN_Nump+0x16>
     2f8:	400087b7          	lui	a5,0x40008
     2fc:	5788                	lw	a0,40(a5)
     2fe:	8121                	srli	a0,a0,0x8
     300:	897d                	andi	a0,a0,31
     302:	8082                	ret
     304:	400087b7          	lui	a5,0x40008
     308:	0512                	slli	a0,a0,0x4
     30a:	07c78793          	addi	a5,a5,124 # 4000807c <endp1RTbuff+0x1ffe7e7c>
     30e:	953e                	add	a0,a0,a5
     310:	4108                	lw	a0,0(a0)
     312:	8141                	srli	a0,a0,0x10
     314:	b7f5                	j	300 <USB30_IN_Nump+0x12>

00000316 <USB30_Set_endp_seqnumber>:
USB30_Set_endp_seqnumber():
     316:	0005c703          	lbu	a4,0(a1)
     31a:	00f57793          	andi	a5,a0,15
     31e:	0562                	slli	a0,a0,0x18
     320:	03e006b7          	lui	a3,0x3e00
     324:	0756                	slli	a4,a4,0x15
     326:	8561                	srai	a0,a0,0x18
     328:	8f75                	and	a4,a4,a3
     32a:	0792                	slli	a5,a5,0x4
     32c:	400086b7          	lui	a3,0x40008
     330:	00055763          	bgez	a0,33e <USB30_Set_endp_seqnumber+0x28>
     334:	07c68693          	addi	a3,a3,124 # 4000807c <endp1RTbuff+0x1ffe7e7c>
     338:	97b6                	add	a5,a5,a3
     33a:	c398                	sw	a4,0(a5)
     33c:	8082                	ret
     33e:	07868693          	addi	a3,a3,120
     342:	bfdd                	j	338 <USB30_Set_endp_seqnumber+0x22>

00000344 <USB30_Send_ERDY>:
USB30_Send_ERDY():
     344:	00f57793          	andi	a5,a0,15
     348:	0562                	slli	a0,a0,0x18
     34a:	078a                	slli	a5,a5,0x2
     34c:	059a                	slli	a1,a1,0x6
     34e:	8561                	srai	a0,a0,0x18
     350:	8ddd                	or	a1,a1,a5
     352:	00055863          	bgez	a0,362 <USB30_Send_ERDY+0x1e>
     356:	0035e593          	ori	a1,a1,3
     35a:	400087b7          	lui	a5,0x40008
     35e:	c3ec                	sw	a1,68(a5)
     360:	8082                	ret
     362:	0015e593          	ori	a1,a1,1
     366:	bfd5                	j	35a <USB30_Send_ERDY+0x16>

00000368 <USB30_Device_Setaddress>:
USB30_Device_Setaddress():
     368:	40008737          	lui	a4,0x40008
     36c:	531c                	lw	a5,32(a4)
     36e:	0562                	slli	a0,a0,0x18
     370:	07a2                	slli	a5,a5,0x8
     372:	83a1                	srli	a5,a5,0x8
     374:	d31c                	sw	a5,32(a4)
     376:	531c                	lw	a5,32(a4)
     378:	8d5d                	or	a0,a0,a5
     37a:	d308                	sw	a0,32(a4)
     37c:	8082                	ret

0000037e <USB30_Switch_Powermode>:
USB30_Switch_Powermode():
     37e:	40008737          	lui	a4,0x40008
     382:	435c                	lw	a5,4(a4)
     384:	9bf1                	andi	a5,a5,-4
     386:	8d5d                	or	a0,a0,a5
     388:	c348                	sw	a0,4(a4)
     38a:	4b1c                	lw	a5,16(a4)
     38c:	8b91                	andi	a5,a5,4
     38e:	fff5                	bnez	a5,38a <USB30_Switch_Powermode+0xc>
     390:	8082                	ret

00000392 <USB30_getDevAddress>:
USB30_getDevAddress():
     392:	400087b7          	lui	a5,0x40008
     396:	5388                	lw	a0,32(a5)
     398:	8161                	srli	a0,a0,0x18
     39a:	8082                	ret

0000039c <stdreq>:
stdreq():
     39c:	200207b7          	lui	a5,0x20020
     3a0:	0007c703          	lbu	a4,0(a5) # 20020000 <endp0RTbuff>
     3a4:	06077693          	andi	a3,a4,96
     3a8:	e2c1                	bnez	a3,428 <stdreq+0x8c>
     3aa:	00078793          	mv	a5,a5
     3ae:	0017c683          	lbu	a3,1(a5)
     3b2:	460d                	li	a2,3
     3b4:	02c68963          	beq	a3,a2,3e6 <stdreq+0x4a>
     3b8:	03100613          	li	a2,49
     3bc:	04c68c63          	beq	a3,a2,414 <stdreq+0x78>
     3c0:	4605                	li	a2,1
     3c2:	06c69363          	bne	a3,a2,428 <stdreq+0x8c>
     3c6:	8b7d                	andi	a4,a4,31
     3c8:	4689                	li	a3,2
     3ca:	04d71f63          	bne	a4,a3,428 <stdreq+0x8c>
     3ce:	1101                	addi	sp,sp,-32
     3d0:	ce06                	sw	ra,28(sp)
     3d2:	0047c503          	lbu	a0,4(a5)
     3d6:	00f10593          	addi	a1,sp,15
     3da:	000107a3          	sb	zero,15(sp)
     3de:	3f25                	jal	316 <USB30_Set_endp_seqnumber>
     3e0:	40f2                	lw	ra,28(sp)
     3e2:	6105                	addi	sp,sp,32
     3e4:	8082                	ret
     3e6:	0027c783          	lbu	a5,2(a5)
     3ea:	03000713          	li	a4,48
     3ee:	00e79963          	bne	a5,a4,400 <stdreq+0x64>
     3f2:	40008737          	lui	a4,0x40008
     3f6:	431c                	lw	a5,0(a4)
     3f8:	66c1                	lui	a3,0x10
     3fa:	8fd5                	or	a5,a5,a3
     3fc:	c31c                	sw	a5,0(a4)
     3fe:	8082                	ret
     400:	03100713          	li	a4,49
     404:	02e79263          	bne	a5,a4,428 <stdreq+0x8c>
     408:	40008737          	lui	a4,0x40008
     40c:	431c                	lw	a5,0(a4)
     40e:	000206b7          	lui	a3,0x20
     412:	b7e5                	j	3fa <stdreq+0x5e>
     414:	0037c703          	lbu	a4,3(a5)
     418:	0027c783          	lbu	a5,2(a5)
     41c:	0722                	slli	a4,a4,0x8
     41e:	97ba                	add	a5,a5,a4
     420:	40008737          	lui	a4,0x40008
     424:	df1c                	sw	a5,56(a4)
     426:	8082                	ret
     428:	8082                	ret

0000042a <USB30_IRQHandler>:
USB30_IRQHandler():
     42a:	40008737          	lui	a4,0x40008
     42e:	535c                	lw	a5,36(a4)
     430:	1141                	addi	sp,sp,-16
     432:	c422                	sw	s0,8(sp)
     434:	c606                	sw	ra,12(sp)
     436:	0ff7f413          	andi	s0,a5,255
     43a:	8ba1                	andi	a5,a5,8
     43c:	cb89                	beqz	a5,44e <USB30_IRQHandler+0x24>
     43e:	47a1                	li	a5,8
     440:	d35c                	sw	a5,36(a4)
     442:	8591c783          	lbu	a5,-1959(gp) # 20000109 <ISO_MODE_STATUS>
     446:	c781                	beqz	a5,44e <USB30_IRQHandler+0x24>
     448:	5b08                	lw	a0,48(a4)
     44a:	1ed000ef          	jal	ra,e36 <USB30_ITP_Callback>
     44e:	00147793          	andi	a5,s0,1
     452:	12078663          	beqz	a5,57e <USB30_IRQHandler+0x154>
     456:	40008437          	lui	s0,0x40008
     45a:	505c                	lw	a5,36(s0)
     45c:	5054                	lw	a3,36(s0)
     45e:	83a1                	srli	a5,a5,0x8
     460:	82b1                	srli	a3,a3,0xc
     462:	8b9d                	andi	a5,a5,7
     464:	8a85                	andi	a3,a3,1
     466:	0e079f63          	bnez	a5,564 <USB30_IRQHandler+0x13a>
     46a:	cea9                	beqz	a3,4c4 <USB30_IRQHandler+0x9a>
     46c:	29f5                	jal	968 <EP0_IN_Callback>
     46e:	8581c683          	lbu	a3,-1960(gp) # 20000108 <count_IN>
     472:	0685                	addi	a3,a3,1
     474:	0ff6f693          	andi	a3,a3,255
     478:	84d18c23          	sb	a3,-1960(gp) # 20000108 <count_IN>
     47c:	8581c683          	lbu	a3,-1960(gp) # 20000108 <count_IN>
     480:	8afd                	andi	a3,a3,31
     482:	84d18c23          	sb	a3,-1960(gp) # 20000108 <count_IN>
     486:	e919                	bnez	a0,49c <USB30_IRQHandler+0x72>
     488:	84018c23          	sb	zero,-1960(gp) # 20000108 <count_IN>
     48c:	040107b7          	lui	a5,0x4010
     490:	dc3c                	sw	a5,120(s0)
     492:	06042e23          	sw	zero,124(s0) # 4000807c <endp1RTbuff+0x1ffe7e7c>
     496:	04100793          	li	a5,65
     49a:	a0b1                	j	4e6 <USB30_IRQHandler+0xbc>
     49c:	06042c23          	sw	zero,120(s0)
     4a0:	5c7c                	lw	a5,124(s0)
     4a2:	ec2006b7          	lui	a3,0xec200
     4a6:	8581c703          	lbu	a4,-1960(gp) # 20000108 <count_IN>
     4aa:	c0068693          	addi	a3,a3,-1024 # ec1ffc00 <endp1RTbuff+0xcc1dfa00>
     4ae:	8ff5                	and	a5,a5,a3
     4b0:	8fc9                	or	a5,a5,a0
     4b2:	0756                	slli	a4,a4,0x15
     4b4:	8fd9                	or	a5,a5,a4
     4b6:	14010537          	lui	a0,0x14010
     4ba:	8fc9                	or	a5,a5,a0
     4bc:	dc7c                	sw	a5,124(s0)
     4be:	04300793          	li	a5,67
     4c2:	a015                	j	4e6 <USB30_IRQHandler+0xbc>
     4c4:	5c3c                	lw	a5,120(s0)
     4c6:	00179713          	slli	a4,a5,0x1
     4ca:	04075363          	bgez	a4,510 <USB30_IRQHandler+0xe6>
     4ce:	06042c23          	sw	zero,120(s0)
     4d2:	35e9                	jal	39c <stdreq>
     4d4:	2c7d                	jal	792 <USB30_StandardReq>
     4d6:	67c1                	lui	a5,0x10
     4d8:	17fd                	addi	a5,a5,-1
     4da:	00f51f63          	bne	a0,a5,4f8 <USB30_IRQHandler+0xce>
     4de:	180007b7          	lui	a5,0x18000
     4e2:	dc7c                	sw	a5,124(s0)
     4e4:	478d                	li	a5,3
     4e6:	c07c                	sw	a5,68(s0)
     4e8:	400087b7          	lui	a5,0x40008
     4ec:	4705                	li	a4,1
     4ee:	d3d8                	sw	a4,36(a5)
     4f0:	40b2                	lw	ra,12(sp)
     4f2:	4422                	lw	s0,8(sp)
     4f4:	0141                	addi	sp,sp,16
     4f6:	8082                	ret
     4f8:	040107b7          	lui	a5,0x4010
     4fc:	c929                	beqz	a0,54e <USB30_IRQHandler+0x124>
     4fe:	20000793          	li	a5,512
     502:	fea7e3e3          	bltu	a5,a0,4e8 <USB30_IRQHandler+0xbe>
     506:	140107b7          	lui	a5,0x14010
     50a:	8d5d                	or	a0,a0,a5
     50c:	dc68                	sw	a0,124(s0)
     50e:	bf45                	j	4be <USB30_IRQHandler+0x94>
     510:	5c3c                	lw	a5,120(s0)
     512:	00279713          	slli	a4,a5,0x2
     516:	00075863          	bgez	a4,526 <USB30_IRQHandler+0xfc>
     51a:	21d1                	jal	9de <USB30_Setup_Status>
     51c:	06042e23          	sw	zero,124(s0)
     520:	06042c23          	sw	zero,120(s0)
     524:	b7d1                	j	4e8 <USB30_IRQHandler+0xbe>
     526:	2955                	jal	9da <EP0_OUT_Callback>
     528:	8571c703          	lbu	a4,-1961(gp) # 20000107 <count_OUT>
     52c:	0705                	addi	a4,a4,1
     52e:	0ff77713          	andi	a4,a4,255
     532:	84e18ba3          	sb	a4,-1961(gp) # 20000107 <count_OUT>
     536:	8571c703          	lbu	a4,-1961(gp) # 20000107 <count_OUT>
     53a:	8b7d                	andi	a4,a4,31
     53c:	84e18ba3          	sb	a4,-1961(gp) # 20000107 <count_OUT>
     540:	c909                	beqz	a0,552 <USB30_IRQHandler+0x128>
     542:	8571c783          	lbu	a5,-1961(gp) # 20000107 <count_OUT>
     546:	04010737          	lui	a4,0x4010
     54a:	07d6                	slli	a5,a5,0x15
     54c:	8fd9                	or	a5,a5,a4
     54e:	dc3c                	sw	a5,120(s0)
     550:	b799                	j	496 <USB30_IRQHandler+0x6c>
     552:	04010737          	lui	a4,0x4010
     556:	dc38                	sw	a4,120(s0)
     558:	04100713          	li	a4,65
     55c:	c078                	sw	a4,68(s0)
     55e:	84018ba3          	sb	zero,-1961(gp) # 20000107 <count_OUT>
     562:	b759                	j	4e8 <USB30_IRQHandler+0xbe>
     564:	17fd                	addi	a5,a5,-1
     566:	20000737          	lui	a4,0x20000
     56a:	01870713          	addi	a4,a4,24 # 20000018 <pEpInt_IN>
     56e:	078a                	slli	a5,a5,0x2
     570:	97ba                	add	a5,a5,a4
     572:	c681                	beqz	a3,57a <USB30_IRQHandler+0x150>
     574:	439c                	lw	a5,0(a5)
     576:	9782                	jalr	a5
     578:	bf85                	j	4e8 <USB30_IRQHandler+0xbe>
     57a:	4fdc                	lw	a5,28(a5)
     57c:	bfed                	j	576 <USB30_IRQHandler+0x14c>
     57e:	8809                	andi	s0,s0,2
     580:	d825                	beqz	s0,4f0 <USB30_IRQHandler+0xc6>
     582:	400087b7          	lui	a5,0x40008
     586:	4fb8                	lw	a4,88(a5)
     588:	0a000693          	li	a3,160
     58c:	1e077713          	andi	a4,a4,480
     590:	00d71963          	bne	a4,a3,5a2 <USB30_IRQHandler+0x178>
     594:	2c000713          	li	a4,704
     598:	c7b8                	sw	a4,72(a5)
     59a:	0407a623          	sw	zero,76(a5) # 4000804c <endp1RTbuff+0x1ffe7e4c>
     59e:	0407a823          	sw	zero,80(a5)
     5a2:	400087b7          	lui	a5,0x40008
     5a6:	4709                	li	a4,2
     5a8:	b799                	j	4ee <USB30_IRQHandler+0xc4>

000005aa <memset>:
memset():
     5aa:	433d                	li	t1,15
     5ac:	872a                	mv	a4,a0
     5ae:	02c37363          	bgeu	t1,a2,5d4 <memset+0x2a>
     5b2:	00f77793          	andi	a5,a4,15
     5b6:	efbd                	bnez	a5,634 <memset+0x8a>
     5b8:	e5ad                	bnez	a1,622 <memset+0x78>
     5ba:	ff067693          	andi	a3,a2,-16
     5be:	8a3d                	andi	a2,a2,15
     5c0:	96ba                	add	a3,a3,a4
     5c2:	c30c                	sw	a1,0(a4)
     5c4:	c34c                	sw	a1,4(a4)
     5c6:	c70c                	sw	a1,8(a4)
     5c8:	c74c                	sw	a1,12(a4)
     5ca:	0741                	addi	a4,a4,16
     5cc:	fed76be3          	bltu	a4,a3,5c2 <memset+0x18>
     5d0:	e211                	bnez	a2,5d4 <memset+0x2a>
     5d2:	8082                	ret
     5d4:	40c306b3          	sub	a3,t1,a2
     5d8:	068a                	slli	a3,a3,0x2
     5da:	00000297          	auipc	t0,0x0
     5de:	9696                	add	a3,a3,t0
     5e0:	00a68067          	jr	10(a3)
     5e4:	00b70723          	sb	a1,14(a4)
     5e8:	00b706a3          	sb	a1,13(a4)
     5ec:	00b70623          	sb	a1,12(a4)
     5f0:	00b705a3          	sb	a1,11(a4)
     5f4:	00b70523          	sb	a1,10(a4)
     5f8:	00b704a3          	sb	a1,9(a4)
     5fc:	00b70423          	sb	a1,8(a4)
     600:	00b703a3          	sb	a1,7(a4)
     604:	00b70323          	sb	a1,6(a4)
     608:	00b702a3          	sb	a1,5(a4)
     60c:	00b70223          	sb	a1,4(a4)
     610:	00b701a3          	sb	a1,3(a4)
     614:	00b70123          	sb	a1,2(a4)
     618:	00b700a3          	sb	a1,1(a4)
     61c:	00b70023          	sb	a1,0(a4)
     620:	8082                	ret
     622:	0ff5f593          	andi	a1,a1,255
     626:	00859693          	slli	a3,a1,0x8
     62a:	8dd5                	or	a1,a1,a3
     62c:	01059693          	slli	a3,a1,0x10
     630:	8dd5                	or	a1,a1,a3
     632:	b761                	j	5ba <memset+0x10>
     634:	00279693          	slli	a3,a5,0x2
     638:	00000297          	auipc	t0,0x0
     63c:	9696                	add	a3,a3,t0
     63e:	8286                	mv	t0,ra
     640:	fa8680e7          	jalr	-88(a3)
     644:	8096                	mv	ra,t0
     646:	17c1                	addi	a5,a5,-16
     648:	8f1d                	sub	a4,a4,a5
     64a:	963e                	add	a2,a2,a5
     64c:	f8c374e3          	bgeu	t1,a2,5d4 <memset+0x2a>
     650:	b7a5                	j	5b8 <memset+0xe>

00000652 <PFIC_DisableIRQ>:
PFIC_DisableIRQ():
c:/Users/rui/Desktop/iphone_screen/wch/code/test_usb_hspi/test_usb_hspi/RVMSIS/core_riscv.h:147
 */
RV_STATIC_INLINE void PFIC_DisableIRQ(IRQn_Type IRQn)
{
    UINT32 t;

    t = PFIC->ITHRESDR;
     652:	e000e7b7          	lui	a5,0xe000e
c:/Users/rui/Desktop/iphone_screen/wch/code/test_usb_hspi/test_usb_hspi/RVMSIS/core_riscv.h:148
    PFIC->ITHRESDR = 0x10;
     656:	4741                	li	a4,16
c:/Users/rui/Desktop/iphone_screen/wch/code/test_usb_hspi/test_usb_hspi/RVMSIS/core_riscv.h:147
    t = PFIC->ITHRESDR;
     658:	43b4                	lw	a3,64(a5)
c:/Users/rui/Desktop/iphone_screen/wch/code/test_usb_hspi/test_usb_hspi/RVMSIS/core_riscv.h:148
    PFIC->ITHRESDR = 0x10;
     65a:	c3b8                	sw	a4,64(a5)
c:/Users/rui/Desktop/iphone_screen/wch/code/test_usb_hspi/test_usb_hspi/RVMSIS/core_riscv.h:149
    PFIC->IRER[((UINT32)(IRQn) >> 5)] = (1 << ((UINT32)(IRQn) & 0x1F));
     65c:	4705                	li	a4,1
     65e:	00a71533          	sll	a0,a4,a0
     662:	18a7a023          	sw	a0,384(a5) # e000e180 <endp1RTbuff+0xbffedf80>
c:/Users/rui/Desktop/iphone_screen/wch/code/test_usb_hspi/test_usb_hspi/RVMSIS/core_riscv.h:150
    PFIC->ITHRESDR = t;
     666:	c3b4                	sw	a3,64(a5)
c:/Users/rui/Desktop/iphone_screen/wch/code/test_usb_hspi/test_usb_hspi/RVMSIS/core_riscv.h:151
}
     668:	8082                	ret

0000066a <USB30D_init>:
USB30D_init():
c:\Users\rui\Desktop\iphone_screen\wch\code\test_usb_hspi\test_usb_hspi\obj/../User/USB30/CH56x_usb30.c:299
 * @brief   USB3.0 initialization
 *
 * @return  None
 */
void USB30D_init( FunctionalState sta )
{
     66a:	1141                	addi	sp,sp,-16
     66c:	c606                	sw	ra,12(sp)
c:\Users\rui\Desktop\iphone_screen\wch\code\test_usb_hspi\test_usb_hspi\obj/../User/USB30/CH56x_usb30.c:301
    UINT16 i, s;
    if( sta )
     66e:	c139                	beqz	a0,6b4 <USB30D_init+0x4a>
c:\Users\rui\Desktop\iphone_screen\wch\code\test_usb_hspi\test_usb_hspi\obj/../User/USB30/CH56x_usb30.c:303
    {
        s = USB30_Device_Init( );
     670:	3ca9                	jal	ca <USB30_Device_Init>
c:\Users\rui\Desktop\iphone_screen\wch\code\test_usb_hspi\test_usb_hspi\obj/../User/USB30/CH56x_usb30.c:304
        if( s )
     672:	c901                	beqz	a0,682 <USB30D_init+0x18>
c:\Users\rui\Desktop\iphone_screen\wch\code\test_usb_hspi\test_usb_hspi\obj/../User/USB30/CH56x_usb30.c:306
        {
            printf("Init err\n");
     674:	00003537          	lui	a0,0x3
     678:	ec450513          	addi	a0,a0,-316 # 2ec4 <StringProduct+0x68>
     67c:	574010ef          	jal	ra,1bf0 <puts>
c:\Users\rui\Desktop\iphone_screen\wch\code\test_usb_hspi\test_usb_hspi\obj/../User/USB30/CH56x_usb30.c:307 (discriminator 1)
            while( 1 );
     680:	a001                	j	680 <USB30D_init+0x16>
c:\Users\rui\Desktop\iphone_screen\wch\code\test_usb_hspi\test_usb_hspi\obj/../User/USB30/CH56x_usb30.c:309
        }
        USBSS->UEP_CFG = EP0_R_EN | EP0_T_EN | EP1_R_EN | EP1_T_EN ; // set end point rx/tx enable
     682:	400087b7          	lui	a5,0x40008
     686:	30300713          	li	a4,771
     68a:	dbb8                	sw	a4,112(a5)
c:\Users\rui\Desktop\iphone_screen\wch\code\test_usb_hspi\test_usb_hspi\obj/../User/USB30/CH56x_usb30.c:311

        USBSS->UEP0_DMA = (UINT32)(UINT8 *)endp0RTbuff;
     68c:	20020737          	lui	a4,0x20020
     690:	00070713          	mv	a4,a4
     694:	dbf8                	sw	a4,116(a5)
c:\Users\rui\Desktop\iphone_screen\wch\code\test_usb_hspi\test_usb_hspi\obj/../User/USB30/CH56x_usb30.c:312
        USBSS->UEP1_TX_DMA = (UINT32)(UINT8 *)DEF_ENDP1_TX_DMA_ADDR;
     696:	20022737          	lui	a4,0x20022
     69a:	80070713          	addi	a4,a4,-2048 # 20021800 <endp1RTbuff+0x1600>
     69e:	08e7a023          	sw	a4,128(a5) # 40008080 <endp1RTbuff+0x1ffe7e80>
c:\Users\rui\Desktop\iphone_screen\wch\code\test_usb_hspi\test_usb_hspi\obj/../User/USB30/CH56x_usb30.c:313
        USBSS->UEP1_RX_DMA = (UINT32)(UINT8 *)DEF_ENDP1_RX_DMA_ADDR;
     6a2:	2002e737          	lui	a4,0x2002e
     6a6:	80070713          	addi	a4,a4,-2048 # 2002d800 <endp1RTbuff+0xd600>
     6aa:	08e7a223          	sw	a4,132(a5)
c:\Users\rui\Desktop\iphone_screen\wch\code\test_usb_hspi\test_usb_hspi\obj/../User/USB30/CH56x_usb30.c:326
        USBSS->LINK_CFG = PIPE_RESET | LFPS_RX_PD;
        USBSS->LINK_CTRL = GO_DISABLED | POWER_MODE_3;
        USBSS->LINK_INT_CTRL = 0;
        USBSS->USB_CONTROL = USB_FORCE_RST | USB_ALL_CLR;
    }
}
     6ae:	40b2                	lw	ra,12(sp)
     6b0:	0141                	addi	sp,sp,16
     6b2:	8082                	ret
c:\Users\rui\Desktop\iphone_screen\wch\code\test_usb_hspi\test_usb_hspi\obj/../User/USB30/CH56x_usb30.c:320
        USB30_Switch_Powermode( POWER_MODE_2 );
     6b4:	4509                	li	a0,2
     6b6:	31e1                	jal	37e <USB30_Switch_Powermode>
c:\Users\rui\Desktop\iphone_screen\wch\code\test_usb_hspi\test_usb_hspi\obj/../User/USB30/CH56x_usb30.c:321
        USBSS->LINK_CFG = PIPE_RESET | LFPS_RX_PD;
     6b8:	400087b7          	lui	a5,0x40008
     6bc:	02800713          	li	a4,40
     6c0:	c398                	sw	a4,0(a5)
c:\Users\rui\Desktop\iphone_screen\wch\code\test_usb_hspi\test_usb_hspi\obj/../User/USB30/CH56x_usb30.c:322
        USBSS->LINK_CTRL = GO_DISABLED | POWER_MODE_3;
     6c2:	474d                	li	a4,19
     6c4:	c3d8                	sw	a4,4(a5)
c:\Users\rui\Desktop\iphone_screen\wch\code\test_usb_hspi\test_usb_hspi\obj/../User/USB30/CH56x_usb30.c:323
        USBSS->LINK_INT_CTRL = 0;
     6c6:	0007a423          	sw	zero,8(a5) # 40008008 <endp1RTbuff+0x1ffe7e08>
c:\Users\rui\Desktop\iphone_screen\wch\code\test_usb_hspi\test_usb_hspi\obj/../User/USB30/CH56x_usb30.c:324
        USBSS->USB_CONTROL = USB_FORCE_RST | USB_ALL_CLR;
     6ca:	4719                	li	a4,6
     6cc:	d398                	sw	a4,32(a5)
c:\Users\rui\Desktop\iphone_screen\wch\code\test_usb_hspi\test_usb_hspi\obj/../User/USB30/CH56x_usb30.c:326
}
     6ce:	b7c5                	j	6ae <USB30D_init+0x44>

000006d0 <USB30_NonStandardReq>:
USB30_NonStandardReq():
c:\Users\rui\Desktop\iphone_screen\wch\code\test_usb_hspi\test_usb_hspi\obj/../User/USB30/CH56x_usb30.c:336
 * @brief   USB3.0 Nonstandard request processing function
 *
 * @return  Length
 */
UINT16 USB30_NonStandardReq( void )
{
     6d0:	1101                	addi	sp,sp,-32
c:\Users\rui\Desktop\iphone_screen\wch\code\test_usb_hspi\test_usb_hspi\obj/../User/USB30/CH56x_usb30.c:339
    UINT8 endp_dir;

    SetupReqCode = UsbSetupBuf->bRequest;
     6d2:	20020537          	lui	a0,0x20020
c:\Users\rui\Desktop\iphone_screen\wch\code\test_usb_hspi\test_usb_hspi\obj/../User/USB30/CH56x_usb30.c:336
{
     6d6:	cc22                	sw	s0,24(sp)
c:\Users\rui\Desktop\iphone_screen\wch\code\test_usb_hspi\test_usb_hspi\obj/../User/USB30/CH56x_usb30.c:339
    SetupReqCode = UsbSetupBuf->bRequest;
     6d8:	00050713          	mv	a4,a0
c:\Users\rui\Desktop\iphone_screen\wch\code\test_usb_hspi\test_usb_hspi\obj/../User/USB30/CH56x_usb30.c:336
{
     6dc:	ce06                	sw	ra,28(sp)
     6de:	ca26                	sw	s1,20(sp)
     6e0:	c84a                	sw	s2,16(sp)
     6e2:	c64e                	sw	s3,12(sp)
     6e4:	c452                	sw	s4,8(sp)
     6e6:	c256                	sw	s5,4(sp)
c:\Users\rui\Desktop\iphone_screen\wch\code\test_usb_hspi\test_usb_hspi\obj/../User/USB30/CH56x_usb30.c:339
    SetupReqCode = UsbSetupBuf->bRequest;
     6e8:	00174603          	lbu	a2,1(a4)
c:\Users\rui\Desktop\iphone_screen\wch\code\test_usb_hspi\test_usb_hspi\obj/../User/USB30/CH56x_usb30.c:340
    SetupLen = UsbSetupBuf->wLength;
     6ec:	00675583          	lhu	a1,6(a4)
c:\Users\rui\Desktop\iphone_screen\wch\code\test_usb_hspi\test_usb_hspi\obj/../User/USB30/CH56x_usb30.c:339
    SetupReqCode = UsbSetupBuf->bRequest;
     6f0:	82c18823          	sb	a2,-2000(gp) # 200000e0 <SetupReqCode>
c:\Users\rui\Desktop\iphone_screen\wch\code\test_usb_hspi\test_usb_hspi\obj/../User/USB30/CH56x_usb30.c:340
    SetupLen = UsbSetupBuf->wLength;
     6f4:	82b1a623          	sw	a1,-2004(gp) # 200000dc <SetupLen>
c:\Users\rui\Desktop\iphone_screen\wch\code\test_usb_hspi\test_usb_hspi\obj/../User/USB30/CH56x_usb30.c:341
    endp_dir = UsbSetupBuf->bRequestType & 0x80;
     6f8:	4809                	li	a6,2
     6fa:	00074683          	lbu	a3,0(a4)
c:\Users\rui\Desktop\iphone_screen\wch\code\test_usb_hspi\test_usb_hspi\obj/../User/USB30/CH56x_usb30.c:348
#if 0
    printf("NS:%02x %02x %02x %02x %02x %02x %02x %02x\n", endp0RTbuff[0], endp0RTbuff[1],
            endp0RTbuff[2], endp0RTbuff[3], endp0RTbuff[4], endp0RTbuff[5],
            endp0RTbuff[6], endp0RTbuff[7]);
#endif
    switch( SetupReqCode )
     6fe:	83018793          	addi	a5,gp,-2000 # 200000e0 <SetupReqCode>
     702:	82c18413          	addi	s0,gp,-2004 # 200000dc <SetupLen>
     706:	03060563          	beq	a2,a6,730 <USB30_NonStandardReq+0x60>
     70a:	0aa00713          	li	a4,170
     70e:	04e60063          	beq	a2,a4,74e <USB30_NonStandardReq+0x7e>
c:\Users\rui\Desktop\iphone_screen\wch\code\test_usb_hspi\test_usb_hspi\obj/../User/USB30/CH56x_usb30.c:365
                        SetupLen = SIZE_PropertyHeader;
                    }
                    pDescr = (PUINT8)PropertyHeader;
                    break;
                default:
                    SetupReqCode = INVALID_REQ_CODE;
     712:	577d                	li	a4,-1
c:\Users\rui\Desktop\iphone_screen\wch\code\test_usb_hspi\test_usb_hspi\obj/../User/USB30/CH56x_usb30.c:366
                    return USB_DESCR_UNSUPPORTED;
     714:	69c1                	lui	s3,0x10
c:\Users\rui\Desktop\iphone_screen\wch\code\test_usb_hspi\test_usb_hspi\obj/../User/USB30/CH56x_usb30.c:365
                    SetupReqCode = INVALID_REQ_CODE;
     716:	00e78023          	sb	a4,0(a5)
c:\Users\rui\Desktop\iphone_screen\wch\code\test_usb_hspi\test_usb_hspi\obj/../User/USB30/CH56x_usb30.c:366
                    return USB_DESCR_UNSUPPORTED;
     71a:	19fd                	addi	s3,s3,-1
c:\Users\rui\Desktop\iphone_screen\wch\code\test_usb_hspi\test_usb_hspi\obj/../User/USB30/CH56x_usb30.c:383
        memcpy( endp0RTbuff, pDescr, len );                           // Load upload data
        pDescr += len;
    }
    SetupLen -= len;
    return len;
}
     71c:	40f2                	lw	ra,28(sp)
     71e:	4462                	lw	s0,24(sp)
     720:	854e                	mv	a0,s3
     722:	44d2                	lw	s1,20(sp)
     724:	4942                	lw	s2,16(sp)
     726:	49b2                	lw	s3,12(sp)
     728:	4a22                	lw	s4,8(sp)
     72a:	4a92                	lw	s5,4(sp)
     72c:	6105                	addi	sp,sp,32
     72e:	8082                	ret
c:\Users\rui\Desktop\iphone_screen\wch\code\test_usb_hspi\test_usb_hspi\obj/../User/USB30/CH56x_usb30.c:355
            switch( UsbSetupBuf->wIndexL )
     730:	00474603          	lbu	a2,4(a4)
     734:	4715                	li	a4,5
     736:	fce61ee3          	bne	a2,a4,712 <USB30_NonStandardReq+0x42>
c:\Users\rui\Desktop\iphone_screen\wch\code\test_usb_hspi\test_usb_hspi\obj/../User/USB30/CH56x_usb30.c:358
                    if( SetupLen > SIZE_PropertyHeader )
     73a:	08e00793          	li	a5,142
     73e:	00b7f363          	bgeu	a5,a1,744 <USB30_NonStandardReq+0x74>
c:\Users\rui\Desktop\iphone_screen\wch\code\test_usb_hspi\test_usb_hspi\obj/../User/USB30/CH56x_usb30.c:360
                        SetupLen = SIZE_PropertyHeader;
     742:	c01c                	sw	a5,0(s0)
c:\Users\rui\Desktop\iphone_screen\wch\code\test_usb_hspi\test_usb_hspi\obj/../User/USB30/CH56x_usb30.c:362
                    pDescr = (PUINT8)PropertyHeader;
     744:	678d                	lui	a5,0x3
     746:	d8c78793          	addi	a5,a5,-628 # 2d8c <PropertyHeader>
     74a:	82f1ac23          	sw	a5,-1992(gp) # 200000e8 <pDescr>
c:\Users\rui\Desktop\iphone_screen\wch\code\test_usb_hspi\test_usb_hspi\obj/../User/USB30/CH56x_usb30.c:375
    len = SetupLen >= ENDP0_MAXPACK ? ENDP0_MAXPACK : SetupLen;     // Current transmission length
     74e:	4004                	lw	s1,0(s0)
     750:	20000793          	li	a5,512
     754:	8926                	mv	s2,s1
     756:	0097f463          	bgeu	a5,s1,75e <USB30_NonStandardReq+0x8e>
     75a:	20000913          	li	s2,512
c:\Users\rui\Desktop\iphone_screen\wch\code\test_usb_hspi\test_usb_hspi\obj/../User/USB30/CH56x_usb30.c:376
    if( endp_dir )
     75e:	01869793          	slli	a5,a3,0x18
c:\Users\rui\Desktop\iphone_screen\wch\code\test_usb_hspi\test_usb_hspi\obj/../User/USB30/CH56x_usb30.c:375
    len = SetupLen >= ENDP0_MAXPACK ? ENDP0_MAXPACK : SetupLen;     // Current transmission length
     762:	01091993          	slli	s3,s2,0x10
c:\Users\rui\Desktop\iphone_screen\wch\code\test_usb_hspi\test_usb_hspi\obj/../User/USB30/CH56x_usb30.c:376
    if( endp_dir )
     766:	87e1                	srai	a5,a5,0x18
c:\Users\rui\Desktop\iphone_screen\wch\code\test_usb_hspi\test_usb_hspi\obj/../User/USB30/CH56x_usb30.c:375
    len = SetupLen >= ENDP0_MAXPACK ? ENDP0_MAXPACK : SetupLen;     // Current transmission length
     768:	0109d993          	srli	s3,s3,0x10
c:\Users\rui\Desktop\iphone_screen\wch\code\test_usb_hspi\test_usb_hspi\obj/../User/USB30/CH56x_usb30.c:376
    if( endp_dir )
     76c:	0007df63          	bgez	a5,78a <USB30_NonStandardReq+0xba>
c:\Users\rui\Desktop\iphone_screen\wch\code\test_usb_hspi\test_usb_hspi\obj/../User/USB30/CH56x_usb30.c:378
        memcpy( endp0RTbuff, pDescr, len );                           // Load upload data
     770:	83818a13          	addi	s4,gp,-1992 # 200000e8 <pDescr>
     774:	000a2a83          	lw	s5,0(s4)
     778:	864a                	mv	a2,s2
     77a:	00050513          	mv	a0,a0
     77e:	85d6                	mv	a1,s5
c:\Users\rui\Desktop\iphone_screen\wch\code\test_usb_hspi\test_usb_hspi\obj/../User/USB30/CH56x_usb30.c:379
        pDescr += len;
     780:	9aca                	add	s5,s5,s2
c:\Users\rui\Desktop\iphone_screen\wch\code\test_usb_hspi\test_usb_hspi\obj/../User/USB30/CH56x_usb30.c:378
        memcpy( endp0RTbuff, pDescr, len );                           // Load upload data
     782:	29a010ef          	jal	ra,1a1c <memcpy>
c:\Users\rui\Desktop\iphone_screen\wch\code\test_usb_hspi\test_usb_hspi\obj/../User/USB30/CH56x_usb30.c:379
        pDescr += len;
     786:	015a2023          	sw	s5,0(s4)
c:\Users\rui\Desktop\iphone_screen\wch\code\test_usb_hspi\test_usb_hspi\obj/../User/USB30/CH56x_usb30.c:381
    SetupLen -= len;
     78a:	412484b3          	sub	s1,s1,s2
     78e:	c004                	sw	s1,0(s0)
c:\Users\rui\Desktop\iphone_screen\wch\code\test_usb_hspi\test_usb_hspi\obj/../User/USB30/CH56x_usb30.c:382
    return len;
     790:	b771                	j	71c <USB30_NonStandardReq+0x4c>

00000792 <USB30_StandardReq>:
USB30_StandardReq():
c:\Users\rui\Desktop\iphone_screen\wch\code\test_usb_hspi\test_usb_hspi\obj/../User/USB30/CH56x_usb30.c:393
 * @brief   USB3.0 Standard request
 *
 * @return  Length
 */
UINT16 USB30_StandardReq( void )
{
     792:	1101                	addi	sp,sp,-32
c:\Users\rui\Desktop\iphone_screen\wch\code\test_usb_hspi\test_usb_hspi\obj/../User/USB30/CH56x_usb30.c:394
    SetupReqCode = UsbSetupBuf->bRequest;
     794:	20020537          	lui	a0,0x20020
c:\Users\rui\Desktop\iphone_screen\wch\code\test_usb_hspi\test_usb_hspi\obj/../User/USB30/CH56x_usb30.c:393
{
     798:	cc22                	sw	s0,24(sp)
     79a:	ce06                	sw	ra,28(sp)
     79c:	ca26                	sw	s1,20(sp)
     79e:	c84a                	sw	s2,16(sp)
     7a0:	c64e                	sw	s3,12(sp)
     7a2:	c452                	sw	s4,8(sp)
     7a4:	c256                	sw	s5,4(sp)
c:\Users\rui\Desktop\iphone_screen\wch\code\test_usb_hspi\test_usb_hspi\obj/../User/USB30/CH56x_usb30.c:394
    SetupReqCode = UsbSetupBuf->bRequest;
     7a6:	00050693          	mv	a3,a0
     7aa:	0016c783          	lbu	a5,1(a3)
c:\Users\rui\Desktop\iphone_screen\wch\code\test_usb_hspi\test_usb_hspi\obj/../User/USB30/CH56x_usb30.c:395
    SetupLen = UsbSetupBuf->wLength;
     7ae:	0066d703          	lhu	a4,6(a3)
c:\Users\rui\Desktop\iphone_screen\wch\code\test_usb_hspi\test_usb_hspi\obj/../User/USB30/CH56x_usb30.c:403
    printf("S:%02x %02x %02x %02x %02x %02x %02x %02x\n", endp0RTbuff[0], endp0RTbuff[1],
            endp0RTbuff[2], endp0RTbuff[3], endp0RTbuff[4], endp0RTbuff[5],
            endp0RTbuff[6], endp0RTbuff[7]);
#endif

    if( (UsbSetupBuf->bRequestType & USB_REQ_TYP_MASK) != USB_REQ_TYP_STANDARD )
     7b2:	0006c603          	lbu	a2,0(a3)
c:\Users\rui\Desktop\iphone_screen\wch\code\test_usb_hspi\test_usb_hspi\obj/../User/USB30/CH56x_usb30.c:395
    SetupLen = UsbSetupBuf->wLength;
     7b6:	82c18813          	addi	a6,gp,-2004 # 200000dc <SetupLen>
c:\Users\rui\Desktop\iphone_screen\wch\code\test_usb_hspi\test_usb_hspi\obj/../User/USB30/CH56x_usb30.c:394
    SetupReqCode = UsbSetupBuf->bRequest;
     7ba:	82f18823          	sb	a5,-2000(gp) # 200000e0 <SetupReqCode>
c:\Users\rui\Desktop\iphone_screen\wch\code\test_usb_hspi\test_usb_hspi\obj/../User/USB30/CH56x_usb30.c:395
    SetupLen = UsbSetupBuf->wLength;
     7be:	00e82023          	sw	a4,0(a6) # 3e00000 <_data_lma+0x3dfcf8c>
c:\Users\rui\Desktop\iphone_screen\wch\code\test_usb_hspi\test_usb_hspi\obj/../User/USB30/CH56x_usb30.c:403
    if( (UsbSetupBuf->bRequestType & USB_REQ_TYP_MASK) != USB_REQ_TYP_STANDARD )
     7c2:	06067613          	andi	a2,a2,96
     7c6:	ca11                	beqz	a2,7da <USB30_StandardReq+0x48>
c:\Users\rui\Desktop\iphone_screen\wch\code\test_usb_hspi\test_usb_hspi\obj/../User/USB30/CH56x_usb30.c:502
                SetupReqCode = INVALID_REQ_CODE;
                break;
        }
    }
    return len;
}
     7c8:	4462                	lw	s0,24(sp)
     7ca:	40f2                	lw	ra,28(sp)
     7cc:	44d2                	lw	s1,20(sp)
     7ce:	4942                	lw	s2,16(sp)
     7d0:	49b2                	lw	s3,12(sp)
     7d2:	4a22                	lw	s4,8(sp)
     7d4:	4a92                	lw	s5,4(sp)
     7d6:	6105                	addi	sp,sp,32
c:\Users\rui\Desktop\iphone_screen\wch\code\test_usb_hspi\test_usb_hspi\obj/../User/USB30/CH56x_usb30.c:405
        len = USB30_NonStandardReq( );
     7d8:	bde5                	j	6d0 <USB30_NonStandardReq>
     7da:	4619                	li	a2,6
     7dc:	83018593          	addi	a1,gp,-2000 # 200000e0 <SetupReqCode>
     7e0:	82c18413          	addi	s0,gp,-2004 # 200000dc <SetupLen>
c:\Users\rui\Desktop\iphone_screen\wch\code\test_usb_hspi\test_usb_hspi\obj/../User/USB30/CH56x_usb30.c:409
        switch( SetupReqCode )
     7e4:	06c78363          	beq	a5,a2,84a <__stack_size+0x4a>
     7e8:	00050893          	mv	a7,a0
     7ec:	02f66463          	bltu	a2,a5,814 <__stack_size+0x14>
     7f0:	4705                	li	a4,1
c:\Users\rui\Desktop\iphone_screen\wch\code\test_usb_hspi\test_usb_hspi\obj/../User/USB30/CH56x_usb30.c:396
    UINT16 len = 0;
     7f2:	4901                	li	s2,0
     7f4:	02e78963          	beq	a5,a4,826 <__stack_size+0x26>
     7f8:	16078263          	beqz	a5,95c <__stack_size+0x15c>
     7fc:	470d                	li	a4,3
     7fe:	02e78463          	beq	a5,a4,826 <__stack_size+0x26>
     802:	4715                	li	a4,5
     804:	14e78763          	beq	a5,a4,952 <__stack_size+0x152>
c:\Users\rui\Desktop\iphone_screen\wch\code\test_usb_hspi\test_usb_hspi\obj/../User/USB30/CH56x_usb30.c:497
                SetupReqCode = INVALID_REQ_CODE;
     808:	57fd                	li	a5,-1
c:\Users\rui\Desktop\iphone_screen\wch\code\test_usb_hspi\test_usb_hspi\obj/../User/USB30/CH56x_usb30.c:496
                len = USB_DESCR_UNSUPPORTED;  //return stallunsupported command
     80a:	6941                	lui	s2,0x10
c:\Users\rui\Desktop\iphone_screen\wch\code\test_usb_hspi\test_usb_hspi\obj/../User/USB30/CH56x_usb30.c:497
                SetupReqCode = INVALID_REQ_CODE;
     80c:	00f58023          	sb	a5,0(a1)
c:\Users\rui\Desktop\iphone_screen\wch\code\test_usb_hspi\test_usb_hspi\obj/../User/USB30/CH56x_usb30.c:496
                len = USB_DESCR_UNSUPPORTED;  //return stallunsupported command
     810:	197d                	addi	s2,s2,-1
c:\Users\rui\Desktop\iphone_screen\wch\code\test_usb_hspi\test_usb_hspi\obj/../User/USB30/CH56x_usb30.c:498
                break;
     812:	a811                	j	826 <__stack_size+0x26>
     814:	472d                	li	a4,11
c:\Users\rui\Desktop\iphone_screen\wch\code\test_usb_hspi\test_usb_hspi\obj/../User/USB30/CH56x_usb30.c:396
    UINT16 len = 0;
     816:	4901                	li	s2,0
     818:	00e78763          	beq	a5,a4,826 <__stack_size+0x26>
     81c:	00f76f63          	bltu	a4,a5,83a <__stack_size+0x3a>
     820:	4725                	li	a4,9
     822:	fee793e3          	bne	a5,a4,808 <__stack_size+0x8>
c:\Users\rui\Desktop\iphone_screen\wch\code\test_usb_hspi\test_usb_hspi\obj/../User/USB30/CH56x_usb30.c:502
}
     826:	40f2                	lw	ra,28(sp)
     828:	4462                	lw	s0,24(sp)
     82a:	854a                	mv	a0,s2
     82c:	44d2                	lw	s1,20(sp)
     82e:	4942                	lw	s2,16(sp)
     830:	49b2                	lw	s3,12(sp)
     832:	4a22                	lw	s4,8(sp)
     834:	4a92                	lw	s5,4(sp)
     836:	6105                	addi	sp,sp,32
     838:	8082                	ret
     83a:	03000713          	li	a4,48
c:\Users\rui\Desktop\iphone_screen\wch\code\test_usb_hspi\test_usb_hspi\obj/../User/USB30/CH56x_usb30.c:396
    UINT16 len = 0;
     83e:	4901                	li	s2,0
     840:	fee783e3          	beq	a5,a4,826 <__stack_size+0x26>
     844:	03100713          	li	a4,49
     848:	bf75                	j	804 <__stack_size+0x4>
c:\Users\rui\Desktop\iphone_screen\wch\code\test_usb_hspi\test_usb_hspi\obj/../User/USB30/CH56x_usb30.c:412
                switch( UsbSetupBuf->wValueH )
     84a:	0036c603          	lbu	a2,3(a3)
     84e:	4809                	li	a6,2
     850:	83818493          	addi	s1,gp,-1992 # 200000e8 <pDescr>
     854:	07060e63          	beq	a2,a6,8d0 <__stack_size+0xd0>
     858:	00c86963          	bltu	a6,a2,86a <__stack_size+0x6a>
     85c:	4785                	li	a5,1
     85e:	02f60463          	beq	a2,a5,886 <__stack_size+0x86>
c:\Users\rui\Desktop\iphone_screen\wch\code\test_usb_hspi\test_usb_hspi\obj/../User/USB30/CH56x_usb30.c:459
                                SetupReqCode = INVALID_REQ_CODE; //Invalid request code
     862:	57fd                	li	a5,-1
     864:	00f58023          	sb	a5,0(a1)
c:\Users\rui\Desktop\iphone_screen\wch\code\test_usb_hspi\test_usb_hspi\obj/../User/USB30/CH56x_usb30.c:460
                                break;
     868:	a03d                	j	896 <__stack_size+0x96>
     86a:	478d                	li	a5,3
     86c:	06f60b63          	beq	a2,a5,8e2 <__stack_size+0xe2>
     870:	47bd                	li	a5,15
     872:	fef618e3          	bne	a2,a5,862 <__stack_size+0x62>
c:\Users\rui\Desktop\iphone_screen\wch\code\test_usb_hspi\test_usb_hspi\obj/../User/USB30/CH56x_usb30.c:425
                        if( SetupLen > SIZE_BOS_DESC )
     876:	47d9                	li	a5,22
     878:	00e7f363          	bgeu	a5,a4,87e <__stack_size+0x7e>
c:\Users\rui\Desktop\iphone_screen\wch\code\test_usb_hspi\test_usb_hspi\obj/../User/USB30/CH56x_usb30.c:426
                            SetupLen = SIZE_BOS_DESC;
     87c:	c01c                	sw	a5,0(s0)
c:\Users\rui\Desktop\iphone_screen\wch\code\test_usb_hspi\test_usb_hspi\obj/../User/USB30/CH56x_usb30.c:427
                        pDescr = (PUINT8)BOSDescriptor;
     87e:	678d                	lui	a5,0x3
     880:	d2078793          	addi	a5,a5,-736 # 2d20 <BOSDescriptor>
     884:	a801                	j	894 <__stack_size+0x94>
c:\Users\rui\Desktop\iphone_screen\wch\code\test_usb_hspi\test_usb_hspi\obj/../User/USB30/CH56x_usb30.c:415
                        if( SetupLen > SIZE_DEVICE_DESC )
     886:	47c9                	li	a5,18
     888:	00e7f363          	bgeu	a5,a4,88e <__stack_size+0x8e>
c:\Users\rui\Desktop\iphone_screen\wch\code\test_usb_hspi\test_usb_hspi\obj/../User/USB30/CH56x_usb30.c:416
                            SetupLen = SIZE_DEVICE_DESC;
     88c:	c01c                	sw	a5,0(s0)
c:\Users\rui\Desktop\iphone_screen\wch\code\test_usb_hspi\test_usb_hspi\obj/../User/USB30/CH56x_usb30.c:417
                        pDescr = (PUINT8)SS_DeviceDescriptor;
     88e:	678d                	lui	a5,0x3
     890:	e4878793          	addi	a5,a5,-440 # 2e48 <SS_DeviceDescriptor>
c:\Users\rui\Desktop\iphone_screen\wch\code\test_usb_hspi\test_usb_hspi\obj/../User/USB30/CH56x_usb30.c:450
                                pDescr = (PUINT8)StringSerial;
     894:	c09c                	sw	a5,0(s1)
c:\Users\rui\Desktop\iphone_screen\wch\code\test_usb_hspi\test_usb_hspi\obj/../User/USB30/CH56x_usb30.c:468
                len = SetupLen >= ENDP0_MAXPACK ? ENDP0_MAXPACK : SetupLen; //Current transmission length
     896:	00042a03          	lw	s4,0(s0)
     89a:	20000793          	li	a5,512
     89e:	89d2                	mv	s3,s4
     8a0:	0147f463          	bgeu	a5,s4,8a8 <__stack_size+0xa8>
     8a4:	20000993          	li	s3,512
c:\Users\rui\Desktop\iphone_screen\wch\code\test_usb_hspi\test_usb_hspi\obj/../User/USB30/CH56x_usb30.c:469
                memcpy( endp0RTbuff, pDescr, len );                           //Load upload data
     8a8:	0004aa83          	lw	s5,0(s1)
c:\Users\rui\Desktop\iphone_screen\wch\code\test_usb_hspi\test_usb_hspi\obj/../User/USB30/CH56x_usb30.c:468
                len = SetupLen >= ENDP0_MAXPACK ? ENDP0_MAXPACK : SetupLen; //Current transmission length
     8ac:	01099913          	slli	s2,s3,0x10
c:\Users\rui\Desktop\iphone_screen\wch\code\test_usb_hspi\test_usb_hspi\obj/../User/USB30/CH56x_usb30.c:469
                memcpy( endp0RTbuff, pDescr, len );                           //Load upload data
     8b0:	864e                	mv	a2,s3
c:\Users\rui\Desktop\iphone_screen\wch\code\test_usb_hspi\test_usb_hspi\obj/../User/USB30/CH56x_usb30.c:470
                SetupLen -= len;
     8b2:	413a0a33          	sub	s4,s4,s3
c:\Users\rui\Desktop\iphone_screen\wch\code\test_usb_hspi\test_usb_hspi\obj/../User/USB30/CH56x_usb30.c:469
                memcpy( endp0RTbuff, pDescr, len );                           //Load upload data
     8b6:	85d6                	mv	a1,s5
     8b8:	00050513          	mv	a0,a0
c:\Users\rui\Desktop\iphone_screen\wch\code\test_usb_hspi\test_usb_hspi\obj/../User/USB30/CH56x_usb30.c:471
                pDescr += len;
     8bc:	99d6                	add	s3,s3,s5
c:\Users\rui\Desktop\iphone_screen\wch\code\test_usb_hspi\test_usb_hspi\obj/../User/USB30/CH56x_usb30.c:469
                memcpy( endp0RTbuff, pDescr, len );                           //Load upload data
     8be:	15e010ef          	jal	ra,1a1c <memcpy>
c:\Users\rui\Desktop\iphone_screen\wch\code\test_usb_hspi\test_usb_hspi\obj/../User/USB30/CH56x_usb30.c:468
                len = SetupLen >= ENDP0_MAXPACK ? ENDP0_MAXPACK : SetupLen; //Current transmission length
     8c2:	01095913          	srli	s2,s2,0x10
c:\Users\rui\Desktop\iphone_screen\wch\code\test_usb_hspi\test_usb_hspi\obj/../User/USB30/CH56x_usb30.c:470
                SetupLen -= len;
     8c6:	01442023          	sw	s4,0(s0)
c:\Users\rui\Desktop\iphone_screen\wch\code\test_usb_hspi\test_usb_hspi\obj/../User/USB30/CH56x_usb30.c:471
                pDescr += len;
     8ca:	0134a023          	sw	s3,0(s1)
c:\Users\rui\Desktop\iphone_screen\wch\code\test_usb_hspi\test_usb_hspi\obj/../User/USB30/CH56x_usb30.c:472
                break;
     8ce:	bfa1                	j	826 <__stack_size+0x26>
c:\Users\rui\Desktop\iphone_screen\wch\code\test_usb_hspi\test_usb_hspi\obj/../User/USB30/CH56x_usb30.c:420
                        if( SetupLen > SIZE_CONFIG_DESC )
     8d0:	02c00793          	li	a5,44
     8d4:	00e7f363          	bgeu	a5,a4,8da <__stack_size+0xda>
c:\Users\rui\Desktop\iphone_screen\wch\code\test_usb_hspi\test_usb_hspi\obj/../User/USB30/CH56x_usb30.c:421
                            SetupLen = SIZE_CONFIG_DESC;
     8d8:	c01c                	sw	a5,0(s0)
c:\Users\rui\Desktop\iphone_screen\wch\code\test_usb_hspi\test_usb_hspi\obj/../User/USB30/CH56x_usb30.c:422
                        pDescr = (PUINT8)SS_ConfigDescriptor;
     8da:	678d                	lui	a5,0x3
     8dc:	e1c78793          	addi	a5,a5,-484 # 2e1c <SS_ConfigDescriptor>
     8e0:	bf55                	j	894 <__stack_size+0x94>
c:\Users\rui\Desktop\iphone_screen\wch\code\test_usb_hspi\test_usb_hspi\obj/../User/USB30/CH56x_usb30.c:430 (discriminator 1)
                        switch(UsbSetupBuf->wValueL)
     8e2:	0026c783          	lbu	a5,2(a3)
     8e6:	05078463          	beq	a5,a6,92e <__stack_size+0x12e>
     8ea:	00f86d63          	bltu	a6,a5,904 <__stack_size+0x104>
     8ee:	cb8d                	beqz	a5,920 <__stack_size+0x120>
     8f0:	4685                	li	a3,1
     8f2:	f6d798e3          	bne	a5,a3,862 <__stack_size+0x62>
c:\Users\rui\Desktop\iphone_screen\wch\code\test_usb_hspi\test_usb_hspi\obj/../User/USB30/CH56x_usb30.c:438
                                if(SetupLen > SIZE_STRING_VENDOR)
     8f6:	47a1                	li	a5,8
     8f8:	00e7f363          	bgeu	a5,a4,8fe <__stack_size+0xfe>
c:\Users\rui\Desktop\iphone_screen\wch\code\test_usb_hspi\test_usb_hspi\obj/../User/USB30/CH56x_usb30.c:439
                                    SetupLen = SIZE_STRING_VENDOR;
     8fc:	c01c                	sw	a5,0(s0)
c:\Users\rui\Desktop\iphone_screen\wch\code\test_usb_hspi\test_usb_hspi\obj/../User/USB30/CH56x_usb30.c:440
                                pDescr = (PUINT8)StringVendor;
     8fe:	80c18793          	addi	a5,gp,-2036 # 200000bc <StringVendor>
     902:	bf49                	j	894 <__stack_size+0x94>
     904:	02c78e63          	beq	a5,a2,940 <__stack_size+0x140>
     908:	0ee00693          	li	a3,238
     90c:	f4d79be3          	bne	a5,a3,862 <__stack_size+0x62>
c:\Users\rui\Desktop\iphone_screen\wch\code\test_usb_hspi\test_usb_hspi\obj/../User/USB30/CH56x_usb30.c:453
                                if(SetupLen > SIZE_STRING_OS)
     910:	47c9                	li	a5,18
     912:	00e7f363          	bgeu	a5,a4,918 <__stack_size+0x118>
c:\Users\rui\Desktop\iphone_screen\wch\code\test_usb_hspi\test_usb_hspi\obj/../User/USB30/CH56x_usb30.c:454
                                    SetupLen = SIZE_STRING_OS;
     916:	c01c                	sw	a5,0(s0)
c:\Users\rui\Desktop\iphone_screen\wch\code\test_usb_hspi\test_usb_hspi\obj/../User/USB30/CH56x_usb30.c:455
                                pDescr = (PUINT8)OSStringDescriptor;
     918:	678d                	lui	a5,0x3
     91a:	d7878793          	addi	a5,a5,-648 # 2d78 <OSStringDescriptor>
     91e:	bf9d                	j	894 <__stack_size+0x94>
c:\Users\rui\Desktop\iphone_screen\wch\code\test_usb_hspi\test_usb_hspi\obj/../User/USB30/CH56x_usb30.c:433
                                if(SetupLen > SIZE_STRING_LANGID)
     920:	4791                	li	a5,4
     922:	00e7f363          	bgeu	a5,a4,928 <__stack_size+0x128>
c:\Users\rui\Desktop\iphone_screen\wch\code\test_usb_hspi\test_usb_hspi\obj/../User/USB30/CH56x_usb30.c:434
                                    SetupLen = SIZE_STRING_LANGID;
     926:	c01c                	sw	a5,0(s0)
c:\Users\rui\Desktop\iphone_screen\wch\code\test_usb_hspi\test_usb_hspi\obj/../User/USB30/CH56x_usb30.c:435
                                pDescr = (PUINT8)StringLangID;
     928:	80818793          	addi	a5,gp,-2040 # 200000b8 <StringLangID>
     92c:	b7a5                	j	894 <__stack_size+0x94>
c:\Users\rui\Desktop\iphone_screen\wch\code\test_usb_hspi\test_usb_hspi\obj/../User/USB30/CH56x_usb30.c:443
                                if(SetupLen > SIZE_STRING_PRODUCT)
     92e:	02600793          	li	a5,38
     932:	00e7f363          	bgeu	a5,a4,938 <__stack_size+0x138>
c:\Users\rui\Desktop\iphone_screen\wch\code\test_usb_hspi\test_usb_hspi\obj/../User/USB30/CH56x_usb30.c:444
                                    SetupLen = SIZE_STRING_PRODUCT;
     936:	c01c                	sw	a5,0(s0)
c:\Users\rui\Desktop\iphone_screen\wch\code\test_usb_hspi\test_usb_hspi\obj/../User/USB30/CH56x_usb30.c:445
                                pDescr = (PUINT8)StringProduct;
     938:	678d                	lui	a5,0x3
     93a:	e5c78793          	addi	a5,a5,-420 # 2e5c <StringProduct>
     93e:	bf99                	j	894 <__stack_size+0x94>
c:\Users\rui\Desktop\iphone_screen\wch\code\test_usb_hspi\test_usb_hspi\obj/../User/USB30/CH56x_usb30.c:448
                                if(SetupLen > SIZE_STRING_SERIAL)
     940:	47d9                	li	a5,22
     942:	00e7f363          	bgeu	a5,a4,948 <__stack_size+0x148>
c:\Users\rui\Desktop\iphone_screen\wch\code\test_usb_hspi\test_usb_hspi\obj/../User/USB30/CH56x_usb30.c:449
                                    SetupLen = SIZE_STRING_SERIAL;
     946:	c01c                	sw	a5,0(s0)
c:\Users\rui\Desktop\iphone_screen\wch\code\test_usb_hspi\test_usb_hspi\obj/../User/USB30/CH56x_usb30.c:450
                                pDescr = (PUINT8)StringSerial;
     948:	200007b7          	lui	a5,0x20000
     94c:	00078793          	mv	a5,a5
     950:	b791                	j	894 <__stack_size+0x94>
c:\Users\rui\Desktop\iphone_screen\wch\code\test_usb_hspi\test_usb_hspi\obj/../User/USB30/CH56x_usb30.c:474
                SetupLen = UsbSetupBuf->wValueL; // Temporary USB device address
     952:	0028c783          	lbu	a5,2(a7)
c:\Users\rui\Desktop\iphone_screen\wch\code\test_usb_hspi\test_usb_hspi\obj/../User/USB30/CH56x_usb30.c:396
    UINT16 len = 0;
     956:	4901                	li	s2,0
c:\Users\rui\Desktop\iphone_screen\wch\code\test_usb_hspi\test_usb_hspi\obj/../User/USB30/CH56x_usb30.c:474
                SetupLen = UsbSetupBuf->wValueL; // Temporary USB device address
     958:	c01c                	sw	a5,0(s0)
c:\Users\rui\Desktop\iphone_screen\wch\code\test_usb_hspi\test_usb_hspi\obj/../User/USB30/CH56x_usb30.c:475
                break;
     95a:	b5f1                	j	826 <__stack_size+0x26>
c:\Users\rui\Desktop\iphone_screen\wch\code\test_usb_hspi\test_usb_hspi\obj/../User/USB30/CH56x_usb30.c:485
                endp0RTbuff[0] = 0x01;
     95c:	00e69023          	sh	a4,0(a3)
c:\Users\rui\Desktop\iphone_screen\wch\code\test_usb_hspi\test_usb_hspi\obj/../User/USB30/CH56x_usb30.c:487
                SetupLen = 0;
     960:	00082023          	sw	zero,0(a6)
c:\Users\rui\Desktop\iphone_screen\wch\code\test_usb_hspi\test_usb_hspi\obj/../User/USB30/CH56x_usb30.c:484
                len = 2;
     964:	4909                	li	s2,2
c:\Users\rui\Desktop\iphone_screen\wch\code\test_usb_hspi\test_usb_hspi\obj/../User/USB30/CH56x_usb30.c:488
                break;
     966:	b5c1                	j	826 <__stack_size+0x26>

00000968 <EP0_IN_Callback>:
EP0_IN_Callback():
c:\Users\rui\Desktop\iphone_screen\wch\code\test_usb_hspi\test_usb_hspi\obj/../User/USB30/CH56x_usb30.c:514
 * @return  Send length
 */
UINT16 EP0_IN_Callback( void )
{
    UINT16 len = 0;
    switch( SetupReqCode )
     968:	8301c703          	lbu	a4,-2000(gp) # 200000e0 <SetupReqCode>
c:\Users\rui\Desktop\iphone_screen\wch\code\test_usb_hspi\test_usb_hspi\obj/../User/USB30/CH56x_usb30.c:512
{
     96c:	1101                	addi	sp,sp,-32
     96e:	c256                	sw	s5,4(sp)
     970:	ce06                	sw	ra,28(sp)
     972:	cc22                	sw	s0,24(sp)
     974:	ca26                	sw	s1,20(sp)
     976:	c84a                	sw	s2,16(sp)
     978:	c64e                	sw	s3,12(sp)
     97a:	c452                	sw	s4,8(sp)
c:\Users\rui\Desktop\iphone_screen\wch\code\test_usb_hspi\test_usb_hspi\obj/../User/USB30/CH56x_usb30.c:514
    switch( SetupReqCode )
     97c:	4799                	li	a5,6
     97e:	4a81                	li	s5,0
     980:	04f71363          	bne	a4,a5,9c6 <EP0_IN_Callback+0x5e>
c:\Users\rui\Desktop\iphone_screen\wch\code\test_usb_hspi\test_usb_hspi\obj/../User/USB30/CH56x_usb30.c:517
    {
        case USB_GET_DESCRIPTOR:
            len = SetupLen >= ENDP0_MAXPACK ? ENDP0_MAXPACK : SetupLen;
     984:	82c1a483          	lw	s1,-2004(gp) # 200000dc <SetupLen>
     988:	20000713          	li	a4,512
     98c:	82c18a13          	addi	s4,gp,-2004 # 200000dc <SetupLen>
     990:	8426                	mv	s0,s1
     992:	00977463          	bgeu	a4,s1,99a <EP0_IN_Callback+0x32>
     996:	20000413          	li	s0,512
c:\Users\rui\Desktop\iphone_screen\wch\code\test_usb_hspi\test_usb_hspi\obj/../User/USB30/CH56x_usb30.c:518
            memcpy( endp0RTbuff, pDescr, len );
     99a:	83818913          	addi	s2,gp,-1992 # 200000e8 <pDescr>
     99e:	00092983          	lw	s3,0(s2) # 10000 <_data_lma+0xcf8c>
     9a2:	20020537          	lui	a0,0x20020
c:\Users\rui\Desktop\iphone_screen\wch\code\test_usb_hspi\test_usb_hspi\obj/../User/USB30/CH56x_usb30.c:517
            len = SetupLen >= ENDP0_MAXPACK ? ENDP0_MAXPACK : SetupLen;
     9a6:	01041a93          	slli	s5,s0,0x10
c:\Users\rui\Desktop\iphone_screen\wch\code\test_usb_hspi\test_usb_hspi\obj/../User/USB30/CH56x_usb30.c:518
            memcpy( endp0RTbuff, pDescr, len );
     9aa:	8622                	mv	a2,s0
c:\Users\rui\Desktop\iphone_screen\wch\code\test_usb_hspi\test_usb_hspi\obj/../User/USB30/CH56x_usb30.c:519
            SetupLen -= len;
     9ac:	8c81                	sub	s1,s1,s0
c:\Users\rui\Desktop\iphone_screen\wch\code\test_usb_hspi\test_usb_hspi\obj/../User/USB30/CH56x_usb30.c:518
            memcpy( endp0RTbuff, pDescr, len );
     9ae:	85ce                	mv	a1,s3
     9b0:	00050513          	mv	a0,a0
c:\Users\rui\Desktop\iphone_screen\wch\code\test_usb_hspi\test_usb_hspi\obj/../User/USB30/CH56x_usb30.c:520
            pDescr += len;
     9b4:	944e                	add	s0,s0,s3
c:\Users\rui\Desktop\iphone_screen\wch\code\test_usb_hspi\test_usb_hspi\obj/../User/USB30/CH56x_usb30.c:518
            memcpy( endp0RTbuff, pDescr, len );
     9b6:	066010ef          	jal	ra,1a1c <memcpy>
c:\Users\rui\Desktop\iphone_screen\wch\code\test_usb_hspi\test_usb_hspi\obj/../User/USB30/CH56x_usb30.c:517
            len = SetupLen >= ENDP0_MAXPACK ? ENDP0_MAXPACK : SetupLen;
     9ba:	010ada93          	srli	s5,s5,0x10
c:\Users\rui\Desktop\iphone_screen\wch\code\test_usb_hspi\test_usb_hspi\obj/../User/USB30/CH56x_usb30.c:519
            SetupLen -= len;
     9be:	009a2023          	sw	s1,0(s4)
c:\Users\rui\Desktop\iphone_screen\wch\code\test_usb_hspi\test_usb_hspi\obj/../User/USB30/CH56x_usb30.c:520
            pDescr += len;
     9c2:	00892023          	sw	s0,0(s2)
c:\Users\rui\Desktop\iphone_screen\wch\code\test_usb_hspi\test_usb_hspi\obj/../User/USB30/CH56x_usb30.c:524
            break;
    }
    return len;
}
     9c6:	40f2                	lw	ra,28(sp)
     9c8:	4462                	lw	s0,24(sp)
     9ca:	8556                	mv	a0,s5
     9cc:	44d2                	lw	s1,20(sp)
     9ce:	4942                	lw	s2,16(sp)
     9d0:	49b2                	lw	s3,12(sp)
     9d2:	4a22                	lw	s4,8(sp)
     9d4:	4a92                	lw	s5,4(sp)
     9d6:	6105                	addi	sp,sp,32
     9d8:	8082                	ret

000009da <EP0_OUT_Callback>:
EP0_OUT_Callback():
c:\Users\rui\Desktop\iphone_screen\wch\code\test_usb_hspi\test_usb_hspi\obj/../User/USB30/CH56x_usb30.c:537
 */
UINT16 EP0_OUT_Callback( void )
{
    UINT16 len;
    return len;
}
     9da:	4501                	li	a0,0
     9dc:	8082                	ret

000009de <USB30_Setup_Status>:
USB30_Setup_Status():
c:\Users\rui\Desktop\iphone_screen\wch\code\test_usb_hspi\test_usb_hspi\obj/../User/USB30/CH56x_usb30.c:548
 *
 * @return  None
 */
void USB30_Setup_Status( void )
{
    switch( SetupReqCode )
     9de:	8301c703          	lbu	a4,-2000(gp) # 200000e0 <SetupReqCode>
     9e2:	4795                	li	a5,5
     9e4:	00f71563          	bne	a4,a5,9ee <USB30_Setup_Status+0x10>
c:\Users\rui\Desktop\iphone_screen\wch\code\test_usb_hspi\test_usb_hspi\obj/../User/USB30/CH56x_usb30.c:551
    {
        case USB_SET_ADDRESS:
            USB30_Device_Setaddress( SetupLen ); // SET ADDRESS
     9e8:	82c1a503          	lw	a0,-2004(gp) # 200000dc <SetupLen>
     9ec:	bab5                	j	368 <USB30_Device_Setaddress>
c:\Users\rui\Desktop\iphone_screen\wch\code\test_usb_hspi\test_usb_hspi\obj/../User/USB30/CH56x_usb30.c:556
            break;
        case 0x31:
            break;
    }
}
     9ee:	8082                	ret

000009f0 <USBSS_IRQHandler>:
USBSS_IRQHandler():
c:\Users\rui\Desktop\iphone_screen\wch\code\test_usb_hspi\test_usb_hspi\obj/../User/USB30/CH56x_usb30.c:567
 *
 * @return  None
 */
void USBSS_IRQHandler( void ) //USBSS interrupt service
{
    USB30_IRQHandler( );
     9f0:	3c2d                	jal	42a <USB30_IRQHandler>
c:\Users\rui\Desktop\iphone_screen\wch\code\test_usb_hspi\test_usb_hspi\obj/../User/USB30/CH56x_usb30.c:568
}
     9f2:	30200073          	mret

000009f6 <TMR0_IRQHandler>:
TMR0_IRQHandler():
c:\Users\rui\Desktop\iphone_screen\wch\code\test_usb_hspi\test_usb_hspi\obj/../User/USB30/CH56x_usb30.c:578
 * @brief   USB3.0 Connection failure timeout processing
 *
 * @return  None
 */
void TMR0_IRQHandler( void )
{
     9f6:	1141                	addi	sp,sp,-16
     9f8:	c622                	sw	s0,12(sp)
c:\Users\rui\Desktop\iphone_screen\wch\code\test_usb_hspi\test_usb_hspi\obj/../User/USB30/CH56x_usb30.c:579
    R8_TMR0_INT_FLAG = RB_TMR_IF_CYC_END;
     9fa:	400027b7          	lui	a5,0x40002
     9fe:	4705                	li	a4,1
     a00:	00e78323          	sb	a4,6(a5) # 40002006 <endp1RTbuff+0x1ffe1e06>
c:\Users\rui\Desktop\iphone_screen\wch\code\test_usb_hspi\test_usb_hspi\obj/../User/USB30/CH56x_usb30.c:581

    if( Link_Sta == LINK_STA_1 )
     a04:	82818793          	addi	a5,gp,-2008 # 200000d8 <_edata>
     a08:	0007c703          	lbu	a4,0(a5)
     a0c:	4685                	li	a3,1
     a0e:	02e69463          	bne	a3,a4,a36 <TMR0_IRQHandler+0x40>
c:\Users\rui\Desktop\iphone_screen\wch\code\test_usb_hspi\test_usb_hspi\obj/../User/USB30/CH56x_usb30.c:584
    {
        Link_Sta = 0;
        PFIC_DisableIRQ(USBSS_IRQn);
     a12:	4551                	li	a0,20
c:\Users\rui\Desktop\iphone_screen\wch\code\test_usb_hspi\test_usb_hspi\obj/../User/USB30/CH56x_usb30.c:583
        Link_Sta = 0;
     a14:	00078023          	sb	zero,0(a5)
c:\Users\rui\Desktop\iphone_screen\wch\code\test_usb_hspi\test_usb_hspi\obj/../User/USB30/CH56x_usb30.c:584
        PFIC_DisableIRQ(USBSS_IRQn);
     a18:	392d                	jal	652 <PFIC_DisableIRQ>
c:\Users\rui\Desktop\iphone_screen\wch\code\test_usb_hspi\test_usb_hspi\obj/../User/USB30/CH56x_usb30.c:585
        PFIC_DisableIRQ(LINK_IRQn);
     a1a:	4555                	li	a0,21
     a1c:	391d                	jal	652 <PFIC_DisableIRQ>
c:\Users\rui\Desktop\iphone_screen\wch\code\test_usb_hspi\test_usb_hspi\obj/../User/USB30/CH56x_usb30.c:586
        USB30D_init(DISABLE);
     a1e:	4501                	li	a0,0
     a20:	31a9                	jal	66a <USB30D_init>
c:\Users\rui\Desktop\iphone_screen\wch\code\test_usb_hspi\test_usb_hspi\obj/../User/USB30/CH56x_usb30.c:587
        PRINT("USB3.0 disable\n");
     a22:	00003537          	lui	a0,0x3
     a26:	e8450513          	addi	a0,a0,-380 # 2e84 <StringProduct+0x28>
     a2a:	1c6010ef          	jal	ra,1bf0 <puts>
c:\Users\rui\Desktop\iphone_screen\wch\code\test_usb_hspi\test_usb_hspi\obj/../User/USB30/CH56x_usb30.c:605
    }
    Link_Sta = LINK_STA_1;
    R8_TMR0_INTER_EN = 0;
    PFIC_DisableIRQ(TMR0_IRQn);
    R8_TMR0_CTRL_MOD = RB_TMR_ALL_CLEAR;
}
     a2e:	4432                	lw	s0,12(sp)
     a30:	0141                	addi	sp,sp,16
     a32:	30200073          	mret
     a36:	82818413          	addi	s0,gp,-2008 # 200000d8 <_edata>
c:\Users\rui\Desktop\iphone_screen\wch\code\test_usb_hspi\test_usb_hspi\obj/../User/USB30/CH56x_usb30.c:590
    if( Link_Sta != LINK_STA_3 )
     a3a:	00044783          	lbu	a5,0(s0)
     a3e:	4711                	li	a4,4
     a40:	02f70863          	beq	a4,a5,a70 <TMR0_IRQHandler+0x7a>
c:\Users\rui\Desktop\iphone_screen\wch\code\test_usb_hspi\test_usb_hspi\obj/../User/USB30/CH56x_usb30.c:592
        PFIC_DisableIRQ(USBSS_IRQn);
     a44:	4551                	li	a0,20
     a46:	3131                	jal	652 <PFIC_DisableIRQ>
c:\Users\rui\Desktop\iphone_screen\wch\code\test_usb_hspi\test_usb_hspi\obj/../User/USB30/CH56x_usb30.c:593
        PFIC_DisableIRQ(LINK_IRQn);
     a48:	4555                	li	a0,21
     a4a:	3121                	jal	652 <PFIC_DisableIRQ>
c:\Users\rui\Desktop\iphone_screen\wch\code\test_usb_hspi\test_usb_hspi\obj/../User/USB30/CH56x_usb30.c:594
        USB30D_init(DISABLE);
     a4c:	4501                	li	a0,0
     a4e:	3931                	jal	66a <USB30D_init>
c:\Users\rui\Desktop\iphone_screen\wch\code\test_usb_hspi\test_usb_hspi\obj/../User/USB30/CH56x_usb30.c:596
        R32_USB_CONTROL = 0;
     a50:	400097b7          	lui	a5,0x40009
     a54:	0007a023          	sw	zero,0(a5) # 40009000 <endp1RTbuff+0x1ffe8e00>
PFIC_EnableIRQ():
c:/Users/rui/Desktop/iphone_screen/wch/code/test_usb_hspi/test_usb_hspi/RVMSIS/core_riscv.h:131
    PFIC->IENR[((UINT32)(IRQn) >> 5)] = (1 << ((UINT32)(IRQn) & 0x1F));
     a58:	02000737          	lui	a4,0x2000
     a5c:	e000e7b7          	lui	a5,0xe000e
TMR0_IRQHandler():
c:\Users\rui\Desktop\iphone_screen\wch\code\test_usb_hspi\test_usb_hspi\obj/../User/USB30/CH56x_usb30.c:599
        PRINT("Link_Sta != LINK_STA_3 , USB30D_init(DISABLE)");
     a60:	00003537          	lui	a0,0x3
PFIC_EnableIRQ():
c:/Users/rui/Desktop/iphone_screen/wch/code/test_usb_hspi/test_usb_hspi/RVMSIS/core_riscv.h:131
     a64:	10e7a023          	sw	a4,256(a5) # e000e100 <endp1RTbuff+0xbffedf00>
TMR0_IRQHandler():
c:\Users\rui\Desktop\iphone_screen\wch\code\test_usb_hspi\test_usb_hspi\obj/../User/USB30/CH56x_usb30.c:599
     a68:	e9450513          	addi	a0,a0,-364 # 2e94 <StringProduct+0x38>
     a6c:	066010ef          	jal	ra,1ad2 <iprintf>
c:\Users\rui\Desktop\iphone_screen\wch\code\test_usb_hspi\test_usb_hspi\obj/../User/USB30/CH56x_usb30.c:601
    Link_Sta = LINK_STA_1;
     a70:	4785                	li	a5,1
     a72:	00f40023          	sb	a5,0(s0)
c:\Users\rui\Desktop\iphone_screen\wch\code\test_usb_hspi\test_usb_hspi\obj/../User/USB30/CH56x_usb30.c:602
    R8_TMR0_INTER_EN = 0;
     a76:	40002437          	lui	s0,0x40002
     a7a:	00040123          	sb	zero,2(s0) # 40002002 <endp1RTbuff+0x1ffe1e02>
c:\Users\rui\Desktop\iphone_screen\wch\code\test_usb_hspi\test_usb_hspi\obj/../User/USB30/CH56x_usb30.c:603
    PFIC_DisableIRQ(TMR0_IRQn);
     a7e:	4545                	li	a0,17
     a80:	3ec9                	jal	652 <PFIC_DisableIRQ>
c:\Users\rui\Desktop\iphone_screen\wch\code\test_usb_hspi\test_usb_hspi\obj/../User/USB30/CH56x_usb30.c:604
    R8_TMR0_CTRL_MOD = RB_TMR_ALL_CLEAR;
     a82:	4789                	li	a5,2
     a84:	00f40023          	sb	a5,0(s0)
     a88:	b75d                	j	a2e <TMR0_IRQHandler+0x38>

00000a8a <LINK_IRQHandler>:
LINK_IRQHandler():
c:\Users\rui\Desktop\iphone_screen\wch\code\test_usb_hspi\test_usb_hspi\obj/../User/USB30/CH56x_usb30.c:615
 * @brief   USB3.0 Link Interrupt Handler.
 *
 * @return  None
 */
void LINK_IRQHandler( void ) //USBSS link interrupt service
{
     a8a:	1141                	addi	sp,sp,-16
     a8c:	c622                	sw	s0,12(sp)
c:\Users\rui\Desktop\iphone_screen\wch\code\test_usb_hspi\test_usb_hspi\obj/../User/USB30/CH56x_usb30.c:616
    if( USBSS->LINK_INT_FLAG & LINK_Ux_EXIT_FLAG ) // device enter U2
     a8e:	40008437          	lui	s0,0x40008
     a92:	445c                	lw	a5,12(s0)
     a94:	01379713          	slli	a4,a5,0x13
     a98:	00075a63          	bgez	a4,aac <LINK_IRQHandler+0x22>
c:\Users\rui\Desktop\iphone_screen\wch\code\test_usb_hspi\test_usb_hspi\obj/../User/USB30/CH56x_usb30.c:618
    {
        USBSS->LINK_CFG = CFG_EQ_EN | TX_SWING | DEEMPH_CFG | TERM_EN;
     a9c:	1c200793          	li	a5,450
     aa0:	c01c                	sw	a5,0(s0)
c:\Users\rui\Desktop\iphone_screen\wch\code\test_usb_hspi\test_usb_hspi\obj/../User/USB30/CH56x_usb30.c:619
        USB30_Switch_Powermode(POWER_MODE_0);
     aa2:	4501                	li	a0,0
     aa4:	8dbff0ef          	jal	ra,37e <USB30_Switch_Powermode>
c:\Users\rui\Desktop\iphone_screen\wch\code\test_usb_hspi\test_usb_hspi\obj/../User/USB30/CH56x_usb30.c:620
        USBSS->LINK_INT_FLAG = LINK_Ux_EXIT_FLAG;
     aa8:	6785                	lui	a5,0x1
     aaa:	c45c                	sw	a5,12(s0)
c:\Users\rui\Desktop\iphone_screen\wch\code\test_usb_hspi\test_usb_hspi\obj/../User/USB30/CH56x_usb30.c:622
    }
    if( USBSS->LINK_INT_FLAG & LINK_RDY_FLAG ) // POLLING SHAKE DONE
     aac:	400087b7          	lui	a5,0x40008
     ab0:	47d8                	lw	a4,12(a5)
     ab2:	8b05                	andi	a4,a4,1
     ab4:	c729                	beqz	a4,afe <LINK_IRQHandler+0x74>
c:\Users\rui\Desktop\iphone_screen\wch\code\test_usb_hspi\test_usb_hspi\obj/../User/USB30/CH56x_usb30.c:624
    {
        USBSS->LINK_INT_FLAG = LINK_RDY_FLAG;
     ab6:	4705                	li	a4,1
     ab8:	c7d8                	sw	a4,12(a5)
c:\Users\rui\Desktop\iphone_screen\wch\code\test_usb_hspi\test_usb_hspi\obj/../User/USB30/CH56x_usb30.c:625
        if( Tx_Lmp_Port ) // LMP, TX PORT_CAP & RX PORT_CAP
     aba:	83118713          	addi	a4,gp,-1999 # 200000e1 <Tx_Lmp_Port>
     abe:	00074683          	lbu	a3,0(a4) # 2000000 <_data_lma+0x1ffcf8c>
     ac2:	0ff6f693          	andi	a3,a3,255
     ac6:	ce81                	beqz	a3,ade <LINK_IRQHandler+0x54>
c:\Users\rui\Desktop\iphone_screen\wch\code\test_usb_hspi\test_usb_hspi\obj/../User/USB30/CH56x_usb30.c:627
        {
            USBSS->LMP_TX_DATA0 = LINK_SPEED | PORT_CAP | LMP_HP;
     ac8:	28000693          	li	a3,640
     acc:	c7b4                	sw	a3,72(a5)
c:\Users\rui\Desktop\iphone_screen\wch\code\test_usb_hspi\test_usb_hspi\obj/../User/USB30/CH56x_usb30.c:628
            USBSS->LMP_TX_DATA1 = UP_STREAM | NUM_HP_BUF;
     ace:	000206b7          	lui	a3,0x20
     ad2:	0691                	addi	a3,a3,4
     ad4:	c7f4                	sw	a3,76(a5)
c:\Users\rui\Desktop\iphone_screen\wch\code\test_usb_hspi\test_usb_hspi\obj/../User/USB30/CH56x_usb30.c:629
            USBSS->LMP_TX_DATA2 = 0x0;
     ad6:	0407a823          	sw	zero,80(a5) # 40008050 <endp1RTbuff+0x1ffe7e50>
c:\Users\rui\Desktop\iphone_screen\wch\code\test_usb_hspi\test_usb_hspi\obj/../User/USB30/CH56x_usb30.c:630
            Tx_Lmp_Port = 0;
     ada:	00070023          	sb	zero,0(a4)
c:\Users\rui\Desktop\iphone_screen\wch\code\test_usb_hspi\test_usb_hspi\obj/../User/USB30/CH56x_usb30.c:633
        }
        /*Successful USB3.0 communication*/
        Link_Sta = LINK_STA_3;
     ade:	4711                	li	a4,4
c:\Users\rui\Desktop\iphone_screen\wch\code\test_usb_hspi\test_usb_hspi\obj/../User/USB30/CH56x_usb30.c:634
        PFIC_DisableIRQ(TMR0_IRQn);
     ae0:	4545                	li	a0,17
c:\Users\rui\Desktop\iphone_screen\wch\code\test_usb_hspi\test_usb_hspi\obj/../User/USB30/CH56x_usb30.c:633
        Link_Sta = LINK_STA_3;
     ae2:	82e18423          	sb	a4,-2008(gp) # 200000d8 <_edata>
c:\Users\rui\Desktop\iphone_screen\wch\code\test_usb_hspi\test_usb_hspi\obj/../User/USB30/CH56x_usb30.c:634
        PFIC_DisableIRQ(TMR0_IRQn);
     ae6:	36b5                	jal	652 <PFIC_DisableIRQ>
c:\Users\rui\Desktop\iphone_screen\wch\code\test_usb_hspi\test_usb_hspi\obj/../User/USB30/CH56x_usb30.c:635
        R8_TMR0_CTRL_MOD = RB_TMR_ALL_CLEAR;
     ae8:	400027b7          	lui	a5,0x40002
     aec:	4709                	li	a4,2
     aee:	00e78023          	sb	a4,0(a5) # 40002000 <endp1RTbuff+0x1ffe1e00>
c:\Users\rui\Desktop\iphone_screen\wch\code\test_usb_hspi\test_usb_hspi\obj/../User/USB30/CH56x_usb30.c:637
        R8_TMR0_INTER_EN = 0;
        PFIC_DisableIRQ(USBHS_IRQn);
     af2:	4565                	li	a0,25
c:\Users\rui\Desktop\iphone_screen\wch\code\test_usb_hspi\test_usb_hspi\obj/../User/USB30/CH56x_usb30.c:636
        R8_TMR0_INTER_EN = 0;
     af4:	00078123          	sb	zero,2(a5)
c:\Users\rui\Desktop\iphone_screen\wch\code\test_usb_hspi\test_usb_hspi\obj/../User/USB30/CH56x_usb30.c:637
        PFIC_DisableIRQ(USBHS_IRQn);
     af8:	3ea9                	jal	652 <PFIC_DisableIRQ>
c:\Users\rui\Desktop\iphone_screen\wch\code\test_usb_hspi\test_usb_hspi\obj/../User/USB30/CH56x_usb30.c:638
        USB20_Device_Init(DISABLE);
     afa:	4501                	li	a0,0
     afc:	2e51                	jal	e90 <USB20_Device_Init>
c:\Users\rui\Desktop\iphone_screen\wch\code\test_usb_hspi\test_usb_hspi\obj/../User/USB30/CH56x_usb30.c:641
    }

    if( USBSS->LINK_INT_FLAG & LINK_INACT_FLAG )
     afe:	40008437          	lui	s0,0x40008
     b02:	445c                	lw	a5,12(s0)
     b04:	8b91                	andi	a5,a5,4
     b06:	c3b9                	beqz	a5,b4c <LINK_IRQHandler+0xc2>
c:\Users\rui\Desktop\iphone_screen\wch\code\test_usb_hspi\test_usb_hspi\obj/../User/USB30/CH56x_usb30.c:643
    {
        Link_Sta = 0;
     b08:	82018423          	sb	zero,-2008(gp) # 200000d8 <_edata>
PFIC_EnableIRQ():
c:/Users/rui/Desktop/iphone_screen/wch/code/test_usb_hspi/test_usb_hspi/RVMSIS/core_riscv.h:131
     b0c:	00100737          	lui	a4,0x100
     b10:	e000e7b7          	lui	a5,0xe000e
     b14:	10e7a023          	sw	a4,256(a5) # e000e100 <endp1RTbuff+0xbffedf00>
     b18:	00200737          	lui	a4,0x200
     b1c:	10e7a023          	sw	a4,256(a5)
     b20:	00020737          	lui	a4,0x20
     b24:	10e7a023          	sw	a4,256(a5)
LINK_IRQHandler():
c:\Users\rui\Desktop\iphone_screen\wch\code\test_usb_hspi\test_usb_hspi\obj/../User/USB30/CH56x_usb30.c:648
        PFIC_EnableIRQ(USBSS_IRQn);
        PFIC_EnableIRQ(LINK_IRQn);
        PFIC_EnableIRQ(TMR0_IRQn);
        R8_TMR0_INTER_EN = RB_TMR_IE_CYC_END;
        TMR0_TimerInit( 67000000 );
     b28:	03fe5537          	lui	a0,0x3fe5
c:\Users\rui\Desktop\iphone_screen\wch\code\test_usb_hspi\test_usb_hspi\obj/../User/USB30/CH56x_usb30.c:647
        R8_TMR0_INTER_EN = RB_TMR_IE_CYC_END;
     b2c:	400027b7          	lui	a5,0x40002
     b30:	4705                	li	a4,1
     b32:	00e78123          	sb	a4,2(a5) # 40002002 <endp1RTbuff+0x1ffe1e02>
c:\Users\rui\Desktop\iphone_screen\wch\code\test_usb_hspi\test_usb_hspi\obj/../User/USB30/CH56x_usb30.c:648
        TMR0_TimerInit( 67000000 );
     b36:	6c050513          	addi	a0,a0,1728 # 3fe56c0 <_data_lma+0x3fe264c>
     b3a:	6cf000ef          	jal	ra,1a08 <TMR0_TimerInit>
c:\Users\rui\Desktop\iphone_screen\wch\code\test_usb_hspi\test_usb_hspi\obj/../User/USB30/CH56x_usb30.c:649
        USB30D_init(ENABLE);
     b3e:	4505                	li	a0,1
     b40:	362d                	jal	66a <USB30D_init>
c:\Users\rui\Desktop\iphone_screen\wch\code\test_usb_hspi\test_usb_hspi\obj/../User/USB30/CH56x_usb30.c:650
        USBSS->LINK_INT_FLAG = LINK_INACT_FLAG;
     b42:	4791                	li	a5,4
     b44:	c45c                	sw	a5,12(s0)
c:\Users\rui\Desktop\iphone_screen\wch\code\test_usb_hspi\test_usb_hspi\obj/../User/USB30/CH56x_usb30.c:651
        USB30_Switch_Powermode(POWER_MODE_2);
     b46:	4509                	li	a0,2
     b48:	837ff0ef          	jal	ra,37e <USB30_Switch_Powermode>
c:\Users\rui\Desktop\iphone_screen\wch\code\test_usb_hspi\test_usb_hspi\obj/../User/USB30/CH56x_usb30.c:653
    }
    if( USBSS->LINK_INT_FLAG & LINK_DISABLE_FLAG ) // GO DISABLED
     b4c:	40008737          	lui	a4,0x40008
     b50:	475c                	lw	a5,12(a4)
     b52:	8ba1                	andi	a5,a5,8
     b54:	cf9d                	beqz	a5,b92 <LINK_IRQHandler+0x108>
c:\Users\rui\Desktop\iphone_screen\wch\code\test_usb_hspi\test_usb_hspi\obj/../User/USB30/CH56x_usb30.c:655
    {
        USBSS->LINK_INT_FLAG = LINK_DISABLE_FLAG;
     b56:	47a1                	li	a5,8
     b58:	c75c                	sw	a5,12(a4)
c:\Users\rui\Desktop\iphone_screen\wch\code\test_usb_hspi\test_usb_hspi\obj/../User/USB30/CH56x_usb30.c:657
        Link_Sta = LINK_STA_1;
        USB30D_init(DISABLE);
     b5a:	4501                	li	a0,0
c:\Users\rui\Desktop\iphone_screen\wch\code\test_usb_hspi\test_usb_hspi\obj/../User/USB30/CH56x_usb30.c:656
        Link_Sta = LINK_STA_1;
     b5c:	4705                	li	a4,1
     b5e:	82e18423          	sb	a4,-2008(gp) # 200000d8 <_edata>
c:\Users\rui\Desktop\iphone_screen\wch\code\test_usb_hspi\test_usb_hspi\obj/../User/USB30/CH56x_usb30.c:657
        USB30D_init(DISABLE);
     b62:	3621                	jal	66a <USB30D_init>
c:\Users\rui\Desktop\iphone_screen\wch\code\test_usb_hspi\test_usb_hspi\obj/../User/USB30/CH56x_usb30.c:658
        PFIC_DisableIRQ(USBSS_IRQn);
     b64:	4551                	li	a0,20
     b66:	34f5                	jal	652 <PFIC_DisableIRQ>
c:\Users\rui\Desktop\iphone_screen\wch\code\test_usb_hspi\test_usb_hspi\obj/../User/USB30/CH56x_usb30.c:659
        R8_TMR0_CTRL_MOD = RB_TMR_ALL_CLEAR;
     b68:	400027b7          	lui	a5,0x40002
     b6c:	4709                	li	a4,2
     b6e:	00e78023          	sb	a4,0(a5) # 40002000 <endp1RTbuff+0x1ffe1e00>
c:\Users\rui\Desktop\iphone_screen\wch\code\test_usb_hspi\test_usb_hspi\obj/../User/USB30/CH56x_usb30.c:660
        R8_TMR0_INTER_EN = 0;
     b72:	00078123          	sb	zero,2(a5)
c:\Users\rui\Desktop\iphone_screen\wch\code\test_usb_hspi\test_usb_hspi\obj/../User/USB30/CH56x_usb30.c:661
        PFIC_DisableIRQ(TMR0_IRQn);
     b76:	4545                	li	a0,17
     b78:	3ce9                	jal	652 <PFIC_DisableIRQ>
PFIC_EnableIRQ():
c:/Users/rui/Desktop/iphone_screen/wch/code/test_usb_hspi/test_usb_hspi/RVMSIS/core_riscv.h:131
     b7a:	e000e7b7          	lui	a5,0xe000e
     b7e:	02000737          	lui	a4,0x2000
LINK_IRQHandler():
c:\Users\rui\Desktop\iphone_screen\wch\code\test_usb_hspi\test_usb_hspi\obj/../User/USB30/CH56x_usb30.c:664
        PFIC_EnableIRQ(USBHS_IRQn);
        // USB20_Device_Init(ENABLE);
        PRINT("USBSS->LINK_INT_FLAG & LINK_DISABLE_FLAG , USB30D_init(DISABLE)");
     b82:	00003537          	lui	a0,0x3
PFIC_EnableIRQ():
c:/Users/rui/Desktop/iphone_screen/wch/code/test_usb_hspi/test_usb_hspi/RVMSIS/core_riscv.h:131
     b86:	10e7a023          	sw	a4,256(a5) # e000e100 <endp1RTbuff+0xbffedf00>
LINK_IRQHandler():
c:\Users\rui\Desktop\iphone_screen\wch\code\test_usb_hspi\test_usb_hspi\obj/../User/USB30/CH56x_usb30.c:664
     b8a:	d3850513          	addi	a0,a0,-712 # 2d38 <BOSDescriptor+0x18>
     b8e:	745000ef          	jal	ra,1ad2 <iprintf>
c:\Users\rui\Desktop\iphone_screen\wch\code\test_usb_hspi\test_usb_hspi\obj/../User/USB30/CH56x_usb30.c:666
    }
    if( USBSS->LINK_INT_FLAG & LINK_RX_DET_FLAG )
     b92:	400087b7          	lui	a5,0x40008
     b96:	47d8                	lw	a4,12(a5)
     b98:	00b71693          	slli	a3,a4,0xb
     b9c:	0006d863          	bgez	a3,bac <LINK_IRQHandler+0x122>
c:\Users\rui\Desktop\iphone_screen\wch\code\test_usb_hspi\test_usb_hspi\obj/../User/USB30/CH56x_usb30.c:668
    {
        USBSS->LINK_INT_FLAG = LINK_RX_DET_FLAG;
     ba0:	00100737          	lui	a4,0x100
     ba4:	c7d8                	sw	a4,12(a5)
c:\Users\rui\Desktop\iphone_screen\wch\code\test_usb_hspi\test_usb_hspi\obj/../User/USB30/CH56x_usb30.c:669
        USB30_Switch_Powermode(POWER_MODE_2);
     ba6:	4509                	li	a0,2
     ba8:	fd6ff0ef          	jal	ra,37e <USB30_Switch_Powermode>
c:\Users\rui\Desktop\iphone_screen\wch\code\test_usb_hspi\test_usb_hspi\obj/../User/USB30/CH56x_usb30.c:671
    }
    if( USBSS->LINK_INT_FLAG & TERM_PRESENT_FLAG ) // term present , begin POLLING
     bac:	40008437          	lui	s0,0x40008
     bb0:	445c                	lw	a5,12(s0)
     bb2:	4007f793          	andi	a5,a5,1024
     bb6:	cf99                	beqz	a5,bd4 <LINK_IRQHandler+0x14a>
c:\Users\rui\Desktop\iphone_screen\wch\code\test_usb_hspi\test_usb_hspi\obj/../User/USB30/CH56x_usb30.c:673
    {
        USBSS->LINK_INT_FLAG = TERM_PRESENT_FLAG;
     bb8:	40000793          	li	a5,1024
     bbc:	c45c                	sw	a5,12(s0)
c:\Users\rui\Desktop\iphone_screen\wch\code\test_usb_hspi\test_usb_hspi\obj/../User/USB30/CH56x_usb30.c:674
        if( USBSS->LINK_STATUS & LINK_PRESENT )
     bbe:	481c                	lw	a5,16(s0)
     bc0:	8b85                	andi	a5,a5,1
     bc2:	0e078e63          	beqz	a5,cbe <LINK_IRQHandler+0x234>
c:\Users\rui\Desktop\iphone_screen\wch\code\test_usb_hspi\test_usb_hspi\obj/../User/USB30/CH56x_usb30.c:676
        {
            USB30_Switch_Powermode(POWER_MODE_2);
     bc6:	4509                	li	a0,2
     bc8:	fb6ff0ef          	jal	ra,37e <USB30_Switch_Powermode>
c:\Users\rui\Desktop\iphone_screen\wch\code\test_usb_hspi\test_usb_hspi\obj/../User/USB30/CH56x_usb30.c:677
            USBSS->LINK_CTRL |= POLLING_EN;
     bcc:	405c                	lw	a5,4(s0)
     bce:	6705                	lui	a4,0x1
     bd0:	8fd9                	or	a5,a5,a4
     bd2:	c05c                	sw	a5,4(s0)
c:\Users\rui\Desktop\iphone_screen\wch\code\test_usb_hspi\test_usb_hspi\obj/../User/USB30/CH56x_usb30.c:684
        else
        {
            USBSS->LINK_INT_CTRL = 0;
        }
    }
    if( USBSS->LINK_INT_FLAG & LINK_TXEQ_FLAG ) // POLLING SHAKE DONE
     bd4:	400086b7          	lui	a3,0x40008
     bd8:	46d8                	lw	a4,12(a3)
     bda:	6785                	lui	a5,0x1
     bdc:	80078793          	addi	a5,a5,-2048 # 800 <__stack_size>
     be0:	8f7d                	and	a4,a4,a5
     be2:	cb01                	beqz	a4,bf2 <LINK_IRQHandler+0x168>
c:\Users\rui\Desktop\iphone_screen\wch\code\test_usb_hspi\test_usb_hspi\obj/../User/USB30/CH56x_usb30.c:686
    {
        Tx_Lmp_Port = 1;
     be4:	4605                	li	a2,1
     be6:	82c188a3          	sb	a2,-1999(gp) # 200000e1 <Tx_Lmp_Port>
c:\Users\rui\Desktop\iphone_screen\wch\code\test_usb_hspi\test_usb_hspi\obj/../User/USB30/CH56x_usb30.c:687
        USBSS->LINK_INT_FLAG = LINK_TXEQ_FLAG;
     bea:	c6dc                	sw	a5,12(a3)
c:\Users\rui\Desktop\iphone_screen\wch\code\test_usb_hspi\test_usb_hspi\obj/../User/USB30/CH56x_usb30.c:688
        USB30_Switch_Powermode(POWER_MODE_0);
     bec:	4501                	li	a0,0
     bee:	f90ff0ef          	jal	ra,37e <USB30_Switch_Powermode>
c:\Users\rui\Desktop\iphone_screen\wch\code\test_usb_hspi\test_usb_hspi\obj/../User/USB30/CH56x_usb30.c:690
    }
    if( USBSS->LINK_INT_FLAG & WARM_RESET_FLAG )
     bf2:	40008437          	lui	s0,0x40008
     bf6:	445c                	lw	a5,12(s0)
     bf8:	01279713          	slli	a4,a5,0x12
     bfc:	02075763          	bgez	a4,c2a <LINK_IRQHandler+0x1a0>
c:\Users\rui\Desktop\iphone_screen\wch\code\test_usb_hspi\test_usb_hspi\obj/../User/USB30/CH56x_usb30.c:692
    {
        USBSS->LINK_INT_FLAG = WARM_RESET_FLAG;
     c00:	6789                	lui	a5,0x2
     c02:	c45c                	sw	a5,12(s0)
c:\Users\rui\Desktop\iphone_screen\wch\code\test_usb_hspi\test_usb_hspi\obj/../User/USB30/CH56x_usb30.c:693
        USB30_Switch_Powermode(POWER_MODE_2);
     c04:	4509                	li	a0,2
     c06:	f78ff0ef          	jal	ra,37e <USB30_Switch_Powermode>
c:\Users\rui\Desktop\iphone_screen\wch\code\test_usb_hspi\test_usb_hspi\obj/../User/USB30/CH56x_usb30.c:694
        USBSS->LINK_CTRL |= TX_WARM_RESET;
     c0a:	405c                	lw	a5,4(s0)
     c0c:	1007e793          	ori	a5,a5,256
     c10:	c05c                	sw	a5,4(s0)
c:\Users\rui\Desktop\iphone_screen\wch\code\test_usb_hspi\test_usb_hspi\obj/../User/USB30/CH56x_usb30.c:695
        while(USBSS->LINK_STATUS & RX_WARM_RESET);
     c12:	400087b7          	lui	a5,0x40008
c:\Users\rui\Desktop\iphone_screen\wch\code\test_usb_hspi\test_usb_hspi\obj/../User/USB30/CH56x_usb30.c:695 (discriminator 1)
     c16:	4b98                	lw	a4,16(a5)
     c18:	8b09                	andi	a4,a4,2
     c1a:	ff75                	bnez	a4,c16 <LINK_IRQHandler+0x18c>
c:\Users\rui\Desktop\iphone_screen\wch\code\test_usb_hspi\test_usb_hspi\obj/../User/USB30/CH56x_usb30.c:696
        USBSS->LINK_CTRL &= ~TX_WARM_RESET;
     c1c:	43d8                	lw	a4,4(a5)
c:\Users\rui\Desktop\iphone_screen\wch\code\test_usb_hspi\test_usb_hspi\obj/../User/USB30/CH56x_usb30.c:697
        USB30_Device_Setaddress(0);
     c1e:	4501                	li	a0,0
c:\Users\rui\Desktop\iphone_screen\wch\code\test_usb_hspi\test_usb_hspi\obj/../User/USB30/CH56x_usb30.c:696
        USBSS->LINK_CTRL &= ~TX_WARM_RESET;
     c20:	eff77713          	andi	a4,a4,-257
     c24:	c3d8                	sw	a4,4(a5)
c:\Users\rui\Desktop\iphone_screen\wch\code\test_usb_hspi\test_usb_hspi\obj/../User/USB30/CH56x_usb30.c:697
        USB30_Device_Setaddress(0);
     c26:	f42ff0ef          	jal	ra,368 <USB30_Device_Setaddress>
c:\Users\rui\Desktop\iphone_screen\wch\code\test_usb_hspi\test_usb_hspi\obj/../User/USB30/CH56x_usb30.c:700

    }
    if( USBSS->LINK_INT_FLAG & HOT_RESET_FLAG ) //The host may send hot reset,Note the configuration of the endpoint
     c2a:	40008437          	lui	s0,0x40008
     c2e:	445c                	lw	a5,12(s0)
     c30:	01079713          	slli	a4,a5,0x10
     c34:	02075f63          	bgez	a4,c72 <LINK_IRQHandler+0x1e8>
c:\Users\rui\Desktop\iphone_screen\wch\code\test_usb_hspi\test_usb_hspi\obj/../User/USB30/CH56x_usb30.c:702
    {
        USBSS->USB_CONTROL |= 1 << 31;
     c38:	501c                	lw	a5,32(s0)
     c3a:	80000737          	lui	a4,0x80000
c:\Users\rui\Desktop\iphone_screen\wch\code\test_usb_hspi\test_usb_hspi\obj/../User/USB30/CH56x_usb30.c:705
        USBSS->LINK_INT_FLAG = HOT_RESET_FLAG; // HOT RESET begin
        USBSS->UEP0_TX_CTRL = 0;
        USB30_IN_Set(ENDP_1, DISABLE, NRDY, 0, 0);
     c3e:	4681                	li	a3,0
c:\Users\rui\Desktop\iphone_screen\wch\code\test_usb_hspi\test_usb_hspi\obj/../User/USB30/CH56x_usb30.c:702
        USBSS->USB_CONTROL |= 1 << 31;
     c40:	8fd9                	or	a5,a5,a4
     c42:	d01c                	sw	a5,32(s0)
c:\Users\rui\Desktop\iphone_screen\wch\code\test_usb_hspi\test_usb_hspi\obj/../User/USB30/CH56x_usb30.c:703
        USBSS->LINK_INT_FLAG = HOT_RESET_FLAG; // HOT RESET begin
     c44:	67a1                	lui	a5,0x8
     c46:	c45c                	sw	a5,12(s0)
c:\Users\rui\Desktop\iphone_screen\wch\code\test_usb_hspi\test_usb_hspi\obj/../User/USB30/CH56x_usb30.c:705
        USB30_IN_Set(ENDP_1, DISABLE, NRDY, 0, 0);
     c48:	4701                	li	a4,0
     c4a:	4601                	li	a2,0
     c4c:	4581                	li	a1,0
     c4e:	4505                	li	a0,1
c:\Users\rui\Desktop\iphone_screen\wch\code\test_usb_hspi\test_usb_hspi\obj/../User/USB30/CH56x_usb30.c:704
        USBSS->UEP0_TX_CTRL = 0;
     c50:	06042e23          	sw	zero,124(s0) # 4000807c <endp1RTbuff+0x1ffe7e7c>
c:\Users\rui\Desktop\iphone_screen\wch\code\test_usb_hspi\test_usb_hspi\obj/../User/USB30/CH56x_usb30.c:705
        USB30_IN_Set(ENDP_1, DISABLE, NRDY, 0, 0);
     c54:	e32ff0ef          	jal	ra,286 <USB30_IN_Set>
c:\Users\rui\Desktop\iphone_screen\wch\code\test_usb_hspi\test_usb_hspi\obj/../User/USB30/CH56x_usb30.c:706
        USB30_OUT_Set(ENDP_1, NRDY, 0);
     c58:	4601                	li	a2,0
     c5a:	4581                	li	a1,0
     c5c:	4505                	li	a0,1
     c5e:	d9eff0ef          	jal	ra,1fc <USB30_OUT_Set>
c:\Users\rui\Desktop\iphone_screen\wch\code\test_usb_hspi\test_usb_hspi\obj/../User/USB30/CH56x_usb30.c:707
        USB30_Device_Setaddress(0);
     c62:	4501                	li	a0,0
     c64:	f04ff0ef          	jal	ra,368 <USB30_Device_Setaddress>
c:\Users\rui\Desktop\iphone_screen\wch\code\test_usb_hspi\test_usb_hspi\obj/../User/USB30/CH56x_usb30.c:708
        USBSS->LINK_CTRL &= ~TX_HOT_RESET;     // HOT RESET end
     c68:	405c                	lw	a5,4(s0)
     c6a:	7741                	lui	a4,0xffff0
     c6c:	177d                	addi	a4,a4,-1
     c6e:	8ff9                	and	a5,a5,a4
     c70:	c05c                	sw	a5,4(s0)
c:\Users\rui\Desktop\iphone_screen\wch\code\test_usb_hspi\test_usb_hspi\obj/../User/USB30/CH56x_usb30.c:710
    }
    if( USBSS->LINK_INT_FLAG & LINK_GO_U1_FLAG ) // device enter U1
     c72:	40008437          	lui	s0,0x40008
     c76:	445c                	lw	a5,12(s0)
     c78:	0407f793          	andi	a5,a5,64
     c7c:	c799                	beqz	a5,c8a <LINK_IRQHandler+0x200>
c:\Users\rui\Desktop\iphone_screen\wch\code\test_usb_hspi\test_usb_hspi\obj/../User/USB30/CH56x_usb30.c:712
    {
        USB30_Switch_Powermode(POWER_MODE_1);
     c7e:	4505                	li	a0,1
     c80:	efeff0ef          	jal	ra,37e <USB30_Switch_Powermode>
c:\Users\rui\Desktop\iphone_screen\wch\code\test_usb_hspi\test_usb_hspi\obj/../User/USB30/CH56x_usb30.c:713
        USBSS->LINK_INT_FLAG = LINK_GO_U1_FLAG;
     c84:	04000793          	li	a5,64
     c88:	c45c                	sw	a5,12(s0)
c:\Users\rui\Desktop\iphone_screen\wch\code\test_usb_hspi\test_usb_hspi\obj/../User/USB30/CH56x_usb30.c:715
    }
    if( USBSS->LINK_INT_FLAG & LINK_GO_U2_FLAG ) // device enter U2
     c8a:	40008437          	lui	s0,0x40008
     c8e:	445c                	lw	a5,12(s0)
     c90:	0207f793          	andi	a5,a5,32
     c94:	c799                	beqz	a5,ca2 <LINK_IRQHandler+0x218>
c:\Users\rui\Desktop\iphone_screen\wch\code\test_usb_hspi\test_usb_hspi\obj/../User/USB30/CH56x_usb30.c:717
    {
        USB30_Switch_Powermode(POWER_MODE_2);
     c96:	4509                	li	a0,2
     c98:	ee6ff0ef          	jal	ra,37e <USB30_Switch_Powermode>
c:\Users\rui\Desktop\iphone_screen\wch\code\test_usb_hspi\test_usb_hspi\obj/../User/USB30/CH56x_usb30.c:718
        USBSS->LINK_INT_FLAG = LINK_GO_U2_FLAG;
     c9c:	02000793          	li	a5,32
     ca0:	c45c                	sw	a5,12(s0)
c:\Users\rui\Desktop\iphone_screen\wch\code\test_usb_hspi\test_usb_hspi\obj/../User/USB30/CH56x_usb30.c:720
    }
    if( USBSS->LINK_INT_FLAG & LINK_GO_U3_FLAG ) // device enter U2
     ca2:	40008437          	lui	s0,0x40008
     ca6:	445c                	lw	a5,12(s0)
     ca8:	8bc1                	andi	a5,a5,16
     caa:	c791                	beqz	a5,cb6 <LINK_IRQHandler+0x22c>
c:\Users\rui\Desktop\iphone_screen\wch\code\test_usb_hspi\test_usb_hspi\obj/../User/USB30/CH56x_usb30.c:722
    {
        USB30_Switch_Powermode(POWER_MODE_2);
     cac:	4509                	li	a0,2
     cae:	ed0ff0ef          	jal	ra,37e <USB30_Switch_Powermode>
c:\Users\rui\Desktop\iphone_screen\wch\code\test_usb_hspi\test_usb_hspi\obj/../User/USB30/CH56x_usb30.c:723
        USBSS->LINK_INT_FLAG = LINK_GO_U3_FLAG;
     cb2:	47c1                	li	a5,16
     cb4:	c45c                	sw	a5,12(s0)
c:\Users\rui\Desktop\iphone_screen\wch\code\test_usb_hspi\test_usb_hspi\obj/../User/USB30/CH56x_usb30.c:725
    }
}
     cb6:	4432                	lw	s0,12(sp)
     cb8:	0141                	addi	sp,sp,16
     cba:	30200073          	mret
c:\Users\rui\Desktop\iphone_screen\wch\code\test_usb_hspi\test_usb_hspi\obj/../User/USB30/CH56x_usb30.c:681
            USBSS->LINK_INT_CTRL = 0;
     cbe:	00042423          	sw	zero,8(s0) # 40008008 <endp1RTbuff+0x1ffe7e08>
     cc2:	bf09                	j	bd4 <LINK_IRQHandler+0x14a>

00000cc4 <EP1_IN_Callback>:
EP1_IN_Callback():
c:\Users\rui\Desktop\iphone_screen\wch\code\test_usb_hspi\test_usb_hspi\obj/../User/USB30/CH56x_usb30.c:735
 * @brief   USB3.0 endpoint1 in callback.
 *
 * @return  None
 */
void EP1_IN_Callback( void )
{
     cc4:	1101                	addi	sp,sp,-32
c:\Users\rui\Desktop\iphone_screen\wch\code\test_usb_hspi\test_usb_hspi\obj/../User/USB30/CH56x_usb30.c:745
    // so we need let the usb start from the last packet position
    // PIN_HRTS_HIGH();
    // PFIC_DisableIRQ(HSPI_IRQn);

    UINT8 remain_packet;
    remain_packet = USB30_IN_Nump( ENDP_1 ); // 
     cc6:	4505                	li	a0,1
c:\Users\rui\Desktop\iphone_screen\wch\code\test_usb_hspi\test_usb_hspi\obj/../User/USB30/CH56x_usb30.c:735
{
     cc8:	cc22                	sw	s0,24(sp)
     cca:	ca26                	sw	s1,20(sp)
     ccc:	ce06                	sw	ra,28(sp)
     cce:	c84a                	sw	s2,16(sp)
c:\Users\rui\Desktop\iphone_screen\wch\code\test_usb_hspi\test_usb_hspi\obj/../User/USB30/CH56x_usb30.c:748

    // pop success send packet
    for(int i=0 ; i<(last_send_packet-remain_packet) ; i++){
     cd0:	4401                	li	s0,0
c:\Users\rui\Desktop\iphone_screen\wch\code\test_usb_hspi\test_usb_hspi\obj/../User/USB30/CH56x_usb30.c:745
    remain_packet = USB30_IN_Nump( ENDP_1 ); // 
     cd2:	e1cff0ef          	jal	ra,2ee <USB30_IN_Nump>
c:\Users\rui\Desktop\iphone_screen\wch\code\test_usb_hspi\test_usb_hspi\obj/../User/USB30/CH56x_usb30.c:748 (discriminator 1)
    for(int i=0 ; i<(last_send_packet-remain_packet) ; i++){
     cd6:	83418793          	addi	a5,gp,-1996 # 200000e4 <last_send_packet>
     cda:	439c                	lw	a5,0(a5)
     cdc:	83418913          	addi	s2,gp,-1996 # 200000e4 <last_send_packet>
     ce0:	8f89                	sub	a5,a5,a0
     ce2:	06f46963          	bltu	s0,a5,d54 <EP1_IN_Callback+0x90>
dma_fifo_get_count():
c:/Users/rui/Desktop/iphone_screen/wch/code/test_usb_hspi/test_usb_hspi/User/dma_fifo.h:27
inline uint8_t dma_fifo_is_full(void) { // not enough for write
    return (data_count + DMA_FIFO_PUSH_BLOCKS) > DMA_FIFO_TOTAL_BLOCKS;
}

inline uint8_t  dma_fifo_get_count(void) {
    return data_count;
     ce6:	8511c783          	lbu	a5,-1967(gp) # 20000101 <data_count>
     cea:	0ff7f793          	andi	a5,a5,255
EP1_IN_Callback():
c:\Users\rui\Desktop\iphone_screen\wch\code\test_usb_hspi\test_usb_hspi\obj/../User/USB30/CH56x_usb30.c:754
        dma_fifo_pop();
    }
    uint8_t fifo_count = dma_fifo_get_count();
        // PRINT("@%d\n" , fifo_count);

    if(fifo_count){
     cee:	cbad                	beqz	a5,d60 <EP1_IN_Callback+0x9c>
c:\Users\rui\Desktop\iphone_screen\wch\code\test_usb_hspi\test_usb_hspi\obj/../User/USB30/CH56x_usb30.c:755
        uint8_t send_packet = (fifo_count<4) ? fifo_count : 4;
     cf0:	4711                	li	a4,4
     cf2:	0ff7f513          	andi	a0,a5,255
     cf6:	00f77363          	bgeu	a4,a5,cfc <EP1_IN_Callback+0x38>
     cfa:	4511                	li	a0,4
c:\Users\rui\Desktop\iphone_screen\wch\code\test_usb_hspi\test_usb_hspi\obj/../User/USB30/CH56x_usb30.c:756
        send_packet = dma_fifo_check_pop_block_contiguous(send_packet);
     cfc:	2dd000ef          	jal	ra,17d8 <dma_fifo_check_pop_block_contiguous>
     d00:	842a                	mv	s0,a0
c:\Users\rui\Desktop\iphone_screen\wch\code\test_usb_hspi\test_usb_hspi\obj/../User/USB30/CH56x_usb30.c:758

        last_send_packet = send_packet;
     d02:	00a92023          	sw	a0,0(s2)
c:\Users\rui\Desktop\iphone_screen\wch\code\test_usb_hspi\test_usb_hspi\obj/../User/USB30/CH56x_usb30.c:760

        USBSS->UEP1_TX_DMA = (UINT32V)dma_fifo_peek_pop_addr(0);
     d06:	4501                	li	a0,0
     d08:	275000ef          	jal	ra,177c <dma_fifo_peek_pop_addr>
     d0c:	400087b7          	lui	a5,0x40008
     d10:	08a7a023          	sw	a0,128(a5) # 40008080 <endp1RTbuff+0x1ffe7e80>
c:\Users\rui\Desktop\iphone_screen\wch\code\test_usb_hspi\test_usb_hspi\obj/../User/USB30/CH56x_usb30.c:762
        /* Enable USB data upload */
        USB30_IN_ClearIT( ENDP_1 );
     d14:	4505                	li	a0,1
     d16:	daaff0ef          	jal	ra,2c0 <USB30_IN_ClearIT>
c:\Users\rui\Desktop\iphone_screen\wch\code\test_usb_hspi\test_usb_hspi\obj/../User/USB30/CH56x_usb30.c:763
        USB30_IN_Set( ENDP_1, ENABLE , ACK , send_packet, 1024 );
     d1a:	4585                	li	a1,1
     d1c:	4505                	li	a0,1
     d1e:	40000713          	li	a4,1024
     d22:	86a2                	mv	a3,s0
     d24:	4605                	li	a2,1
     d26:	d60ff0ef          	jal	ra,286 <USB30_IN_Set>
c:\Users\rui\Desktop\iphone_screen\wch\code\test_usb_hspi\test_usb_hspi\obj/../User/USB30/CH56x_usb30.c:764
        USB30_Send_ERDY( ENDP_1 | IN , send_packet );
     d2a:	85a2                	mv	a1,s0
     d2c:	08100513          	li	a0,129
     d30:	e14ff0ef          	jal	ra,344 <USB30_Send_ERDY>
c:\Users\rui\Desktop\iphone_screen\wch\code\test_usb_hspi\test_usb_hspi\obj/../User/USB30/CH56x_usb30.c:770
    }
    else{
        usb_sending_flag = 0;
        USB30_IN_ClearIT( ENDP_1 );
    }
    if(dma_fifo_peek_push_addr(3)==NULL){
     d34:	450d                	li	a0,3
     d36:	1e1000ef          	jal	ra,1716 <dma_fifo_peek_push_addr>
c:\Users\rui\Desktop\iphone_screen\wch\code\test_usb_hspi\test_usb_hspi\obj/../User/USB30/CH56x_usb30.c:771
    	PIN_HRTS_HIGH();
     d3a:	40001737          	lui	a4,0x40001
c:\Users\rui\Desktop\iphone_screen\wch\code\test_usb_hspi\test_usb_hspi\obj/../User/USB30/CH56x_usb30.c:770
    if(dma_fifo_peek_push_addr(3)==NULL){
     d3e:	e51d                	bnez	a0,d6c <EP1_IN_Callback+0xa8>
c:\Users\rui\Desktop\iphone_screen\wch\code\test_usb_hspi\test_usb_hspi\obj/../User/USB30/CH56x_usb30.c:771
    	PIN_HRTS_HIGH();
     d40:	573c                	lw	a5,104(a4)
     d42:	6689                	lui	a3,0x2
     d44:	8fd5                	or	a5,a5,a3
     d46:	d73c                	sw	a5,104(a4)
c:\Users\rui\Desktop\iphone_screen\wch\code\test_usb_hspi\test_usb_hspi\obj/../User/USB30/CH56x_usb30.c:908
        Endp1_Up_Status = 0x00; // usb 
    }
#endif


}
     d48:	40f2                	lw	ra,28(sp)
     d4a:	4462                	lw	s0,24(sp)
     d4c:	44d2                	lw	s1,20(sp)
     d4e:	4942                	lw	s2,16(sp)
     d50:	6105                	addi	sp,sp,32
     d52:	8082                	ret
     d54:	c62a                	sw	a0,12(sp)
c:\Users\rui\Desktop\iphone_screen\wch\code\test_usb_hspi\test_usb_hspi\obj/../User/USB30/CH56x_usb30.c:749 (discriminator 3)
        dma_fifo_pop();
     d56:	24f000ef          	jal	ra,17a4 <dma_fifo_pop>
c:\Users\rui\Desktop\iphone_screen\wch\code\test_usb_hspi\test_usb_hspi\obj/../User/USB30/CH56x_usb30.c:748 (discriminator 3)
    for(int i=0 ; i<(last_send_packet-remain_packet) ; i++){
     d5a:	0405                	addi	s0,s0,1
     d5c:	4532                	lw	a0,12(sp)
     d5e:	bfa5                	j	cd6 <EP1_IN_Callback+0x12>
c:\Users\rui\Desktop\iphone_screen\wch\code\test_usb_hspi\test_usb_hspi\obj/../User/USB30/CH56x_usb30.c:768
        USB30_IN_ClearIT( ENDP_1 );
     d60:	4505                	li	a0,1
c:\Users\rui\Desktop\iphone_screen\wch\code\test_usb_hspi\test_usb_hspi\obj/../User/USB30/CH56x_usb30.c:767
        usb_sending_flag = 0;
     d62:	82018e23          	sb	zero,-1988(gp) # 200000ec <usb_sending_flag>
c:\Users\rui\Desktop\iphone_screen\wch\code\test_usb_hspi\test_usb_hspi\obj/../User/USB30/CH56x_usb30.c:768
        USB30_IN_ClearIT( ENDP_1 );
     d66:	d5aff0ef          	jal	ra,2c0 <USB30_IN_ClearIT>
     d6a:	b7e9                	j	d34 <EP1_IN_Callback+0x70>
c:\Users\rui\Desktop\iphone_screen\wch\code\test_usb_hspi\test_usb_hspi\obj/../User/USB30/CH56x_usb30.c:774
    	PIN_HRTS_LOW();
     d6c:	577c                	lw	a5,108(a4)
     d6e:	6689                	lui	a3,0x2
     d70:	8fd5                	or	a5,a5,a3
     d72:	d77c                	sw	a5,108(a4)
c:\Users\rui\Desktop\iphone_screen\wch\code\test_usb_hspi\test_usb_hspi\obj/../User/USB30/CH56x_usb30.c:908
}
     d74:	bfd1                	j	d48 <EP1_IN_Callback+0x84>

00000d76 <usb_start_sending>:
usb_start_sending():
c:\Users\rui\Desktop\iphone_screen\wch\code\test_usb_hspi\test_usb_hspi\obj/../User/USB30/CH56x_usb30.c:914





void usb_start_sending(){
     d76:	1101                	addi	sp,sp,-32
c:\Users\rui\Desktop\iphone_screen\wch\code\test_usb_hspi\test_usb_hspi\obj/../User/USB30/CH56x_usb30.c:916
    // last_send_packet = 0;
    PFIC_DisableIRQ(HSPI_IRQn);
     d78:	4571                	li	a0,28
c:\Users\rui\Desktop\iphone_screen\wch\code\test_usb_hspi\test_usb_hspi\obj/../User/USB30/CH56x_usb30.c:914
void usb_start_sending(){
     d7a:	ce06                	sw	ra,28(sp)
     d7c:	cc22                	sw	s0,24(sp)
     d7e:	ca26                	sw	s1,20(sp)
     d80:	c84a                	sw	s2,16(sp)
c:\Users\rui\Desktop\iphone_screen\wch\code\test_usb_hspi\test_usb_hspi\obj/../User/USB30/CH56x_usb30.c:916
    PFIC_DisableIRQ(HSPI_IRQn);
     d82:	8d1ff0ef          	jal	ra,652 <PFIC_DisableIRQ>
c:\Users\rui\Desktop\iphone_screen\wch\code\test_usb_hspi\test_usb_hspi\obj/../User/USB30/CH56x_usb30.c:918
    UINT8 remain_packet;
    remain_packet = USB30_IN_Nump( ENDP_1 ); // 
     d86:	4505                	li	a0,1
     d88:	d66ff0ef          	jal	ra,2ee <USB30_IN_Nump>
c:\Users\rui\Desktop\iphone_screen\wch\code\test_usb_hspi\test_usb_hspi\obj/../User/USB30/CH56x_usb30.c:922
    // remain_packet = 0;

    // pop success send packet
    for(int i=0 ; i<(last_send_packet-remain_packet) ; i++){
     d8c:	4401                	li	s0,0
c:\Users\rui\Desktop\iphone_screen\wch\code\test_usb_hspi\test_usb_hspi\obj/../User/USB30/CH56x_usb30.c:922 (discriminator 1)
     d8e:	83418793          	addi	a5,gp,-1996 # 200000e4 <last_send_packet>
     d92:	439c                	lw	a5,0(a5)
     d94:	83418913          	addi	s2,gp,-1996 # 200000e4 <last_send_packet>
     d98:	8f89                	sub	a5,a5,a0
     d9a:	06f46563          	bltu	s0,a5,e04 <usb_start_sending+0x8e>
dma_fifo_get_count():
c:/Users/rui/Desktop/iphone_screen/wch/code/test_usb_hspi/test_usb_hspi/User/dma_fifo.h:27
     d9e:	8511c783          	lbu	a5,-1967(gp) # 20000101 <data_count>
     da2:	0ff7f793          	andi	a5,a5,255
usb_start_sending():
c:\Users\rui\Desktop\iphone_screen\wch\code\test_usb_hspi\test_usb_hspi\obj/../User/USB30/CH56x_usb30.c:927
        dma_fifo_pop();
    }
    uint8_t fifo_count = dma_fifo_get_count();

    if(fifo_count){
     da6:	c7ad                	beqz	a5,e10 <usb_start_sending+0x9a>
c:\Users\rui\Desktop\iphone_screen\wch\code\test_usb_hspi\test_usb_hspi\obj/../User/USB30/CH56x_usb30.c:928
        uint8_t send_packet = (fifo_count<4) ? fifo_count : 4;
     da8:	4711                	li	a4,4
     daa:	0ff7f513          	andi	a0,a5,255
     dae:	00f77363          	bgeu	a4,a5,db4 <usb_start_sending+0x3e>
     db2:	4511                	li	a0,4
c:\Users\rui\Desktop\iphone_screen\wch\code\test_usb_hspi\test_usb_hspi\obj/../User/USB30/CH56x_usb30.c:929
        send_packet = dma_fifo_check_pop_block_contiguous(send_packet);
     db4:	225000ef          	jal	ra,17d8 <dma_fifo_check_pop_block_contiguous>
     db8:	842a                	mv	s0,a0
c:\Users\rui\Desktop\iphone_screen\wch\code\test_usb_hspi\test_usb_hspi\obj/../User/USB30/CH56x_usb30.c:931

        last_send_packet = send_packet;
     dba:	00a92023          	sw	a0,0(s2)
c:\Users\rui\Desktop\iphone_screen\wch\code\test_usb_hspi\test_usb_hspi\obj/../User/USB30/CH56x_usb30.c:935

        // PRINT("start send_packet: %d \n" , send_packet);

        USBSS->UEP1_TX_DMA = (UINT32V)dma_fifo_peek_pop_addr(0);
     dbe:	4501                	li	a0,0
     dc0:	1bd000ef          	jal	ra,177c <dma_fifo_peek_pop_addr>
     dc4:	400087b7          	lui	a5,0x40008
     dc8:	08a7a023          	sw	a0,128(a5) # 40008080 <endp1RTbuff+0x1ffe7e80>
c:\Users\rui\Desktop\iphone_screen\wch\code\test_usb_hspi\test_usb_hspi\obj/../User/USB30/CH56x_usb30.c:939

        // PRINT("start send_packet addr: %ld \n" , USBSS->UEP1_TX_DMA);
        /* Enable USB data upload */
        USB30_IN_ClearIT( ENDP_1 );
     dcc:	4505                	li	a0,1
     dce:	cf2ff0ef          	jal	ra,2c0 <USB30_IN_ClearIT>
c:\Users\rui\Desktop\iphone_screen\wch\code\test_usb_hspi\test_usb_hspi\obj/../User/USB30/CH56x_usb30.c:940
        USB30_IN_Set( ENDP_1, ENABLE , ACK , send_packet, 1024 );
     dd2:	4585                	li	a1,1
     dd4:	4505                	li	a0,1
     dd6:	40000713          	li	a4,1024
     dda:	86a2                	mv	a3,s0
     ddc:	4605                	li	a2,1
     dde:	ca8ff0ef          	jal	ra,286 <USB30_IN_Set>
c:\Users\rui\Desktop\iphone_screen\wch\code\test_usb_hspi\test_usb_hspi\obj/../User/USB30/CH56x_usb30.c:941
        USB30_Send_ERDY( ENDP_1 | IN , send_packet );
     de2:	85a2                	mv	a1,s0
     de4:	08100513          	li	a0,129
     de8:	d5cff0ef          	jal	ra,344 <USB30_Send_ERDY>
c:\Users\rui\Desktop\iphone_screen\wch\code\test_usb_hspi\test_usb_hspi\obj/../User/USB30/CH56x_usb30.c:950
        USB30_IN_ClearIT( ENDP_1 );
    }

    PFIC_EnableIRQ(HSPI_IRQn);

}
     dec:	40f2                	lw	ra,28(sp)
     dee:	4462                	lw	s0,24(sp)
PFIC_EnableIRQ():
c:/Users/rui/Desktop/iphone_screen/wch/code/test_usb_hspi/test_usb_hspi/RVMSIS/core_riscv.h:131
     df0:	e000e7b7          	lui	a5,0xe000e
     df4:	10000737          	lui	a4,0x10000
     df8:	10e7a023          	sw	a4,256(a5) # e000e100 <endp1RTbuff+0xbffedf00>
usb_start_sending():
c:\Users\rui\Desktop\iphone_screen\wch\code\test_usb_hspi\test_usb_hspi\obj/../User/USB30/CH56x_usb30.c:950
     dfc:	44d2                	lw	s1,20(sp)
     dfe:	4942                	lw	s2,16(sp)
     e00:	6105                	addi	sp,sp,32
     e02:	8082                	ret
     e04:	c62a                	sw	a0,12(sp)
c:\Users\rui\Desktop\iphone_screen\wch\code\test_usb_hspi\test_usb_hspi\obj/../User/USB30/CH56x_usb30.c:923 (discriminator 3)
        dma_fifo_pop();
     e06:	19f000ef          	jal	ra,17a4 <dma_fifo_pop>
c:\Users\rui\Desktop\iphone_screen\wch\code\test_usb_hspi\test_usb_hspi\obj/../User/USB30/CH56x_usb30.c:922 (discriminator 3)
    for(int i=0 ; i<(last_send_packet-remain_packet) ; i++){
     e0a:	0405                	addi	s0,s0,1
     e0c:	4532                	lw	a0,12(sp)
     e0e:	b741                	j	d8e <usb_start_sending+0x18>
c:\Users\rui\Desktop\iphone_screen\wch\code\test_usb_hspi\test_usb_hspi\obj/../User/USB30/CH56x_usb30.c:945
        USB30_IN_ClearIT( ENDP_1 );
     e10:	4505                	li	a0,1
c:\Users\rui\Desktop\iphone_screen\wch\code\test_usb_hspi\test_usb_hspi\obj/../User/USB30/CH56x_usb30.c:944
        usb_sending_flag = 0;
     e12:	82018e23          	sb	zero,-1988(gp) # 200000ec <usb_sending_flag>
c:\Users\rui\Desktop\iphone_screen\wch\code\test_usb_hspi\test_usb_hspi\obj/../User/USB30/CH56x_usb30.c:945
        USB30_IN_ClearIT( ENDP_1 );
     e16:	caaff0ef          	jal	ra,2c0 <USB30_IN_ClearIT>
     e1a:	bfc9                	j	dec <usb_start_sending+0x76>

00000e1c <EP1_OUT_Callback>:
EP1_OUT_Callback():
     e1c:	8082                	ret

00000e1e <EP2_IN_Callback>:
EP2_IN_Callback():
c:\Users\rui\Desktop\iphone_screen\wch\code\test_usb_hspi\test_usb_hspi\obj/../User/USB30/CH56x_usb30.c:1048
    Endp1_Down_IdleCount = 0x00;
#endif
}


void EP2_IN_Callback( void ){}
     e1e:	8082                	ret

00000e20 <EP3_IN_Callback>:
EP3_IN_Callback():
     e20:	8082                	ret

00000e22 <EP4_IN_Callback>:
EP4_IN_Callback():
     e22:	8082                	ret

00000e24 <EP5_IN_Callback>:
EP5_IN_Callback():
     e24:	8082                	ret

00000e26 <EP6_IN_Callback>:
EP6_IN_Callback():
     e26:	8082                	ret

00000e28 <EP7_IN_Callback>:
EP7_IN_Callback():
     e28:	8082                	ret

00000e2a <EP2_OUT_Callback>:
EP2_OUT_Callback():
     e2a:	8082                	ret

00000e2c <EP3_OUT_Callback>:
EP3_OUT_Callback():
     e2c:	8082                	ret

00000e2e <EP4_OUT_Callback>:
EP4_OUT_Callback():
     e2e:	8082                	ret

00000e30 <EP5_OUT_Callback>:
EP5_OUT_Callback():
     e30:	8082                	ret

00000e32 <EP6_OUT_Callback>:
EP6_OUT_Callback():
     e32:	8082                	ret

00000e34 <EP7_OUT_Callback>:
EP7_OUT_Callback():
     e34:	8082                	ret

00000e36 <USB30_ITP_Callback>:
USB30_ITP_Callback():
c:\Users\rui\Desktop\iphone_screen\wch\code\test_usb_hspi\test_usb_hspi\obj/../User/USB30/CH56x_usb30.c:1072

void EP6_OUT_Callback( void ){}

void EP7_OUT_Callback( void ){}

void USB30_ITP_Callback( UINT32 ITPCounter ){}
     e36:	8082                	ret

00000e38 <USB20_Endp_Init>:
USB20_Endp_Init():
c:\Users\rui\Desktop\iphone_screen\wch\code\test_usb_hspi\test_usb_hspi\obj/../User/USB20/CH56x_usb20.c:148
 *
 * @return  None
 */
void USB20_Endp_Init( void )
{
    R8_UEP4_1_MOD = RB_UEP1_RX_EN | RB_UEP1_TX_EN;
     e38:	400097b7          	lui	a5,0x40009
     e3c:	fc000713          	li	a4,-64
     e40:	00e78823          	sb	a4,16(a5) # 40009010 <endp1RTbuff+0x1ffe8e10>
c:\Users\rui\Desktop\iphone_screen\wch\code\test_usb_hspi\test_usb_hspi\obj/../User/USB20/CH56x_usb20.c:150

    R16_UEP0_MAX_LEN = 64;
     e44:	04000713          	li	a4,64
     e48:	04e79823          	sh	a4,80(a5)
c:\Users\rui\Desktop\iphone_screen\wch\code\test_usb_hspi\test_usb_hspi\obj/../User/USB20/CH56x_usb20.c:151
    R16_UEP1_MAX_LEN = 512;
     e4c:	20000713          	li	a4,512
     e50:	04e79a23          	sh	a4,84(a5)
c:\Users\rui\Desktop\iphone_screen\wch\code\test_usb_hspi\test_usb_hspi\obj/../User/USB20/CH56x_usb20.c:153

    R32_UEP0_RT_DMA = (UINT32)(UINT8 *)endp0RTbuff;
     e54:	20020737          	lui	a4,0x20020
     e58:	00070713          	mv	a4,a4
     e5c:	cbd8                	sw	a4,20(a5)
c:\Users\rui\Desktop\iphone_screen\wch\code\test_usb_hspi\test_usb_hspi\obj/../User/USB20/CH56x_usb20.c:154
    R32_UEP1_TX_DMA = (UINT32)(UINT8 *)DEF_ENDP1_TX_DMA_ADDR;
     e5e:	20022737          	lui	a4,0x20022
     e62:	80070713          	addi	a4,a4,-2048 # 20021800 <endp1RTbuff+0x1600>
     e66:	dbd8                	sw	a4,52(a5)
c:\Users\rui\Desktop\iphone_screen\wch\code\test_usb_hspi\test_usb_hspi\obj/../User/USB20/CH56x_usb20.c:155
	R32_UEP1_RX_DMA = (UINT32)(UINT8 *)DEF_ENDP1_RX_DMA_ADDR;
     e68:	2002e737          	lui	a4,0x2002e
     e6c:	80070713          	addi	a4,a4,-2048 # 2002d800 <endp1RTbuff+0xd600>
     e70:	cf98                	sw	a4,24(a5)
c:\Users\rui\Desktop\iphone_screen\wch\code\test_usb_hspi\test_usb_hspi\obj/../User/USB20/CH56x_usb20.c:157

	R16_UEP0_T_LEN = 0;
     e72:	06079823          	sh	zero,112(a5)
c:\Users\rui\Desktop\iphone_screen\wch\code\test_usb_hspi\test_usb_hspi\obj/../User/USB20/CH56x_usb20.c:158
	R8_UEP0_TX_CTRL = UEP_T_RES_NAK;
     e76:	4709                	li	a4,2
     e78:	06e78923          	sb	a4,114(a5)
c:\Users\rui\Desktop\iphone_screen\wch\code\test_usb_hspi\test_usb_hspi\obj/../User/USB20/CH56x_usb20.c:159
	R8_UEP0_RX_CTRL = 0;
     e7c:	060789a3          	sb	zero,115(a5)
c:\Users\rui\Desktop\iphone_screen\wch\code\test_usb_hspi\test_usb_hspi\obj/../User/USB20/CH56x_usb20.c:161

	R16_UEP1_T_LEN = 0;
     e80:	06079a23          	sh	zero,116(a5)
c:\Users\rui\Desktop\iphone_screen\wch\code\test_usb_hspi\test_usb_hspi\obj/../User/USB20/CH56x_usb20.c:162
	R8_UEP1_TX_CTRL = UEP_T_RES_ACK |RB_UEP_T_TOG_1;
     e84:	4721                	li	a4,8
     e86:	06e78b23          	sb	a4,118(a5)
c:\Users\rui\Desktop\iphone_screen\wch\code\test_usb_hspi\test_usb_hspi\obj/../User/USB20/CH56x_usb20.c:163
	R8_UEP1_RX_CTRL = UEP_R_RES_ACK |RB_UEP_R_TOG_0;
     e8a:	06078ba3          	sb	zero,119(a5)
c:\Users\rui\Desktop\iphone_screen\wch\code\test_usb_hspi\test_usb_hspi\obj/../User/USB20/CH56x_usb20.c:164
}
     e8e:	8082                	ret

00000e90 <USB20_Device_Init>:
USB20_Device_Init():
c:\Users\rui\Desktop\iphone_screen\wch\code\test_usb_hspi\test_usb_hspi\obj/../User/USB20/CH56x_usb20.c:181
{
    UINT16 i;
    UINT32 *p;
    if( sta )
    {
        R8_USB_CTRL = 0;
     e90:	400097b7          	lui	a5,0x40009
c:\Users\rui\Desktop\iphone_screen\wch\code\test_usb_hspi\test_usb_hspi\obj/../User/USB20/CH56x_usb20.c:179
    if( sta )
     e94:	cd01                	beqz	a0,eac <USB20_Device_Init+0x1c>
c:\Users\rui\Desktop\iphone_screen\wch\code\test_usb_hspi\test_usb_hspi\obj/../User/USB20/CH56x_usb20.c:181
        R8_USB_CTRL = 0;
     e96:	00078023          	sb	zero,0(a5) # 40009000 <endp1RTbuff+0x1ffe8e00>
c:\Users\rui\Desktop\iphone_screen\wch\code\test_usb_hspi\test_usb_hspi\obj/../User/USB20/CH56x_usb20.c:182
        R8_USB_CTRL =  UCST_HS | RB_DEV_PU_EN | RB_USB_INT_BUSY | RB_USB_DMA_EN;
     e9a:	03900713          	li	a4,57
     e9e:	00e78023          	sb	a4,0(a5)
c:\Users\rui\Desktop\iphone_screen\wch\code\test_usb_hspi\test_usb_hspi\obj/../User/USB20/CH56x_usb20.c:183
        R8_USB_INT_EN = RB_USB_IE_SETUPACT | RB_USB_IE_TRANS | RB_USB_IE_SUSPEND  | RB_USB_IE_BUSRST ;
     ea2:	02700713          	li	a4,39
     ea6:	00e78123          	sb	a4,2(a5)
c:\Users\rui\Desktop\iphone_screen\wch\code\test_usb_hspi\test_usb_hspi\obj/../User/USB20/CH56x_usb20.c:184
        USB20_Endp_Init( );
     eaa:	b779                	j	e38 <USB20_Endp_Init>
c:\Users\rui\Desktop\iphone_screen\wch\code\test_usb_hspi\test_usb_hspi\obj/../User/USB20/CH56x_usb20.c:188
    }
    else
    {
        R8_USB_CTRL = RB_USB_CLR_ALL | RB_USB_RESET_SIE;
     eac:	4719                	li	a4,6
     eae:	00e78023          	sb	a4,0(a5)
c:\Users\rui\Desktop\iphone_screen\wch\code\test_usb_hspi\test_usb_hspi\obj/../User/USB20/CH56x_usb20.c:190
    }
}
     eb2:	8082                	ret

00000eb4 <U20_Standard_Request_Deal>:
U20_Standard_Request_Deal():
c:\Users\rui\Desktop\iphone_screen\wch\code\test_usb_hspi\test_usb_hspi\obj/../User/USB20/CH56x_usb20.c:227
 * @brief    USB2.0 standard request deal
 *
 * @return   None
 */
UINT16 U20_Standard_Request_Deal( void )
{
     eb4:	1101                	addi	sp,sp,-32
     eb6:	cc22                	sw	s0,24(sp)
c:\Users\rui\Desktop\iphone_screen\wch\code\test_usb_hspi\test_usb_hspi\obj/../User/USB20/CH56x_usb20.c:230
  UINT16 len = 0;
  UINT8 endp_dir;
  SetupLen = 0;
     eb8:	83e18793          	addi	a5,gp,-1986 # 200000ee <SetupLen>
c:\Users\rui\Desktop\iphone_screen\wch\code\test_usb_hspi\test_usb_hspi\obj/../User/USB20/CH56x_usb20.c:227
{
     ebc:	ce06                	sw	ra,28(sp)
     ebe:	ca26                	sw	s1,20(sp)
     ec0:	c84a                	sw	s2,16(sp)
     ec2:	c64e                	sw	s3,12(sp)
c:\Users\rui\Desktop\iphone_screen\wch\code\test_usb_hspi\test_usb_hspi\obj/../User/USB20/CH56x_usb20.c:230
  SetupLen = 0;
     ec4:	00079023          	sh	zero,0(a5)
c:\Users\rui\Desktop\iphone_screen\wch\code\test_usb_hspi\test_usb_hspi\obj/../User/USB20/CH56x_usb20.c:232
  endp_dir = UsbSetupBuf->bRequestType & 0x80;
  switch( SetupReq )
     ec8:	8401c783          	lbu	a5,-1984(gp) # 200000f0 <SetupReq>
c:\Users\rui\Desktop\iphone_screen\wch\code\test_usb_hspi\test_usb_hspi\obj/../User/USB20/CH56x_usb20.c:231
  endp_dir = UsbSetupBuf->bRequestType & 0x80;
     ecc:	20020537          	lui	a0,0x20020
c:\Users\rui\Desktop\iphone_screen\wch\code\test_usb_hspi\test_usb_hspi\obj/../User/USB20/CH56x_usb20.c:232
  switch( SetupReq )
     ed0:	46ad                	li	a3,11
     ed2:	0ff7f793          	andi	a5,a5,255
c:\Users\rui\Desktop\iphone_screen\wch\code\test_usb_hspi\test_usb_hspi\obj/../User/USB20/CH56x_usb20.c:231
  endp_dir = UsbSetupBuf->bRequestType & 0x80;
     ed6:	00054703          	lbu	a4,0(a0) # 20020000 <endp0RTbuff>
c:\Users\rui\Desktop\iphone_screen\wch\code\test_usb_hspi\test_usb_hspi\obj/../User/USB20/CH56x_usb20.c:232
  switch( SetupReq )
     eda:	83e18413          	addi	s0,gp,-1986 # 200000ee <SetupLen>
     ede:	06f6ef63          	bltu	a3,a5,f5c <U20_Standard_Request_Deal+0xa8>
     ee2:	668d                	lui	a3,0x3
     ee4:	078a                	slli	a5,a5,0x2
     ee6:	ed068693          	addi	a3,a3,-304 # 2ed0 <StringProduct+0x74>
     eea:	97b6                	add	a5,a5,a3
     eec:	439c                	lw	a5,0(a5)
     eee:	8782                	jr	a5
c:\Users\rui\Desktop\iphone_screen\wch\code\test_usb_hspi\test_usb_hspi\obj/../User/USB20/CH56x_usb20.c:236
  {
    case USB_GET_DESCRIPTOR:
    {
        switch( UsbSetupBuf->wValueH )
     ef0:	00050693          	mv	a3,a0
     ef4:	0036c783          	lbu	a5,3(a3)
     ef8:	4609                	li	a2,2
     efa:	02c78b63          	beq	a5,a2,f30 <U20_Standard_Request_Deal+0x7c>
     efe:	458d                	li	a1,3
     f00:	04b78463          	beq	a5,a1,f48 <U20_Standard_Request_Deal+0x94>
     f04:	4685                	li	a3,1
     f06:	04d79b63          	bne	a5,a3,f5c <U20_Standard_Request_Deal+0xa8>
c:\Users\rui\Desktop\iphone_screen\wch\code\test_usb_hspi\test_usb_hspi\obj/../User/USB20/CH56x_usb20.c:239
        {
            case USB_DESCR_TYP_DEVICE:
                pDescr = (UINT8 *)hs_device_descriptor;
     f0a:	678d                	lui	a5,0x3
     f0c:	f2078793          	addi	a5,a5,-224 # 2f20 <hs_device_descriptor>
     f10:	84f1a423          	sw	a5,-1976(gp) # 200000f8 <pDescr>
c:\Users\rui\Desktop\iphone_screen\wch\code\test_usb_hspi\test_usb_hspi\obj/../User/USB20/CH56x_usb20.c:240
                SetupLen = ( SetupReqLen > sizeof( hs_device_descriptor ) )? sizeof( hs_device_descriptor ):SetupReqLen;
     f14:	84218693          	addi	a3,gp,-1982 # 200000f2 <SetupReqLen>
     f18:	0006d603          	lhu	a2,0(a3)
     f1c:	47c9                	li	a5,18
c:\Users\rui\Desktop\iphone_screen\wch\code\test_usb_hspi\test_usb_hspi\obj/../User/USB20/CH56x_usb20.c:260
                        pDescr = (UINT8 *)hs_string_descriptor1;
                        SetupLen = ( SetupReqLen > sizeof( hs_string_descriptor1 ) )? sizeof( hs_string_descriptor1 ):SetupReqLen;
                        break;
                    case USB_DESCR_PRODUCT_STRING:
                        pDescr =(UINT8 *) hs_string_descriptor2;
                        SetupLen = ( SetupReqLen > sizeof( hs_string_descriptor2 ) )? sizeof( hs_string_descriptor2 ):SetupReqLen;;
     f1e:	00c7e663          	bltu	a5,a2,f2a <U20_Standard_Request_Deal+0x76>
c:\Users\rui\Desktop\iphone_screen\wch\code\test_usb_hspi\test_usb_hspi\obj/../User/USB20/CH56x_usb20.c:260 (discriminator 1)
     f22:	0006d783          	lhu	a5,0(a3)
     f26:	07c2                	slli	a5,a5,0x10
     f28:	83c1                	srli	a5,a5,0x10
c:\Users\rui\Desktop\iphone_screen\wch\code\test_usb_hspi\test_usb_hspi\obj/../User/USB20/CH56x_usb20.c:429
                SetupLen = 1;
            }
        }
        break;
    default:
        SetupLen = USB_DESCR_UNSUPPORTED;
     f2a:	00f41023          	sh	a5,0(s0)
c:\Users\rui\Desktop\iphone_screen\wch\code\test_usb_hspi\test_usb_hspi\obj/../User/USB20/CH56x_usb20.c:430
        break;
     f2e:	a8bd                	j	fac <U20_Standard_Request_Deal+0xf8>
c:\Users\rui\Desktop\iphone_screen\wch\code\test_usb_hspi\test_usb_hspi\obj/../User/USB20/CH56x_usb20.c:243
                pDescr = (UINT8 *)hs_config_descriptor;
     f30:	678d                	lui	a5,0x3
     f32:	f0078793          	addi	a5,a5,-256 # 2f00 <hs_config_descriptor>
     f36:	84f1a423          	sw	a5,-1976(gp) # 200000f8 <pDescr>
c:\Users\rui\Desktop\iphone_screen\wch\code\test_usb_hspi\test_usb_hspi\obj/../User/USB20/CH56x_usb20.c:244
                SetupLen = ( SetupReqLen > sizeof( hs_config_descriptor ) )? sizeof( hs_config_descriptor ):SetupReqLen;
     f3a:	84218693          	addi	a3,gp,-1982 # 200000f2 <SetupReqLen>
     f3e:	0006d603          	lhu	a2,0(a3)
     f42:	02000793          	li	a5,32
     f46:	bfe1                	j	f1e <U20_Standard_Request_Deal+0x6a>
c:\Users\rui\Desktop\iphone_screen\wch\code\test_usb_hspi\test_usb_hspi\obj/../User/USB20/CH56x_usb20.c:247 (discriminator 1)
                switch( UsbSetupBuf->wValueL )
     f48:	0026c683          	lbu	a3,2(a3)
     f4c:	4585                	li	a1,1
     f4e:	02b68363          	beq	a3,a1,f74 <U20_Standard_Request_Deal+0xc0>
     f52:	c699                	beqz	a3,f60 <U20_Standard_Request_Deal+0xac>
     f54:	02c68a63          	beq	a3,a2,f88 <U20_Standard_Request_Deal+0xd4>
     f58:	04f68a63          	beq	a3,a5,fac <U20_Standard_Request_Deal+0xf8>
c:\Users\rui\Desktop\iphone_screen\wch\code\test_usb_hspi\test_usb_hspi\obj/../User/USB20/CH56x_usb20.c:429
        SetupLen = USB_DESCR_UNSUPPORTED;
     f5c:	57fd                	li	a5,-1
     f5e:	b7f1                	j	f2a <U20_Standard_Request_Deal+0x76>
c:\Users\rui\Desktop\iphone_screen\wch\code\test_usb_hspi\test_usb_hspi\obj/../User/USB20/CH56x_usb20.c:251
                        pDescr = (UINT8 *)hs_string_descriptor0;
     f60:	81418793          	addi	a5,gp,-2028 # 200000c4 <hs_string_descriptor0>
     f64:	84f1a423          	sw	a5,-1976(gp) # 200000f8 <pDescr>
c:\Users\rui\Desktop\iphone_screen\wch\code\test_usb_hspi\test_usb_hspi\obj/../User/USB20/CH56x_usb20.c:252
                        SetupLen = ( SetupReqLen > sizeof( hs_string_descriptor0 ) )? sizeof( hs_string_descriptor0 ):SetupReqLen;
     f68:	84218693          	addi	a3,gp,-1982 # 200000f2 <SetupReqLen>
     f6c:	0006d603          	lhu	a2,0(a3)
     f70:	4791                	li	a5,4
     f72:	b775                	j	f1e <U20_Standard_Request_Deal+0x6a>
c:\Users\rui\Desktop\iphone_screen\wch\code\test_usb_hspi\test_usb_hspi\obj/../User/USB20/CH56x_usb20.c:255
                        pDescr = (UINT8 *)hs_string_descriptor1;
     f74:	81818793          	addi	a5,gp,-2024 # 200000c8 <hs_string_descriptor1>
     f78:	84f1a423          	sw	a5,-1976(gp) # 200000f8 <pDescr>
c:\Users\rui\Desktop\iphone_screen\wch\code\test_usb_hspi\test_usb_hspi\obj/../User/USB20/CH56x_usb20.c:256
                        SetupLen = ( SetupReqLen > sizeof( hs_string_descriptor1 ) )? sizeof( hs_string_descriptor1 ):SetupReqLen;
     f7c:	84218693          	addi	a3,gp,-1982 # 200000f2 <SetupReqLen>
     f80:	0006d603          	lhu	a2,0(a3)
     f84:	47a1                	li	a5,8
     f86:	bf61                	j	f1e <U20_Standard_Request_Deal+0x6a>
c:\Users\rui\Desktop\iphone_screen\wch\code\test_usb_hspi\test_usb_hspi\obj/../User/USB20/CH56x_usb20.c:259
                        pDescr =(UINT8 *) hs_string_descriptor2;
     f88:	678d                	lui	a5,0x3
     f8a:	f3478793          	addi	a5,a5,-204 # 2f34 <hs_string_descriptor2>
     f8e:	84f1a423          	sw	a5,-1976(gp) # 200000f8 <pDescr>
c:\Users\rui\Desktop\iphone_screen\wch\code\test_usb_hspi\test_usb_hspi\obj/../User/USB20/CH56x_usb20.c:260
                        SetupLen = ( SetupReqLen > sizeof( hs_string_descriptor2 ) )? sizeof( hs_string_descriptor2 ):SetupReqLen;;
     f92:	84218693          	addi	a3,gp,-1982 # 200000f2 <SetupReqLen>
     f96:	0006d603          	lhu	a2,0(a3)
     f9a:	02600793          	li	a5,38
     f9e:	b741                	j	f1e <U20_Standard_Request_Deal+0x6a>
c:\Users\rui\Desktop\iphone_screen\wch\code\test_usb_hspi\test_usb_hspi\obj/../User/USB20/CH56x_usb20.c:276
        g_devInfo.dev_addr = UsbSetupBuf->wValueL;
     fa0:	00050793          	mv	a5,a0
     fa4:	0027c683          	lbu	a3,2(a5)
     fa8:	86d184a3          	sb	a3,-1943(gp) # 20000119 <g_devInfo+0x1>
c:\Users\rui\Desktop\iphone_screen\wch\code\test_usb_hspi\test_usb_hspi\obj/../User/USB20/CH56x_usb20.c:433
   }
  /* Judge whether it can be handled normally */
  if( ( SetupLen != USB_DESCR_UNSUPPORTED ) && ( SetupLen != 0 ) )
     fac:	00045683          	lhu	a3,0(s0)
     fb0:	67c1                	lui	a5,0x10
     fb2:	17fd                	addi	a5,a5,-1
c:\Users\rui\Desktop\iphone_screen\wch\code\test_usb_hspi\test_usb_hspi\obj/../User/USB20/CH56x_usb20.c:228
  UINT16 len = 0;
     fb4:	4481                	li	s1,0
c:\Users\rui\Desktop\iphone_screen\wch\code\test_usb_hspi\test_usb_hspi\obj/../User/USB20/CH56x_usb20.c:433
  if( ( SetupLen != USB_DESCR_UNSUPPORTED ) && ( SetupLen != 0 ) )
     fb6:	04d78b63          	beq	a5,a3,100c <U20_Standard_Request_Deal+0x158>
c:\Users\rui\Desktop\iphone_screen\wch\code\test_usb_hspi\test_usb_hspi\obj/../User/USB20/CH56x_usb20.c:433 (discriminator 1)
     fba:	00045783          	lhu	a5,0(s0)
     fbe:	07c2                	slli	a5,a5,0x10
     fc0:	83c1                	srli	a5,a5,0x10
     fc2:	c7a9                	beqz	a5,100c <U20_Standard_Request_Deal+0x158>
c:\Users\rui\Desktop\iphone_screen\wch\code\test_usb_hspi\test_usb_hspi\obj/../User/USB20/CH56x_usb20.c:435
  {
      len = ( SetupLen >= U20_UEP0_MAXSIZE ) ? U20_UEP0_MAXSIZE : SetupLen;
     fc4:	00045783          	lhu	a5,0(s0)
     fc8:	03f00693          	li	a3,63
     fcc:	04000493          	li	s1,64
     fd0:	00f6e663          	bltu	a3,a5,fdc <U20_Standard_Request_Deal+0x128>
c:\Users\rui\Desktop\iphone_screen\wch\code\test_usb_hspi\test_usb_hspi\obj/../User/USB20/CH56x_usb20.c:435 (discriminator 1)
     fd4:	00045483          	lhu	s1,0(s0)
     fd8:	04c2                	slli	s1,s1,0x10
     fda:	80c1                	srli	s1,s1,0x10
c:\Users\rui\Desktop\iphone_screen\wch\code\test_usb_hspi\test_usb_hspi\obj/../User/USB20/CH56x_usb20.c:436 (discriminator 4)
      if(endp_dir)
     fdc:	0762                	slli	a4,a4,0x18
     fde:	8761                	srai	a4,a4,0x18
     fe0:	00075f63          	bgez	a4,ffe <U20_Standard_Request_Deal+0x14a>
c:\Users\rui\Desktop\iphone_screen\wch\code\test_usb_hspi\test_usb_hspi\obj/../User/USB20/CH56x_usb20.c:438
      {
          memcpy( endp0RTbuff, pDescr, len );
     fe4:	84818913          	addi	s2,gp,-1976 # 200000f8 <pDescr>
     fe8:	00092983          	lw	s3,0(s2)
     fec:	8626                	mv	a2,s1
     fee:	00050513          	mv	a0,a0
     ff2:	85ce                	mv	a1,s3
c:\Users\rui\Desktop\iphone_screen\wch\code\test_usb_hspi\test_usb_hspi\obj/../User/USB20/CH56x_usb20.c:439
          pDescr += len;
     ff4:	99a6                	add	s3,s3,s1
c:\Users\rui\Desktop\iphone_screen\wch\code\test_usb_hspi\test_usb_hspi\obj/../User/USB20/CH56x_usb20.c:438
          memcpy( endp0RTbuff, pDescr, len );
     ff6:	227000ef          	jal	ra,1a1c <memcpy>
c:\Users\rui\Desktop\iphone_screen\wch\code\test_usb_hspi\test_usb_hspi\obj/../User/USB20/CH56x_usb20.c:439
          pDescr += len;
     ffa:	01392023          	sw	s3,0(s2)
c:\Users\rui\Desktop\iphone_screen\wch\code\test_usb_hspi\test_usb_hspi\obj/../User/USB20/CH56x_usb20.c:441
      }
      SetupLen -= len;
     ffe:	00045783          	lhu	a5,0(s0)
    1002:	8f85                	sub	a5,a5,s1
    1004:	07c2                	slli	a5,a5,0x10
    1006:	83c1                	srli	a5,a5,0x10
    1008:	00f41023          	sh	a5,0(s0)
c:\Users\rui\Desktop\iphone_screen\wch\code\test_usb_hspi\test_usb_hspi\obj/../User/USB20/CH56x_usb20.c:444
  }
   return len;
}
    100c:	40f2                	lw	ra,28(sp)
    100e:	4462                	lw	s0,24(sp)
    1010:	8526                	mv	a0,s1
    1012:	4942                	lw	s2,16(sp)
    1014:	44d2                	lw	s1,20(sp)
    1016:	49b2                	lw	s3,12(sp)
    1018:	6105                	addi	sp,sp,32
    101a:	8082                	ret
c:\Users\rui\Desktop\iphone_screen\wch\code\test_usb_hspi\test_usb_hspi\obj/../User/USB20/CH56x_usb20.c:279
        endp0RTbuff[ 0 ] = g_devInfo.dev_config_value;
    101c:	86a1c783          	lbu	a5,-1942(gp) # 2000011a <g_devInfo+0x2>
c:\Users\rui\Desktop\iphone_screen\wch\code\test_usb_hspi\test_usb_hspi\obj/../User/USB20/CH56x_usb20.c:399
                endp0RTbuff[ 0 ] = 0x01;
    1020:	00f50023          	sb	a5,0(a0)
c:\Users\rui\Desktop\iphone_screen\wch\code\test_usb_hspi\test_usb_hspi\obj/../User/USB20/CH56x_usb20.c:400
                SetupLen = 1;
    1024:	4785                	li	a5,1
    1026:	b711                	j	f2a <U20_Standard_Request_Deal+0x76>
c:\Users\rui\Desktop\iphone_screen\wch\code\test_usb_hspi\test_usb_hspi\obj/../User/USB20/CH56x_usb20.c:284
        if( ( R8_USB_SPD_TYPE & RB_USBSPEED_MASK )  == UST_FS )
    1028:	400096b7          	lui	a3,0x40009
    102c:	0086c783          	lbu	a5,8(a3) # 40009008 <endp1RTbuff+0x1ffe8e08>
    1030:	8b8d                	andi	a5,a5,3
    1032:	e39d                	bnez	a5,1058 <U20_Standard_Request_Deal+0x1a4>
c:\Users\rui\Desktop\iphone_screen\wch\code\test_usb_hspi\test_usb_hspi\obj/../User/USB20/CH56x_usb20.c:286
            U20_EndpnMaxSize = 64;
    1034:	200007b7          	lui	a5,0x20000
    1038:	04000693          	li	a3,64
c:\Users\rui\Desktop\iphone_screen\wch\code\test_usb_hspi\test_usb_hspi\obj/../User/USB20/CH56x_usb20.c:290
            U20_EndpnMaxSize = 8;
    103c:	0ad79823          	sh	a3,176(a5) # 200000b0 <U20_EndpnMaxSize>
c:\Users\rui\Desktop\iphone_screen\wch\code\test_usb_hspi\test_usb_hspi\obj/../User/USB20/CH56x_usb20.c:292
        g_devInfo.dev_config_value = UsbSetupBuf->wValueL;
    1040:	00050693          	mv	a3,a0
    1044:	0026c683          	lbu	a3,2(a3)
    1048:	86818793          	addi	a5,gp,-1944 # 20000118 <g_devInfo>
    104c:	00d78123          	sb	a3,2(a5)
c:\Users\rui\Desktop\iphone_screen\wch\code\test_usb_hspi\test_usb_hspi\obj/../User/USB20/CH56x_usb20.c:293
        g_devInfo.dev_enum_status = 0x01;
    1050:	4685                	li	a3,1
    1052:	00d78223          	sb	a3,4(a5)
c:\Users\rui\Desktop\iphone_screen\wch\code\test_usb_hspi\test_usb_hspi\obj/../User/USB20/CH56x_usb20.c:294
        break;
    1056:	bf99                	j	fac <U20_Standard_Request_Deal+0xf8>
c:\Users\rui\Desktop\iphone_screen\wch\code\test_usb_hspi\test_usb_hspi\obj/../User/USB20/CH56x_usb20.c:288
        else if( ( R8_USB_SPD_TYPE & RB_USBSPEED_MASK ) == UST_LS )
    1058:	0086c783          	lbu	a5,8(a3)
    105c:	4689                	li	a3,2
    105e:	8b8d                	andi	a5,a5,3
    1060:	fed790e3          	bne	a5,a3,1040 <U20_Standard_Request_Deal+0x18c>
c:\Users\rui\Desktop\iphone_screen\wch\code\test_usb_hspi\test_usb_hspi\obj/../User/USB20/CH56x_usb20.c:290
            U20_EndpnMaxSize = 8;
    1064:	200007b7          	lui	a5,0x20000
    1068:	46a1                	li	a3,8
    106a:	bfc9                	j	103c <U20_Standard_Request_Deal+0x188>
c:\Users\rui\Desktop\iphone_screen\wch\code\test_usb_hspi\test_usb_hspi\obj/../User/USB20/CH56x_usb20.c:296
        if( ( UsbSetupBuf->bRequestType & USB_REQ_RECIP_MASK ) == USB_REQ_RECIP_ENDP )
    106c:	01f77793          	andi	a5,a4,31
    1070:	4689                	li	a3,2
    1072:	04d79d63          	bne	a5,a3,10cc <U20_Standard_Request_Deal+0x218>
c:\Users\rui\Desktop\iphone_screen\wch\code\test_usb_hspi\test_usb_hspi\obj/../User/USB20/CH56x_usb20.c:298
            switch( UsbSetupBuf->wIndexL )
    1076:	00050693          	mv	a3,a0
    107a:	0046c683          	lbu	a3,4(a3)
    107e:	02f68b63          	beq	a3,a5,10b4 <U20_Standard_Request_Deal+0x200>
    1082:	00d7ea63          	bltu	a5,a3,1096 <U20_Standard_Request_Deal+0x1e2>
    1086:	4785                	li	a5,1
    1088:	ecf69ae3          	bne	a3,a5,f5c <U20_Standard_Request_Deal+0xa8>
c:\Users\rui\Desktop\iphone_screen\wch\code\test_usb_hspi\test_usb_hspi\obj/../User/USB20/CH56x_usb20.c:312
                    R8_UEP1_RX_CTRL = UEP_T_RES_ACK | RB_UEP_R_TOG_0;
    108c:	400097b7          	lui	a5,0x40009
    1090:	06078ba3          	sb	zero,119(a5) # 40009077 <endp1RTbuff+0x1ffe8e77>
c:\Users\rui\Desktop\iphone_screen\wch\code\test_usb_hspi\test_usb_hspi\obj/../User/USB20/CH56x_usb20.c:313
                    break;
    1094:	bf21                	j	fac <U20_Standard_Request_Deal+0xf8>
    1096:	08100613          	li	a2,129
    109a:	02c68263          	beq	a3,a2,10be <U20_Standard_Request_Deal+0x20a>
    109e:	08200613          	li	a2,130
    10a2:	eac69de3          	bne	a3,a2,f5c <U20_Standard_Request_Deal+0xa8>
c:\Users\rui\Desktop\iphone_screen\wch\code\test_usb_hspi\test_usb_hspi\obj/../User/USB20/CH56x_usb20.c:301
                    R16_UEP2_T_LEN= 0;
    10a6:	400096b7          	lui	a3,0x40009
    10aa:	06069c23          	sh	zero,120(a3) # 40009078 <endp1RTbuff+0x1ffe8e78>
c:\Users\rui\Desktop\iphone_screen\wch\code\test_usb_hspi\test_usb_hspi\obj/../User/USB20/CH56x_usb20.c:357
                        R8_UEP2_TX_CTRL = ( R8_UEP2_TX_CTRL & ~RB_UEP_TRES_MASK ) | UEP_T_RES_STALL;
    10ae:	06f68d23          	sb	a5,122(a3)
c:\Users\rui\Desktop\iphone_screen\wch\code\test_usb_hspi\test_usb_hspi\obj/../User/USB20/CH56x_usb20.c:358
                        break;
    10b2:	bded                	j	fac <U20_Standard_Request_Deal+0xf8>
c:\Users\rui\Desktop\iphone_screen\wch\code\test_usb_hspi\test_usb_hspi\obj/../User/USB20/CH56x_usb20.c:305
                    R8_UEP2_TX_CTRL = UEP_R_RES_ACK | RB_UEP_R_TOG_0;
    10b4:	400097b7          	lui	a5,0x40009
    10b8:	06078d23          	sb	zero,122(a5) # 4000907a <endp1RTbuff+0x1ffe8e7a>
c:\Users\rui\Desktop\iphone_screen\wch\code\test_usb_hspi\test_usb_hspi\obj/../User/USB20/CH56x_usb20.c:306
                    break;
    10bc:	bdc5                	j	fac <U20_Standard_Request_Deal+0xf8>
c:\Users\rui\Desktop\iphone_screen\wch\code\test_usb_hspi\test_usb_hspi\obj/../User/USB20/CH56x_usb20.c:308
                    R16_UEP1_T_LEN = 0;
    10be:	400096b7          	lui	a3,0x40009
    10c2:	06069a23          	sh	zero,116(a3) # 40009074 <endp1RTbuff+0x1ffe8e74>
c:\Users\rui\Desktop\iphone_screen\wch\code\test_usb_hspi\test_usb_hspi\obj/../User/USB20/CH56x_usb20.c:365
                        R8_UEP1_TX_CTRL = ( R8_UEP1_TX_CTRL & ~RB_UEP_TRES_MASK ) | UEP_T_RES_STALL;
    10c6:	06f68b23          	sb	a5,118(a3)
c:\Users\rui\Desktop\iphone_screen\wch\code\test_usb_hspi\test_usb_hspi\obj/../User/USB20/CH56x_usb20.c:366
                        break;
    10ca:	b5cd                	j	fac <U20_Standard_Request_Deal+0xf8>
c:\Users\rui\Desktop\iphone_screen\wch\code\test_usb_hspi\test_usb_hspi\obj/../User/USB20/CH56x_usb20.c:319
        else if( ( UsbSetupBuf->bRequestType & USB_REQ_RECIP_MASK ) == USB_REQ_RECIP_DEVICE )
    10cc:	e80798e3          	bnez	a5,f5c <U20_Standard_Request_Deal+0xa8>
c:\Users\rui\Desktop\iphone_screen\wch\code\test_usb_hspi\test_usb_hspi\obj/../User/USB20/CH56x_usb20.c:321
            if(  UsbSetupBuf->wValueL == 1 )
    10d0:	00050793          	mv	a5,a0
    10d4:	0027c683          	lbu	a3,2(a5)
    10d8:	4785                	li	a5,1
    10da:	ecf699e3          	bne	a3,a5,fac <U20_Standard_Request_Deal+0xf8>
c:\Users\rui\Desktop\iphone_screen\wch\code\test_usb_hspi\test_usb_hspi\obj/../User/USB20/CH56x_usb20.c:323
                g_devInfo.dev_sleep_status &= ~0x01;
    10de:	86818793          	addi	a5,gp,-1944 # 20000118 <g_devInfo>
    10e2:	0037c683          	lbu	a3,3(a5)
    10e6:	9af9                	andi	a3,a3,-2
    10e8:	00d781a3          	sb	a3,3(a5)
    10ec:	b5c1                	j	fac <U20_Standard_Request_Deal+0xf8>
c:\Users\rui\Desktop\iphone_screen\wch\code\test_usb_hspi\test_usb_hspi\obj/../User/USB20/CH56x_usb20.c:332
        if( ( UsbSetupBuf->bRequestType & 0x1F ) == 0x00 )
    10ee:	01f77693          	andi	a3,a4,31
    10f2:	e60685e3          	beqz	a3,f5c <U20_Standard_Request_Deal+0xa8>
c:\Users\rui\Desktop\iphone_screen\wch\code\test_usb_hspi\test_usb_hspi\obj/../User/USB20/CH56x_usb20.c:350
        else if( ( UsbSetupBuf->bRequestType & 0x1F ) == 0x02 )
    10f6:	4789                	li	a5,2
    10f8:	e6f692e3          	bne	a3,a5,f5c <U20_Standard_Request_Deal+0xa8>
c:\Users\rui\Desktop\iphone_screen\wch\code\test_usb_hspi\test_usb_hspi\obj/../User/USB20/CH56x_usb20.c:352
            if( UsbSetupBuf->wValueL == 0x00 )
    10fc:	00050793          	mv	a5,a0
    1100:	0027c603          	lbu	a2,2(a5)
    1104:	e4061ce3          	bnez	a2,f5c <U20_Standard_Request_Deal+0xa8>
c:\Users\rui\Desktop\iphone_screen\wch\code\test_usb_hspi\test_usb_hspi\obj/../User/USB20/CH56x_usb20.c:354
                switch( UsbSetupBuf->wIndexL )
    1108:	0047c783          	lbu	a5,4(a5)
    110c:	02d78f63          	beq	a5,a3,114a <U20_Standard_Request_Deal+0x296>
    1110:	00f6ee63          	bltu	a3,a5,112c <U20_Standard_Request_Deal+0x278>
    1114:	4685                	li	a3,1
    1116:	e4d793e3          	bne	a5,a3,f5c <U20_Standard_Request_Deal+0xa8>
c:\Users\rui\Desktop\iphone_screen\wch\code\test_usb_hspi\test_usb_hspi\obj/../User/USB20/CH56x_usb20.c:369
                        R8_UEP1_RX_CTRL = ( R8_UEP1_RX_CTRL & ~RB_UEP_RRES_MASK ) | UEP_R_RES_STALL;
    111a:	400096b7          	lui	a3,0x40009
    111e:	0776c783          	lbu	a5,119(a3) # 40009077 <endp1RTbuff+0x1ffe8e77>
    1122:	0037e793          	ori	a5,a5,3
    1126:	06f68ba3          	sb	a5,119(a3)
c:\Users\rui\Desktop\iphone_screen\wch\code\test_usb_hspi\test_usb_hspi\obj/../User/USB20/CH56x_usb20.c:370
                        break;
    112a:	b549                	j	fac <U20_Standard_Request_Deal+0xf8>
    112c:	08100693          	li	a3,129
    1130:	02d78663          	beq	a5,a3,115c <U20_Standard_Request_Deal+0x2a8>
    1134:	08200693          	li	a3,130
    1138:	e2d792e3          	bne	a5,a3,f5c <U20_Standard_Request_Deal+0xa8>
c:\Users\rui\Desktop\iphone_screen\wch\code\test_usb_hspi\test_usb_hspi\obj/../User/USB20/CH56x_usb20.c:357
                        R8_UEP2_TX_CTRL = ( R8_UEP2_TX_CTRL & ~RB_UEP_TRES_MASK ) | UEP_T_RES_STALL;
    113c:	400096b7          	lui	a3,0x40009
    1140:	07a6c783          	lbu	a5,122(a3) # 4000907a <endp1RTbuff+0x1ffe8e7a>
    1144:	0037e793          	ori	a5,a5,3
    1148:	b79d                	j	10ae <U20_Standard_Request_Deal+0x1fa>
c:\Users\rui\Desktop\iphone_screen\wch\code\test_usb_hspi\test_usb_hspi\obj/../User/USB20/CH56x_usb20.c:361
                        R8_UEP2_RX_CTRL = ( R8_UEP2_RX_CTRL & ~RB_UEP_RRES_MASK ) | UEP_R_RES_STALL;
    114a:	400096b7          	lui	a3,0x40009
    114e:	07b6c783          	lbu	a5,123(a3) # 4000907b <endp1RTbuff+0x1ffe8e7b>
    1152:	0037e793          	ori	a5,a5,3
    1156:	06f68da3          	sb	a5,123(a3)
c:\Users\rui\Desktop\iphone_screen\wch\code\test_usb_hspi\test_usb_hspi\obj/../User/USB20/CH56x_usb20.c:362
                        break;
    115a:	bd89                	j	fac <U20_Standard_Request_Deal+0xf8>
c:\Users\rui\Desktop\iphone_screen\wch\code\test_usb_hspi\test_usb_hspi\obj/../User/USB20/CH56x_usb20.c:365
                        R8_UEP1_TX_CTRL = ( R8_UEP1_TX_CTRL & ~RB_UEP_TRES_MASK ) | UEP_T_RES_STALL;
    115c:	400096b7          	lui	a3,0x40009
    1160:	0766c783          	lbu	a5,118(a3) # 40009076 <endp1RTbuff+0x1ffe8e76>
    1164:	0037e793          	ori	a5,a5,3
    1168:	bfb9                	j	10c6 <U20_Standard_Request_Deal+0x212>
c:\Users\rui\Desktop\iphone_screen\wch\code\test_usb_hspi\test_usb_hspi\obj/../User/USB20/CH56x_usb20.c:394
        SetupLen = 2;
    116a:	4789                	li	a5,2
    116c:	00f41023          	sh	a5,0(s0)
c:\Users\rui\Desktop\iphone_screen\wch\code\test_usb_hspi\test_usb_hspi\obj/../User/USB20/CH56x_usb20.c:395
        if( UsbSetupBuf->wIndexL == 0x81 )
    1170:	00050793          	mv	a5,a0
    1174:	0047c783          	lbu	a5,4(a5)
c:\Users\rui\Desktop\iphone_screen\wch\code\test_usb_hspi\test_usb_hspi\obj/../User/USB20/CH56x_usb20.c:392
        endp0RTbuff[ 0 ] = 0x00;
    1178:	00051023          	sh	zero,0(a0)
c:\Users\rui\Desktop\iphone_screen\wch\code\test_usb_hspi\test_usb_hspi\obj/../User/USB20/CH56x_usb20.c:395
        if( UsbSetupBuf->wIndexL == 0x81 )
    117c:	08100693          	li	a3,129
    1180:	00d79c63          	bne	a5,a3,1198 <U20_Standard_Request_Deal+0x2e4>
c:\Users\rui\Desktop\iphone_screen\wch\code\test_usb_hspi\test_usb_hspi\obj/../User/USB20/CH56x_usb20.c:397
            if( ( R8_UEP1_TX_CTRL & RB_UEP_TRES_MASK ) == UEP_T_RES_STALL )
    1184:	400097b7          	lui	a5,0x40009
    1188:	0767c783          	lbu	a5,118(a5) # 40009076 <endp1RTbuff+0x1ffe8e76>
    118c:	468d                	li	a3,3
    118e:	8b8d                	andi	a5,a5,3
    1190:	e0d79ee3          	bne	a5,a3,fac <U20_Standard_Request_Deal+0xf8>
c:\Users\rui\Desktop\iphone_screen\wch\code\test_usb_hspi\test_usb_hspi\obj/../User/USB20/CH56x_usb20.c:399
                endp0RTbuff[ 0 ] = 0x01;
    1194:	4785                	li	a5,1
    1196:	b569                	j	1020 <U20_Standard_Request_Deal+0x16c>
c:\Users\rui\Desktop\iphone_screen\wch\code\test_usb_hspi\test_usb_hspi\obj/../User/USB20/CH56x_usb20.c:403
        else if( UsbSetupBuf->wIndexL == 0x01 )
    1198:	4685                	li	a3,1
    119a:	00d79d63          	bne	a5,a3,11b4 <U20_Standard_Request_Deal+0x300>
c:\Users\rui\Desktop\iphone_screen\wch\code\test_usb_hspi\test_usb_hspi\obj/../User/USB20/CH56x_usb20.c:405
            if( ( R8_UEP1_RX_CTRL & RB_UEP_RRES_MASK ) == UEP_R_RES_STALL )
    119e:	400096b7          	lui	a3,0x40009
    11a2:	0776c683          	lbu	a3,119(a3) # 40009077 <endp1RTbuff+0x1ffe8e77>
    11a6:	460d                	li	a2,3
    11a8:	8a8d                	andi	a3,a3,3
    11aa:	e0c691e3          	bne	a3,a2,fac <U20_Standard_Request_Deal+0xf8>
c:\Users\rui\Desktop\iphone_screen\wch\code\test_usb_hspi\test_usb_hspi\obj/../User/USB20/CH56x_usb20.c:407
                endp0RTbuff[ 0 ] = 0x01;
    11ae:	00f50023          	sb	a5,0(a0)
c:\Users\rui\Desktop\iphone_screen\wch\code\test_usb_hspi\test_usb_hspi\obj/../User/USB20/CH56x_usb20.c:408
                SetupLen = 1;
    11b2:	bba5                	j	f2a <U20_Standard_Request_Deal+0x76>
c:\Users\rui\Desktop\iphone_screen\wch\code\test_usb_hspi\test_usb_hspi\obj/../User/USB20/CH56x_usb20.c:411
        else if( UsbSetupBuf->wIndexL == 0x82 )
    11b4:	08200613          	li	a2,130
    11b8:	00c79f63          	bne	a5,a2,11d6 <U20_Standard_Request_Deal+0x322>
c:\Users\rui\Desktop\iphone_screen\wch\code\test_usb_hspi\test_usb_hspi\obj/../User/USB20/CH56x_usb20.c:413
            if( ( R8_UEP2_TX_CTRL & RB_UEP_TRES_MASK ) == UEP_T_RES_STALL )
    11bc:	400097b7          	lui	a5,0x40009
    11c0:	07a7c783          	lbu	a5,122(a5) # 4000907a <endp1RTbuff+0x1ffe8e7a>
c:\Users\rui\Desktop\iphone_screen\wch\code\test_usb_hspi\test_usb_hspi\obj/../User/USB20/CH56x_usb20.c:421
            if( ( R8_UEP2_RX_CTRL & RB_UEP_RRES_MASK ) == UEP_R_RES_STALL )
    11c4:	8b8d                	andi	a5,a5,3
    11c6:	460d                	li	a2,3
    11c8:	dec792e3          	bne	a5,a2,fac <U20_Standard_Request_Deal+0xf8>
c:\Users\rui\Desktop\iphone_screen\wch\code\test_usb_hspi\test_usb_hspi\obj/../User/USB20/CH56x_usb20.c:423
                endp0RTbuff[ 0 ] = 0x01;
    11cc:	00d50023          	sb	a3,0(a0)
c:\Users\rui\Desktop\iphone_screen\wch\code\test_usb_hspi\test_usb_hspi\obj/../User/USB20/CH56x_usb20.c:424
                SetupLen = 1;
    11d0:	00d41023          	sh	a3,0(s0)
    11d4:	bbe1                	j	fac <U20_Standard_Request_Deal+0xf8>
c:\Users\rui\Desktop\iphone_screen\wch\code\test_usb_hspi\test_usb_hspi\obj/../User/USB20/CH56x_usb20.c:419
        else if( UsbSetupBuf->wIndexL == 0x02 )
    11d6:	4609                	li	a2,2
    11d8:	dcc79ae3          	bne	a5,a2,fac <U20_Standard_Request_Deal+0xf8>
c:\Users\rui\Desktop\iphone_screen\wch\code\test_usb_hspi\test_usb_hspi\obj/../User/USB20/CH56x_usb20.c:421
            if( ( R8_UEP2_RX_CTRL & RB_UEP_RRES_MASK ) == UEP_R_RES_STALL )
    11dc:	400097b7          	lui	a5,0x40009
    11e0:	07b7c783          	lbu	a5,123(a5) # 4000907b <endp1RTbuff+0x1ffe8e7b>
    11e4:	b7c5                	j	11c4 <U20_Standard_Request_Deal+0x310>

000011e6 <U20_Endp0_IN_Callback>:
U20_Endp0_IN_Callback():
c:\Users\rui\Desktop\iphone_screen\wch\code\test_usb_hspi\test_usb_hspi\obj/../User/USB20/CH56x_usb20.c:754
 * @return   None
 */
UINT16 U20_Endp0_IN_Callback( void )
{
    UINT16 len = 0;
    switch( SetupReq )
    11e6:	8401c783          	lbu	a5,-1984(gp) # 200000f0 <SetupReq>
c:\Users\rui\Desktop\iphone_screen\wch\code\test_usb_hspi\test_usb_hspi\obj/../User/USB20/CH56x_usb20.c:752
{
    11ea:	1101                	addi	sp,sp,-32
    11ec:	ce06                	sw	ra,28(sp)
    11ee:	cc22                	sw	s0,24(sp)
    11f0:	ca26                	sw	s1,20(sp)
    11f2:	c84a                	sw	s2,16(sp)
    11f4:	c64e                	sw	s3,12(sp)
c:\Users\rui\Desktop\iphone_screen\wch\code\test_usb_hspi\test_usb_hspi\obj/../User/USB20/CH56x_usb20.c:754
    switch( SetupReq )
    11f6:	0ff7f793          	andi	a5,a5,255
    11fa:	4715                	li	a4,5
    11fc:	06e78463          	beq	a5,a4,1264 <U20_Endp0_IN_Callback+0x7e>
    1200:	4719                	li	a4,6
c:\Users\rui\Desktop\iphone_screen\wch\code\test_usb_hspi\test_usb_hspi\obj/../User/USB20/CH56x_usb20.c:753
    UINT16 len = 0;
    1202:	4401                	li	s0,0
    1204:	04e79863          	bne	a5,a4,1254 <U20_Endp0_IN_Callback+0x6e>
c:\Users\rui\Desktop\iphone_screen\wch\code\test_usb_hspi\test_usb_hspi\obj/../User/USB20/CH56x_usb20.c:757
    {
      case USB_GET_DESCRIPTOR:
          len = SetupLen >= U20_UEP0_MAXSIZE ? U20_UEP0_MAXSIZE : SetupLen;
    1208:	83e18793          	addi	a5,gp,-1986 # 200000ee <SetupLen>
    120c:	0007d783          	lhu	a5,0(a5)
    1210:	03f00713          	li	a4,63
    1214:	83e18493          	addi	s1,gp,-1986 # 200000ee <SetupLen>
    1218:	04000413          	li	s0,64
    121c:	00f76663          	bltu	a4,a5,1228 <U20_Endp0_IN_Callback+0x42>
    1220:	0004d403          	lhu	s0,0(s1)
    1224:	0442                	slli	s0,s0,0x10
    1226:	8041                	srli	s0,s0,0x10
c:\Users\rui\Desktop\iphone_screen\wch\code\test_usb_hspi\test_usb_hspi\obj/../User/USB20/CH56x_usb20.c:758
          memcpy( endp0RTbuff, pDescr, len );
    1228:	84818913          	addi	s2,gp,-1976 # 200000f8 <pDescr>
    122c:	00092983          	lw	s3,0(s2)
    1230:	20020537          	lui	a0,0x20020
    1234:	8622                	mv	a2,s0
    1236:	85ce                	mv	a1,s3
    1238:	00050513          	mv	a0,a0
    123c:	7e0000ef          	jal	ra,1a1c <memcpy>
c:\Users\rui\Desktop\iphone_screen\wch\code\test_usb_hspi\test_usb_hspi\obj/../User/USB20/CH56x_usb20.c:759
          SetupLen -= len;
    1240:	0004d783          	lhu	a5,0(s1)
c:\Users\rui\Desktop\iphone_screen\wch\code\test_usb_hspi\test_usb_hspi\obj/../User/USB20/CH56x_usb20.c:760
          pDescr += len;
    1244:	99a2                	add	s3,s3,s0
    1246:	01392023          	sw	s3,0(s2)
c:\Users\rui\Desktop\iphone_screen\wch\code\test_usb_hspi\test_usb_hspi\obj/../User/USB20/CH56x_usb20.c:759
          SetupLen -= len;
    124a:	8f81                	sub	a5,a5,s0
    124c:	07c2                	slli	a5,a5,0x10
    124e:	83c1                	srli	a5,a5,0x10
    1250:	00f49023          	sh	a5,0(s1)
c:\Users\rui\Desktop\iphone_screen\wch\code\test_usb_hspi\test_usb_hspi\obj/../User/USB20/CH56x_usb20.c:769
          break;
      default:
          break;
    }
    return len;
}
    1254:	8522                	mv	a0,s0
    1256:	40f2                	lw	ra,28(sp)
    1258:	4462                	lw	s0,24(sp)
    125a:	44d2                	lw	s1,20(sp)
    125c:	4942                	lw	s2,16(sp)
    125e:	49b2                	lw	s3,12(sp)
    1260:	6105                	addi	sp,sp,32
    1262:	8082                	ret
c:\Users\rui\Desktop\iphone_screen\wch\code\test_usb_hspi\test_usb_hspi\obj/../User/USB20/CH56x_usb20.c:763
          USB20_Device_Setaddress( g_devInfo.dev_addr );
    1264:	8691c703          	lbu	a4,-1943(gp) # 20000119 <g_devInfo+0x1>
USB20_Device_Setaddress():
c:\Users\rui\Desktop\iphone_screen\wch\code\test_usb_hspi\test_usb_hspi\obj/../User/USB20/CH56x_usb20.c:203
    R8_USB_DEV_AD = address; // SET ADDRESS
    1268:	400097b7          	lui	a5,0x40009
U20_Endp0_IN_Callback():
c:\Users\rui\Desktop\iphone_screen\wch\code\test_usb_hspi\test_usb_hspi\obj/../User/USB20/CH56x_usb20.c:753
    UINT16 len = 0;
    126c:	4401                	li	s0,0
USB20_Device_Setaddress():
c:\Users\rui\Desktop\iphone_screen\wch\code\test_usb_hspi\test_usb_hspi\obj/../User/USB20/CH56x_usb20.c:203
    R8_USB_DEV_AD = address; // SET ADDRESS
    126e:	00e781a3          	sb	a4,3(a5) # 40009003 <endp1RTbuff+0x1ffe8e03>
    1272:	b7cd                	j	1254 <U20_Endp0_IN_Callback+0x6e>

00001274 <USBHS_IRQHandler>:
USBHS_IRQHandler():
c:\Users\rui\Desktop\iphone_screen\wch\code\test_usb_hspi\test_usb_hspi\obj/../User/USB20/CH56x_usb20.c:454
{
    1274:	1141                	addi	sp,sp,-16
    1276:	c622                	sw	s0,12(sp)
c:\Users\rui\Desktop\iphone_screen\wch\code\test_usb_hspi\test_usb_hspi\obj/../User/USB20/CH56x_usb20.c:468
	int_flg = R8_USB_INT_FG;
    1278:	40009437          	lui	s0,0x40009
    127c:	00a44783          	lbu	a5,10(s0) # 4000900a <endp1RTbuff+0x1ffe8e0a>
    1280:	0ff7f793          	andi	a5,a5,255
c:\Users\rui\Desktop\iphone_screen\wch\code\test_usb_hspi\test_usb_hspi\obj/../User/USB20/CH56x_usb20.c:470
	if( int_flg & RB_USB_IF_SETUOACT )
    1284:	0207f713          	andi	a4,a5,32
    1288:	c72d                	beqz	a4,12f2 <USBHS_IRQHandler+0x7e>
c:\Users\rui\Desktop\iphone_screen\wch\code\test_usb_hspi\test_usb_hspi\obj/../User/USB20/CH56x_usb20.c:478
		 SetupReqType = UsbSetupBuf->bRequestType;
    128a:	200207b7          	lui	a5,0x20020
    128e:	0007c703          	lbu	a4,0(a5) # 20020000 <endp0RTbuff>
c:\Users\rui\Desktop\iphone_screen\wch\code\test_usb_hspi\test_usb_hspi\obj/../User/USB20/CH56x_usb20.c:479
		 SetupReq = UsbSetupBuf->bRequest;
    1292:	00078793          	mv	a5,a5
    1296:	0017c603          	lbu	a2,1(a5)
c:\Users\rui\Desktop\iphone_screen\wch\code\test_usb_hspi\test_usb_hspi\obj/../User/USB20/CH56x_usb20.c:478
		 SetupReqType = UsbSetupBuf->bRequestType;
    129a:	84e18223          	sb	a4,-1980(gp) # 200000f4 <SetupReqType>
c:\Users\rui\Desktop\iphone_screen\wch\code\test_usb_hspi\test_usb_hspi\obj/../User/USB20/CH56x_usb20.c:479
		 SetupReq = UsbSetupBuf->bRequest;
    129e:	84c18023          	sb	a2,-1984(gp) # 200000f0 <SetupReq>
c:\Users\rui\Desktop\iphone_screen\wch\code\test_usb_hspi\test_usb_hspi\obj/../User/USB20/CH56x_usb20.c:481
		 SetupReqLen = UsbSetupBuf->wLength;
    12a2:	0067d683          	lhu	a3,6(a5)
c:\Users\rui\Desktop\iphone_screen\wch\code\test_usb_hspi\test_usb_hspi\obj/../User/USB20/CH56x_usb20.c:484
		 if((UsbSetupBuf->bRequestType & USB_REQ_TYP_MASK) != USB_REQ_TYP_STANDARD)
    12a6:	06077713          	andi	a4,a4,96
c:\Users\rui\Desktop\iphone_screen\wch\code\test_usb_hspi\test_usb_hspi\obj/../User/USB20/CH56x_usb20.c:481
		 SetupReqLen = UsbSetupBuf->wLength;
    12aa:	84d19123          	sh	a3,-1982(gp) # 200000f2 <SetupReqLen>
c:\Users\rui\Desktop\iphone_screen\wch\code\test_usb_hspi\test_usb_hspi\obj/../User/USB20/CH56x_usb20.c:486
             ret_len =  U20_NonStandard_Request_Deal( );
    12ae:	4501                	li	a0,0
c:\Users\rui\Desktop\iphone_screen\wch\code\test_usb_hspi\test_usb_hspi\obj/../User/USB20/CH56x_usb20.c:484
		 if((UsbSetupBuf->bRequestType & USB_REQ_TYP_MASK) != USB_REQ_TYP_STANDARD)
    12b0:	e71d                	bnez	a4,12de <USBHS_IRQHandler+0x6a>
c:\Users\rui\Desktop\iphone_screen\wch\code\test_usb_hspi\test_usb_hspi\obj/../User/USB20/CH56x_usb20.c:490
             ret_len = U20_Standard_Request_Deal( );
    12b2:	3109                	jal	eb4 <U20_Standard_Request_Deal>
c:\Users\rui\Desktop\iphone_screen\wch\code\test_usb_hspi\test_usb_hspi\obj/../User/USB20/CH56x_usb20.c:493
		 if( ret_len == 0xFFFF )
    12b4:	67c1                	lui	a5,0x10
    12b6:	17fd                	addi	a5,a5,-1
    12b8:	02f51363          	bne	a0,a5,12de <USBHS_IRQHandler+0x6a>
c:\Users\rui\Desktop\iphone_screen\wch\code\test_usb_hspi\test_usb_hspi\obj/../User/USB20/CH56x_usb20.c:495
              R16_UEP0_T_LEN = 0;
    12bc:	06041823          	sh	zero,112(s0)
c:\Users\rui\Desktop\iphone_screen\wch\code\test_usb_hspi\test_usb_hspi\obj/../User/USB20/CH56x_usb20.c:496
              R8_UEP0_TX_CTRL = UEP_T_RES_STALL ;
    12c0:	478d                	li	a5,3
    12c2:	06f40923          	sb	a5,114(s0)
c:\Users\rui\Desktop\iphone_screen\wch\code\test_usb_hspi\test_usb_hspi\obj/../User/USB20/CH56x_usb20.c:497
              R8_UEP0_RX_CTRL = UEP_R_RES_STALL ;
    12c6:	06f409a3          	sb	a5,115(s0)
c:\Users\rui\Desktop\iphone_screen\wch\code\test_usb_hspi\test_usb_hspi\obj/../User/USB20/CH56x_usb20.c:506
		R8_USB_INT_FG = RB_USB_IF_SETUOACT;
    12ca:	400097b7          	lui	a5,0x40009
    12ce:	02000713          	li	a4,32
c:\Users\rui\Desktop\iphone_screen\wch\code\test_usb_hspi\test_usb_hspi\obj/../User/USB20/CH56x_usb20.c:719
		R8_USB_INT_FG = RB_USB_IF_TRANSFER;
    12d2:	00e78523          	sb	a4,10(a5) # 4000900a <endp1RTbuff+0x1ffe8e0a>
c:\Users\rui\Desktop\iphone_screen\wch\code\test_usb_hspi\test_usb_hspi\obj/../User/USB20/CH56x_usb20.c:742
}
    12d6:	4432                	lw	s0,12(sp)
    12d8:	0141                	addi	sp,sp,16
    12da:	30200073          	mret
c:\Users\rui\Desktop\iphone_screen\wch\code\test_usb_hspi\test_usb_hspi\obj/../User/USB20/CH56x_usb20.c:501
              R16_UEP0_T_LEN = ret_len;
    12de:	400097b7          	lui	a5,0x40009
    12e2:	06a79823          	sh	a0,112(a5) # 40009070 <endp1RTbuff+0x1ffe8e70>
c:\Users\rui\Desktop\iphone_screen\wch\code\test_usb_hspi\test_usb_hspi\obj/../User/USB20/CH56x_usb20.c:502
              R8_UEP0_TX_CTRL = UEP_T_RES_ACK | RB_UEP_T_TOG_1;
    12e6:	4721                	li	a4,8
    12e8:	06e78923          	sb	a4,114(a5)
c:\Users\rui\Desktop\iphone_screen\wch\code\test_usb_hspi\test_usb_hspi\obj/../User/USB20/CH56x_usb20.c:503
              R8_UEP0_RX_CTRL = UEP_R_RES_ACK | RB_UEP_R_TOG_1;
    12ec:	06e789a3          	sb	a4,115(a5)
    12f0:	bfe9                	j	12ca <USBHS_IRQHandler+0x56>
c:\Users\rui\Desktop\iphone_screen\wch\code\test_usb_hspi\test_usb_hspi\obj/../User/USB20/CH56x_usb20.c:509
	else if( int_flg & RB_USB_IF_TRANSFER )
    12f2:	0027f713          	andi	a4,a5,2
    12f6:	c371                	beqz	a4,13ba <USBHS_IRQHandler+0x146>
c:\Users\rui\Desktop\iphone_screen\wch\code\test_usb_hspi\test_usb_hspi\obj/../User/USB20/CH56x_usb20.c:512
		end_num =   R8_USB_INT_ST & 0xf;
    12f8:	00b44703          	lbu	a4,11(s0)
c:\Users\rui\Desktop\iphone_screen\wch\code\test_usb_hspi\test_usb_hspi\obj/../User/USB20/CH56x_usb20.c:513
		rx_token = ( R8_USB_INT_ST >> 4 ) & 0x3;
    12fc:	00b44783          	lbu	a5,11(s0)
c:\Users\rui\Desktop\iphone_screen\wch\code\test_usb_hspi\test_usb_hspi\obj/../User/USB20/CH56x_usb20.c:520
		switch( end_num )  /*Endpoint number*/
    1300:	8b3d                	andi	a4,a4,15
c:\Users\rui\Desktop\iphone_screen\wch\code\test_usb_hspi\test_usb_hspi\obj/../User/USB20/CH56x_usb20.c:513
		rx_token = ( R8_USB_INT_ST >> 4 ) & 0x3;
    1302:	0ff7f793          	andi	a5,a5,255
c:\Users\rui\Desktop\iphone_screen\wch\code\test_usb_hspi\test_usb_hspi\obj/../User/USB20/CH56x_usb20.c:520
		switch( end_num )  /*Endpoint number*/
    1306:	ef19                	bnez	a4,1324 <USBHS_IRQHandler+0xb0>
c:\Users\rui\Desktop\iphone_screen\wch\code\test_usb_hspi\test_usb_hspi\obj/../User/USB20/CH56x_usb20.c:513
		rx_token = ( R8_USB_INT_ST >> 4 ) & 0x3;
    1308:	8391                	srli	a5,a5,0x4
    130a:	8b8d                	andi	a5,a5,3
c:\Users\rui\Desktop\iphone_screen\wch\code\test_usb_hspi\test_usb_hspi\obj/../User/USB20/CH56x_usb20.c:523
                if( rx_token == PID_IN )
    130c:	4709                	li	a4,2
    130e:	02e79e63          	bne	a5,a4,134a <USBHS_IRQHandler+0xd6>
c:\Users\rui\Desktop\iphone_screen\wch\code\test_usb_hspi\test_usb_hspi\obj/../User/USB20/CH56x_usb20.c:525
                    ret_len = U20_Endp0_IN_Callback( );
    1312:	3dd1                	jal	11e6 <U20_Endp0_IN_Callback>
c:\Users\rui\Desktop\iphone_screen\wch\code\test_usb_hspi\test_usb_hspi\obj/../User/USB20/CH56x_usb20.c:527
                    if( ret_len == 0 )
    1314:	ed01                	bnez	a0,132c <USBHS_IRQHandler+0xb8>
c:\Users\rui\Desktop\iphone_screen\wch\code\test_usb_hspi\test_usb_hspi\obj/../User/USB20/CH56x_usb20.c:529
                        R8_UEP0_RX_CTRL = UEP_R_RES_ACK | RB_UEP_R_TOG_1;
    1316:	47a1                	li	a5,8
    1318:	06f409a3          	sb	a5,115(s0)
c:\Users\rui\Desktop\iphone_screen\wch\code\test_usb_hspi\test_usb_hspi\obj/../User/USB20/CH56x_usb20.c:530
                        R16_UEP0_T_LEN = 0;
    131c:	06041823          	sh	zero,112(s0)
c:\Users\rui\Desktop\iphone_screen\wch\code\test_usb_hspi\test_usb_hspi\obj/../User/USB20/CH56x_usb20.c:531
                        R8_UEP0_TX_CTRL = 0;
    1320:	06040923          	sb	zero,114(s0)
c:\Users\rui\Desktop\iphone_screen\wch\code\test_usb_hspi\test_usb_hspi\obj/../User/USB20/CH56x_usb20.c:719
		R8_USB_INT_FG = RB_USB_IF_TRANSFER;
    1324:	400097b7          	lui	a5,0x40009
    1328:	4709                	li	a4,2
    132a:	b765                	j	12d2 <USBHS_IRQHandler+0x5e>
c:\Users\rui\Desktop\iphone_screen\wch\code\test_usb_hspi\test_usb_hspi\obj/../User/USB20/CH56x_usb20.c:535
                        R16_UEP0_T_LEN = ret_len;
    132c:	06a41823          	sh	a0,112(s0)
c:\Users\rui\Desktop\iphone_screen\wch\code\test_usb_hspi\test_usb_hspi\obj/../User/USB20/CH56x_usb20.c:536
                        R8_UEP0_TX_CTRL ^= RB_UEP_T_TOG_1;
    1330:	07244783          	lbu	a5,114(s0)
    1334:	0087c793          	xori	a5,a5,8
    1338:	06f40923          	sb	a5,114(s0)
c:\Users\rui\Desktop\iphone_screen\wch\code\test_usb_hspi\test_usb_hspi\obj/../User/USB20/CH56x_usb20.c:537
                        R8_UEP0_TX_CTRL = ( R8_UEP0_TX_CTRL &~RB_UEP_TRES_MASK ) | UEP_T_RES_ACK ;
    133c:	07244783          	lbu	a5,114(s0)
    1340:	0fc7f793          	andi	a5,a5,252
    1344:	06f40923          	sb	a5,114(s0)
    1348:	bff1                	j	1324 <USBHS_IRQHandler+0xb0>
c:\Users\rui\Desktop\iphone_screen\wch\code\test_usb_hspi\test_usb_hspi\obj/../User/USB20/CH56x_usb20.c:540
                else if( rx_token == PID_OUT )
    134a:	ffe9                	bnez	a5,1324 <USBHS_IRQHandler+0xb0>
c:\Users\rui\Desktop\iphone_screen\wch\code\test_usb_hspi\test_usb_hspi\obj/../User/USB20/CH56x_usb20.c:542
                    SetupLen -= SetupLen > R16_USB_RX_LEN ? R16_USB_RX_LEN :SetupLen;
    134c:	83e18693          	addi	a3,gp,-1986 # 200000ee <SetupLen>
    1350:	00c45703          	lhu	a4,12(s0)
    1354:	0006d683          	lhu	a3,0(a3)
    1358:	83e18793          	addi	a5,gp,-1986 # 200000ee <SetupLen>
    135c:	04d77263          	bgeu	a4,a3,13a0 <USBHS_IRQHandler+0x12c>
c:\Users\rui\Desktop\iphone_screen\wch\code\test_usb_hspi\test_usb_hspi\obj/../User/USB20/CH56x_usb20.c:542 (discriminator 1)
    1360:	00c45703          	lhu	a4,12(s0)
c:\Users\rui\Desktop\iphone_screen\wch\code\test_usb_hspi\test_usb_hspi\obj/../User/USB20/CH56x_usb20.c:542 (discriminator 2)
    1364:	0007d683          	lhu	a3,0(a5) # 40009000 <endp1RTbuff+0x1ffe8e00>
    1368:	0742                	slli	a4,a4,0x10
    136a:	8341                	srli	a4,a4,0x10
    136c:	40e68733          	sub	a4,a3,a4
    1370:	0742                	slli	a4,a4,0x10
    1372:	8341                	srli	a4,a4,0x10
    1374:	00e79023          	sh	a4,0(a5)
c:\Users\rui\Desktop\iphone_screen\wch\code\test_usb_hspi\test_usb_hspi\obj/../User/USB20/CH56x_usb20.c:543 (discriminator 2)
                    if( SetupLen > 0 )
    1378:	0007d783          	lhu	a5,0(a5)
    137c:	07c2                	slli	a5,a5,0x10
    137e:	83c1                	srli	a5,a5,0x10
    1380:	c39d                	beqz	a5,13a6 <USBHS_IRQHandler+0x132>
c:\Users\rui\Desktop\iphone_screen\wch\code\test_usb_hspi\test_usb_hspi\obj/../User/USB20/CH56x_usb20.c:545
                       R8_UEP0_RX_CTRL ^= RB_UEP_R_TOG_1;
    1382:	400097b7          	lui	a5,0x40009
    1386:	0737c703          	lbu	a4,115(a5) # 40009073 <endp1RTbuff+0x1ffe8e73>
    138a:	00874713          	xori	a4,a4,8
    138e:	06e789a3          	sb	a4,115(a5)
c:\Users\rui\Desktop\iphone_screen\wch\code\test_usb_hspi\test_usb_hspi\obj/../User/USB20/CH56x_usb20.c:546
                       R8_UEP0_RX_CTRL = ( R8_UEP0_RX_CTRL &~ RB_UEP_RRES_MASK) | UEP_R_RES_ACK;
    1392:	0737c703          	lbu	a4,115(a5)
    1396:	0fc77713          	andi	a4,a4,252
    139a:	06e789a3          	sb	a4,115(a5)
    139e:	b759                	j	1324 <USBHS_IRQHandler+0xb0>
c:\Users\rui\Desktop\iphone_screen\wch\code\test_usb_hspi\test_usb_hspi\obj/../User/USB20/CH56x_usb20.c:542 (discriminator 2)
                    SetupLen -= SetupLen > R16_USB_RX_LEN ? R16_USB_RX_LEN :SetupLen;
    13a0:	0007d703          	lhu	a4,0(a5)
    13a4:	b7c1                	j	1364 <USBHS_IRQHandler+0xf0>
c:\Users\rui\Desktop\iphone_screen\wch\code\test_usb_hspi\test_usb_hspi\obj/../User/USB20/CH56x_usb20.c:552
                        R16_UEP0_T_LEN = 0;
    13a6:	400097b7          	lui	a5,0x40009
    13aa:	06079823          	sh	zero,112(a5) # 40009070 <endp1RTbuff+0x1ffe8e70>
c:\Users\rui\Desktop\iphone_screen\wch\code\test_usb_hspi\test_usb_hspi\obj/../User/USB20/CH56x_usb20.c:553
                        R8_UEP0_TX_CTRL = UEP_T_RES_ACK | RB_UEP_T_TOG_1;
    13ae:	4721                	li	a4,8
    13b0:	06e78923          	sb	a4,114(a5)
c:\Users\rui\Desktop\iphone_screen\wch\code\test_usb_hspi\test_usb_hspi\obj/../User/USB20/CH56x_usb20.c:554
                        R8_UEP0_RX_CTRL = 0 ;
    13b4:	060789a3          	sb	zero,115(a5)
    13b8:	b7b5                	j	1324 <USBHS_IRQHandler+0xb0>
c:\Users\rui\Desktop\iphone_screen\wch\code\test_usb_hspi\test_usb_hspi\obj/../User/USB20/CH56x_usb20.c:722
	else if( int_flg & RB_USB_IF_BUSRST )
    13ba:	0017f713          	andi	a4,a5,1
    13be:	cb29                	beqz	a4,1410 <USBHS_IRQHandler+0x19c>
c:\Users\rui\Desktop\iphone_screen\wch\code\test_usb_hspi\test_usb_hspi\obj/../User/USB20/CH56x_usb20.c:724
		USB20_Endp_Init( );
    13c0:	3ca5                	jal	e38 <USB20_Endp_Init>
c:\Users\rui\Desktop\iphone_screen\wch\code\test_usb_hspi\test_usb_hspi\obj/../User/USB20/CH56x_usb20.c:726
		R8_USB_INT_FG = RB_USB_IF_BUSRST;
    13c2:	4785                	li	a5,1
USB20_Device_Setaddress():
c:\Users\rui\Desktop\iphone_screen\wch\code\test_usb_hspi\test_usb_hspi\obj/../User/USB20/CH56x_usb20.c:203
    R8_USB_DEV_AD = address; // SET ADDRESS
    13c4:	000401a3          	sb	zero,3(s0)
USBHS_IRQHandler():
c:\Users\rui\Desktop\iphone_screen\wch\code\test_usb_hspi\test_usb_hspi\obj/../User/USB20/CH56x_usb20.c:726
		R8_USB_INT_FG = RB_USB_IF_BUSRST;
    13c8:	00f40523          	sb	a5,10(s0)
c:\Users\rui\Desktop\iphone_screen\wch\code\test_usb_hspi\test_usb_hspi\obj/../User/USB20/CH56x_usb20.c:727
        if( Link_Sta == LINK_STA_1 )
    13cc:	8281c783          	lbu	a5,-2008(gp) # 200000d8 <_edata>
    13d0:	4705                	li	a4,1
    13d2:	0ff7f793          	andi	a5,a5,255
    13d6:	f0e790e3          	bne	a5,a4,12d6 <USBHS_IRQHandler+0x62>
PFIC_EnableIRQ():
c:/Users/rui/Desktop/iphone_screen/wch/code/test_usb_hspi/test_usb_hspi/RVMSIS/core_riscv.h:131
    13da:	e000e737          	lui	a4,0xe000e
    13de:	001006b7          	lui	a3,0x100
    13e2:	10d72023          	sw	a3,256(a4) # e000e100 <endp1RTbuff+0xbffedf00>
    13e6:	002006b7          	lui	a3,0x200
    13ea:	10d72023          	sw	a3,256(a4)
    13ee:	000206b7          	lui	a3,0x20
    13f2:	10d72023          	sw	a3,256(a4)
USBHS_IRQHandler():
c:\Users\rui\Desktop\iphone_screen\wch\code\test_usb_hspi\test_usb_hspi\obj/../User/USB20/CH56x_usb20.c:733
            TMR0_TimerInit( 67000000 );/*About 0.5 seconds*/
    13f6:	03fe5537          	lui	a0,0x3fe5
c:\Users\rui\Desktop\iphone_screen\wch\code\test_usb_hspi\test_usb_hspi\obj/../User/USB20/CH56x_usb20.c:732
            R8_TMR0_INTER_EN = 1;
    13fa:	40002737          	lui	a4,0x40002
    13fe:	00f70123          	sb	a5,2(a4) # 40002002 <endp1RTbuff+0x1ffe1e02>
c:\Users\rui\Desktop\iphone_screen\wch\code\test_usb_hspi\test_usb_hspi\obj/../User/USB20/CH56x_usb20.c:733
            TMR0_TimerInit( 67000000 );/*About 0.5 seconds*/
    1402:	6c050513          	addi	a0,a0,1728 # 3fe56c0 <_data_lma+0x3fe264c>
    1406:	2509                	jal	1a08 <TMR0_TimerInit>
c:\Users\rui\Desktop\iphone_screen\wch\code\test_usb_hspi\test_usb_hspi\obj/../User/USB20/CH56x_usb20.c:734
            USB30D_init(ENABLE);
    1408:	4505                	li	a0,1
    140a:	a60ff0ef          	jal	ra,66a <USB30D_init>
    140e:	b5e1                	j	12d6 <USBHS_IRQHandler+0x62>
c:\Users\rui\Desktop\iphone_screen\wch\code\test_usb_hspi\test_usb_hspi\obj/../User/USB20/CH56x_usb20.c:738
	else if( int_flg & RB_USB_IF_SUSPEND )
    1410:	8b91                	andi	a5,a5,4
    1412:	ec0782e3          	beqz	a5,12d6 <USBHS_IRQHandler+0x62>
c:\Users\rui\Desktop\iphone_screen\wch\code\test_usb_hspi\test_usb_hspi\obj/../User/USB20/CH56x_usb20.c:740
		R8_USB_INT_FG = RB_USB_IF_SUSPEND;
    1416:	4791                	li	a5,4
    1418:	00f40523          	sb	a5,10(s0)
c:\Users\rui\Desktop\iphone_screen\wch\code\test_usb_hspi\test_usb_hspi\obj/../User/USB20/CH56x_usb20.c:742
}
    141c:	bd6d                	j	12d6 <USBHS_IRQHandler+0x62>

0000141e <hspi_init>:
hspi_init():
c:\Users\rui\Desktop\iphone_screen\wch\code\test_usb_hspi\test_usb_hspi\obj/../User/HSPI/hspi.c:12

void hspi_init(){
    // ++++++++++++++++++++++ HSPI GPIO initialization +++++++++++++++++++++

    //TX GPIO PA9 11 21 push-pull output
	R32_PA_DIR |= (1<<9) | (1<<11) | (1<<21);
    141e:	400017b7          	lui	a5,0x40001
    1422:	43b8                	lw	a4,64(a5)
    1424:	002016b7          	lui	a3,0x201
c:\Users\rui\Desktop\iphone_screen\wch\code\test_usb_hspi\test_usb_hspi\obj/../User/HSPI/hspi.c:8
void hspi_init(){
    1428:	1141                	addi	sp,sp,-16
c:\Users\rui\Desktop\iphone_screen\wch\code\test_usb_hspi\test_usb_hspi\obj/../User/HSPI/hspi.c:12
	R32_PA_DIR |= (1<<9) | (1<<11) | (1<<21);
    142a:	a0068693          	addi	a3,a3,-1536 # 200a00 <_data_lma+0x1fd98c>
c:\Users\rui\Desktop\iphone_screen\wch\code\test_usb_hspi\test_usb_hspi\obj/../User/HSPI/hspi.c:8
void hspi_init(){
    142e:	c606                	sw	ra,12(sp)
    1430:	c422                	sw	s0,8(sp)
c:\Users\rui\Desktop\iphone_screen\wch\code\test_usb_hspi\test_usb_hspi\obj/../User/HSPI/hspi.c:12
	R32_PA_DIR |= (1<<9) | (1<<11) | (1<<21);
    1432:	8f55                	or	a4,a4,a3
    1434:	c3b8                	sw	a4,64(a5)
c:\Users\rui\Desktop\iphone_screen\wch\code\test_usb_hspi\test_usb_hspi\obj/../User/HSPI/hspi.c:14
	//clk 16mA
	R32_PA_DRV |= (1<<11);
    1436:	4fb8                	lw	a4,88(a5)
    1438:	6685                	lui	a3,0x1
    143a:	80068693          	addi	a3,a3,-2048 # 800 <__stack_size>
    143e:	8f55                	or	a4,a4,a3
    1440:	cfb8                	sw	a4,88(a5)
c:\Users\rui\Desktop\iphone_screen\wch\code\test_usb_hspi\test_usb_hspi\obj/../User/HSPI/hspi.c:16
	//Rx GPIO PA10 push-pull output
	R32_PA_DIR |= (1<<10);
    1442:	43b8                	lw	a4,64(a5)
c:\Users\rui\Desktop\iphone_screen\wch\code\test_usb_hspi\test_usb_hspi\obj/../User/HSPI/hspi.c:19

	//configure HRTS(PB13,hd31) Push-pull output,16mA
	PIN_HRTS_HIGH( );
    1444:	6689                	lui	a3,0x2
c:\Users\rui\Desktop\iphone_screen\wch\code\test_usb_hspi\test_usb_hspi\obj/../User/HSPI/hspi.c:27
    R32_PB_PU &= ~(  1 << 13  );
    R32_PB_PD &= ~(  1 << 13  );

    // ++++++++++++++++++++++ HSPI initialization +++++++++++++++++++++

	R8_HSPI_CFG &= ~(RB_HSPI_HW_ACK); // no ack
    1446:	40006437          	lui	s0,0x40006
c:\Users\rui\Desktop\iphone_screen\wch\code\test_usb_hspi\test_usb_hspi\obj/../User/HSPI/hspi.c:16
	R32_PA_DIR |= (1<<10);
    144a:	40076713          	ori	a4,a4,1024
    144e:	c3b8                	sw	a4,64(a5)
c:\Users\rui\Desktop\iphone_screen\wch\code\test_usb_hspi\test_usb_hspi\obj/../User/HSPI/hspi.c:19
	PIN_HRTS_HIGH( );
    1450:	57b8                	lw	a4,104(a5)
c:\Users\rui\Desktop\iphone_screen\wch\code\test_usb_hspi\test_usb_hspi\obj/../User/HSPI/hspi.c:38
	// R8_HSPI_INT_EN |= RB_HSPI_IE_T_DONE;  // Tx packet Interupt
	R8_HSPI_INT_EN |= RB_HSPI_IE_R_DONE;  // Rx packet Interupt
	R8_HSPI_INT_EN |= RB_HSPI_IE_FIFO_OV;

	// get fifo write address 
	R32_HSPI_RX_ADDR0 = (UINT32)dma_fifo_peek_push_addr(0); // Get the first buffer address
    1452:	4501                	li	a0,0
c:\Users\rui\Desktop\iphone_screen\wch\code\test_usb_hspi\test_usb_hspi\obj/../User/HSPI/hspi.c:19
	PIN_HRTS_HIGH( );
    1454:	8f55                	or	a4,a4,a3
    1456:	d7b8                	sw	a4,104(a5)
c:\Users\rui\Desktop\iphone_screen\wch\code\test_usb_hspi\test_usb_hspi\obj/../User/HSPI/hspi.c:20
    R32_PB_DIR |= (  1 << 13  );
    1458:	53b8                	lw	a4,96(a5)
    145a:	8f55                	or	a4,a4,a3
    145c:	d3b8                	sw	a4,96(a5)
c:\Users\rui\Desktop\iphone_screen\wch\code\test_usb_hspi\test_usb_hspi\obj/../User/HSPI/hspi.c:21
    R32_PB_DRV |= (  1 << 13  );
    145e:	5fb8                	lw	a4,120(a5)
    1460:	8f55                	or	a4,a4,a3
    1462:	dfb8                	sw	a4,120(a5)
c:\Users\rui\Desktop\iphone_screen\wch\code\test_usb_hspi\test_usb_hspi\obj/../User/HSPI/hspi.c:22
    R32_PB_PU &= ~(  1 << 13  );
    1464:	5bb4                	lw	a3,112(a5)
    1466:	7779                	lui	a4,0xffffe
    1468:	177d                	addi	a4,a4,-1
    146a:	8ef9                	and	a3,a3,a4
    146c:	dbb4                	sw	a3,112(a5)
c:\Users\rui\Desktop\iphone_screen\wch\code\test_usb_hspi\test_usb_hspi\obj/../User/HSPI/hspi.c:23
    R32_PB_PD &= ~(  1 << 13  );
    146e:	5bf4                	lw	a3,116(a5)
    1470:	8f75                	and	a4,a4,a3
    1472:	dbf8                	sw	a4,116(a5)
c:\Users\rui\Desktop\iphone_screen\wch\code\test_usb_hspi\test_usb_hspi\obj/../User/HSPI/hspi.c:27
	R8_HSPI_CFG &= ~(RB_HSPI_HW_ACK); // no ack
    1474:	00044783          	lbu	a5,0(s0) # 40006000 <endp1RTbuff+0x1ffe5e00>
    1478:	07f7f793          	andi	a5,a5,127
    147c:	00f40023          	sb	a5,0(s0)
c:\Users\rui\Desktop\iphone_screen\wch\code\test_usb_hspi\test_usb_hspi\obj/../User/HSPI/hspi.c:28
	R8_HSPI_CFG |= RB_HSPI_DAT16_MOD; // 16bit data
    1480:	00044783          	lbu	a5,0(s0)
    1484:	0047e793          	ori	a5,a5,4
    1488:	00f40023          	sb	a5,0(s0)
c:\Users\rui\Desktop\iphone_screen\wch\code\test_usb_hspi\test_usb_hspi\obj/../User/HSPI/hspi.c:29
	R8_HSPI_CFG |= RB_HSPI_RX_TOG_EN; // 16bit data
    148c:	00044783          	lbu	a5,0(s0)
    1490:	0407e793          	ori	a5,a5,64
    1494:	00f40023          	sb	a5,0(s0)
c:\Users\rui\Desktop\iphone_screen\wch\code\test_usb_hspi\test_usb_hspi\obj/../User/HSPI/hspi.c:34
	R8_HSPI_INT_EN |= RB_HSPI_IE_R_DONE;  // Rx packet Interupt
    1498:	00244783          	lbu	a5,2(s0)
    149c:	0027e793          	ori	a5,a5,2
    14a0:	00f40123          	sb	a5,2(s0)
c:\Users\rui\Desktop\iphone_screen\wch\code\test_usb_hspi\test_usb_hspi\obj/../User/HSPI/hspi.c:35
	R8_HSPI_INT_EN |= RB_HSPI_IE_FIFO_OV;
    14a4:	00244783          	lbu	a5,2(s0)
    14a8:	0047e793          	ori	a5,a5,4
    14ac:	00f40123          	sb	a5,2(s0)
c:\Users\rui\Desktop\iphone_screen\wch\code\test_usb_hspi\test_usb_hspi\obj/../User/HSPI/hspi.c:38
	R32_HSPI_RX_ADDR0 = (UINT32)dma_fifo_peek_push_addr(0); // Get the first buffer address
    14b0:	249d                	jal	1716 <dma_fifo_peek_push_addr>
    14b2:	c448                	sw	a0,12(s0)
c:\Users\rui\Desktop\iphone_screen\wch\code\test_usb_hspi\test_usb_hspi\obj/../User/HSPI/hspi.c:39
	R32_HSPI_RX_ADDR1 = (UINT32)dma_fifo_peek_push_addr(1); // Get the second buffer address
    14b4:	4505                	li	a0,1
    14b6:	2485                	jal	1716 <dma_fifo_peek_push_addr>
    14b8:	c808                	sw	a0,16(s0)
c:\Users\rui\Desktop\iphone_screen\wch\code\test_usb_hspi\test_usb_hspi\obj/../User/HSPI/hspi.c:41

	R8_HSPI_CTRL &= ~(RB_HSPI_ALL_CLR|RB_HSPI_TRX_RST);  //Clear reset
    14ba:	00144783          	lbu	a5,1(s0)
PFIC_EnableIRQ():
c:/Users/rui/Desktop/iphone_screen/wch/code/test_usb_hspi/test_usb_hspi/RVMSIS/core_riscv.h:131
    14be:	10000737          	lui	a4,0x10000
hspi_init():
c:\Users\rui\Desktop\iphone_screen\wch\code\test_usb_hspi\test_usb_hspi\obj/../User/HSPI/hspi.c:41
    14c2:	0e77f793          	andi	a5,a5,231
    14c6:	00f400a3          	sb	a5,1(s0)
c:\Users\rui\Desktop\iphone_screen\wch\code\test_usb_hspi\test_usb_hspi\obj/../User/HSPI/hspi.c:42
	R8_HSPI_CTRL |= RB_HSPI_ENABLE | RB_HSPI_DMA_EN;
    14ca:	00144783          	lbu	a5,1(s0)
    14ce:	0037e793          	ori	a5,a5,3
    14d2:	00f400a3          	sb	a5,1(s0)
c:\Users\rui\Desktop\iphone_screen\wch\code\test_usb_hspi\test_usb_hspi\obj/../User/HSPI/hspi.c:44

	R8_HSPI_INT_FLAG = 0xF;
    14d6:	47bd                	li	a5,15
    14d8:	02f40423          	sb	a5,40(s0)
c:\Users\rui\Desktop\iphone_screen\wch\code\test_usb_hspi\test_usb_hspi\obj/../User/HSPI/hspi.c:46
	PFIC_EnableIRQ(HSPI_IRQn);
}
    14dc:	40b2                	lw	ra,12(sp)
    14de:	4422                	lw	s0,8(sp)
PFIC_EnableIRQ():
c:/Users/rui/Desktop/iphone_screen/wch/code/test_usb_hspi/test_usb_hspi/RVMSIS/core_riscv.h:131
    14e0:	e000e7b7          	lui	a5,0xe000e
    14e4:	10e7a023          	sw	a4,256(a5) # e000e100 <endp1RTbuff+0xbffedf00>
hspi_init():
c:\Users\rui\Desktop\iphone_screen\wch\code\test_usb_hspi\test_usb_hspi\obj/../User/HSPI/hspi.c:46
    14e8:	0141                	addi	sp,sp,16
    14ea:	8082                	ret

000014ec <HSPI_IRQHandler>:
HSPI_IRQHandler():
c:\Users\rui\Desktop\iphone_screen\wch\code\test_usb_hspi\test_usb_hspi\obj/../User/HSPI/hspi.c:49


void HSPI_IRQHandler(void){
    14ec:	1141                	addi	sp,sp,-16
    14ee:	c622                	sw	s0,12(sp)
c:\Users\rui\Desktop\iphone_screen\wch\code\test_usb_hspi\test_usb_hspi\obj/../User/HSPI/hspi.c:59



	static UINT32 Rx_Cnt = 0;

	if(R8_HSPI_INT_FLAG & RB_HSPI_IF_R_DONE){  //Single packet received completed
    14f0:	40006737          	lui	a4,0x40006
    14f4:	02874783          	lbu	a5,40(a4) # 40006028 <endp1RTbuff+0x1ffe5e28>
    14f8:	8b89                	andi	a5,a5,2
    14fa:	c3d5                	beqz	a5,159e <HSPI_IRQHandler+0xb2>
c:\Users\rui\Desktop\iphone_screen\wch\code\test_usb_hspi\test_usb_hspi\obj/../User/HSPI/hspi.c:60
		R8_HSPI_INT_FLAG = RB_HSPI_IF_R_DONE;  //Clear Interrupt
    14fc:	4789                	li	a5,2
    14fe:	02f70423          	sb	a5,40(a4)
c:\Users\rui\Desktop\iphone_screen\wch\code\test_usb_hspi\test_usb_hspi\obj/../User/HSPI/hspi.c:61
		Rx_Cnt++;
    1502:	84c18793          	addi	a5,gp,-1972 # 200000fc <Rx_Cnt.4056>
    1506:	4394                	lw	a3,0(a5)
    1508:	0685                	addi	a3,a3,1
    150a:	c394                	sw	a3,0(a5)
c:\Users\rui\Desktop\iphone_screen\wch\code\test_usb_hspi\test_usb_hspi\obj/../User/HSPI/hspi.c:66
		// printf("rx done int, rx_cnt: %d\n", Rx_Cnt);

		// dma_fifo_push();

        if(R8_HSPI_RTX_STATUS & RB_HSPI_CRC_ERR){  //CRC check err
    150c:	02974783          	lbu	a5,41(a4)
    1510:	8b89                	andi	a5,a5,2
    1512:	c791                	beqz	a5,151e <HSPI_IRQHandler+0x32>
c:\Users\rui\Desktop\iphone_screen\wch\code\test_usb_hspi\test_usb_hspi\obj/../User/HSPI/hspi.c:68
        	// R8_HSPI_CTRL &= ~RB_HSPI_ENABLE;
        	PRINT("\n--------\nCRC err\n");
    1514:	00003537          	lui	a0,0x3
    1518:	f5c50513          	addi	a0,a0,-164 # 2f5c <hs_string_descriptor2+0x28>
    151c:	2dd1                	jal	1bf0 <puts>
c:\Users\rui\Desktop\iphone_screen\wch\code\test_usb_hspi\test_usb_hspi\obj/../User/HSPI/hspi.c:71
        }

        if(R8_HSPI_RTX_STATUS & RB_HSPI_NUM_MIS){  // serial do not match
    151e:	400067b7          	lui	a5,0x40006
    1522:	0297c783          	lbu	a5,41(a5) # 40006029 <endp1RTbuff+0x1ffe5e29>
    1526:	8b91                	andi	a5,a5,4
    1528:	c791                	beqz	a5,1534 <HSPI_IRQHandler+0x48>
c:\Users\rui\Desktop\iphone_screen\wch\code\test_usb_hspi\test_usb_hspi\obj/../User/HSPI/hspi.c:72
        	PRINT("\n--------\nNUM_MIS err\n");
    152a:	00003537          	lui	a0,0x3
    152e:	f7050513          	addi	a0,a0,-144 # 2f70 <hs_string_descriptor2+0x3c>
    1532:	2d7d                	jal	1bf0 <puts>
c:\Users\rui\Desktop\iphone_screen\wch\code\test_usb_hspi\test_usb_hspi\obj/../User/HSPI/hspi.c:75
        }

		if((R8_HSPI_RTX_STATUS & (RB_HSPI_CRC_ERR|RB_HSPI_NUM_MIS))==0){ // data received successfully
    1534:	40006437          	lui	s0,0x40006
    1538:	02944783          	lbu	a5,41(s0) # 40006029 <endp1RTbuff+0x1ffe5e29>
    153c:	8b99                	andi	a5,a5,6
    153e:	efa9                	bnez	a5,1598 <HSPI_IRQHandler+0xac>
c:\Users\rui\Desktop\iphone_screen\wch\code\test_usb_hspi\test_usb_hspi\obj/../User/HSPI/hspi.c:76
			dma_fifo_push();
    1540:	2419                	jal	1746 <dma_fifo_push>
c:\Users\rui\Desktop\iphone_screen\wch\code\test_usb_hspi\test_usb_hspi\obj/../User/HSPI/hspi.c:79
			
			// next buffer is used by DMA, so we update the next next buffer address
			void* next_next_addr = dma_fifo_peek_push_addr(1); // Get the next next buffer address
    1542:	4505                	li	a0,1
    1544:	2ac9                	jal	1716 <dma_fifo_peek_push_addr>
c:\Users\rui\Desktop\iphone_screen\wch\code\test_usb_hspi\test_usb_hspi\obj/../User/HSPI/hspi.c:80
			if (next_next_addr == NULL){
    1546:	ed35                	bnez	a0,15c2 <HSPI_IRQHandler+0xd6>
c:\Users\rui\Desktop\iphone_screen\wch\code\test_usb_hspi\test_usb_hspi\obj/../User/HSPI/hspi.c:81
				PRINT("[ERROR] FIFO full\n");
    1548:	00003537          	lui	a0,0x3
    154c:	f8850513          	addi	a0,a0,-120 # 2f88 <hs_string_descriptor2+0x54>
    1550:	2545                	jal	1bf0 <puts>
c:\Users\rui\Desktop\iphone_screen\wch\code\test_usb_hspi\test_usb_hspi\obj/../User/HSPI/hspi.c:93
					R32_HSPI_RX_ADDR1 = (UINT32)next_next_addr;
				}
			}

			// if fifo almost full, set RTS high  
			if(hspi_receive_flag==1 && dma_fifo_peek_push_addr(3)==NULL){
    1552:	20000437          	lui	s0,0x20000
    1556:	0b240413          	addi	s0,s0,178 # 200000b2 <hspi_receive_flag>
    155a:	00044783          	lbu	a5,0(s0)
    155e:	4705                	li	a4,1
    1560:	00f71d63          	bne	a4,a5,157a <HSPI_IRQHandler+0x8e>
c:\Users\rui\Desktop\iphone_screen\wch\code\test_usb_hspi\test_usb_hspi\obj/../User/HSPI/hspi.c:93 (discriminator 1)
    1564:	450d                	li	a0,3
    1566:	2a45                	jal	1716 <dma_fifo_peek_push_addr>
    1568:	e909                	bnez	a0,157a <HSPI_IRQHandler+0x8e>
c:\Users\rui\Desktop\iphone_screen\wch\code\test_usb_hspi\test_usb_hspi\obj/../User/HSPI/hspi.c:94
				hspi_receive_flag = 0;
    156a:	00040023          	sb	zero,0(s0)
c:\Users\rui\Desktop\iphone_screen\wch\code\test_usb_hspi\test_usb_hspi\obj/../User/HSPI/hspi.c:95
				PIN_HRTS_HIGH(); // set RTS high, fifo full
    156e:	40001737          	lui	a4,0x40001
    1572:	573c                	lw	a5,104(a4)
    1574:	6689                	lui	a3,0x2
    1576:	8fd5                	or	a5,a5,a3
    1578:	d73c                	sw	a5,104(a4)
c:\Users\rui\Desktop\iphone_screen\wch\code\test_usb_hspi\test_usb_hspi\obj/../User/HSPI/hspi.c:98
			}

			if (usb_sending_flag==0){
    157a:	83c1c783          	lbu	a5,-1988(gp) # 200000ec <usb_sending_flag>
    157e:	0ff7f793          	andi	a5,a5,255
    1582:	eb99                	bnez	a5,1598 <HSPI_IRQHandler+0xac>
dma_fifo_is_empty():
c:/Users/rui/Desktop/iphone_screen/wch/code/test_usb_hspi/test_usb_hspi/User/dma_fifo.h:19
    return (data_count < DMA_FIFO_POP_BLOCKS); 
    1584:	8511c783          	lbu	a5,-1967(gp) # 20000101 <data_count>
    1588:	0ff7f793          	andi	a5,a5,255
HSPI_IRQHandler():
c:\Users\rui\Desktop\iphone_screen\wch\code\test_usb_hspi\test_usb_hspi\obj/../User/HSPI/hspi.c:99
				if(!dma_fifo_is_empty()){
    158c:	c791                	beqz	a5,1598 <HSPI_IRQHandler+0xac>
c:\Users\rui\Desktop\iphone_screen\wch\code\test_usb_hspi\test_usb_hspi\obj/../User/HSPI/hspi.c:100
					usb_sending_flag = 1;
    158e:	4785                	li	a5,1
    1590:	82f18e23          	sb	a5,-1988(gp) # 200000ec <usb_sending_flag>
c:\Users\rui\Desktop\iphone_screen\wch\code\test_usb_hspi\test_usb_hspi\obj/../User/HSPI/hspi.c:101
					usb_start_sending();
    1594:	fe2ff0ef          	jal	ra,d76 <usb_start_sending>
c:\Users\rui\Desktop\iphone_screen\wch\code\test_usb_hspi\test_usb_hspi\obj/../User/HSPI/hspi.c:109
		}


		}
	
		have_new_data = TRUE;
    1598:	4705                	li	a4,1
    159a:	84e18823          	sb	a4,-1968(gp) # 20000100 <have_new_data>
c:\Users\rui\Desktop\iphone_screen\wch\code\test_usb_hspi\test_usb_hspi\obj/../User/HSPI/hspi.c:112
	}

	if(R8_HSPI_INT_FLAG & RB_HSPI_IF_FIFO_OV){   //FIFO OV
    159e:	40006737          	lui	a4,0x40006
    15a2:	02874783          	lbu	a5,40(a4) # 40006028 <endp1RTbuff+0x1ffe5e28>
    15a6:	8b91                	andi	a5,a5,4
    15a8:	cb89                	beqz	a5,15ba <HSPI_IRQHandler+0xce>
c:\Users\rui\Desktop\iphone_screen\wch\code\test_usb_hspi\test_usb_hspi\obj/../User/HSPI/hspi.c:113
		R8_HSPI_INT_FLAG = RB_HSPI_IF_FIFO_OV;  //Clear Interrupt
    15aa:	4791                	li	a5,4
c:\Users\rui\Desktop\iphone_screen\wch\code\test_usb_hspi\test_usb_hspi\obj/../User/HSPI/hspi.c:114
		PRINT("FIFO OV\r\n");
    15ac:	00003537          	lui	a0,0x3
c:\Users\rui\Desktop\iphone_screen\wch\code\test_usb_hspi\test_usb_hspi\obj/../User/HSPI/hspi.c:113
		R8_HSPI_INT_FLAG = RB_HSPI_IF_FIFO_OV;  //Clear Interrupt
    15b0:	02f70423          	sb	a5,40(a4)
c:\Users\rui\Desktop\iphone_screen\wch\code\test_usb_hspi\test_usb_hspi\obj/../User/HSPI/hspi.c:114
		PRINT("FIFO OV\r\n");
    15b4:	f9c50513          	addi	a0,a0,-100 # 2f9c <hs_string_descriptor2+0x68>
    15b8:	2d25                	jal	1bf0 <puts>
c:\Users\rui\Desktop\iphone_screen\wch\code\test_usb_hspi\test_usb_hspi\obj/../User/HSPI/hspi.c:136
	// PFIC_EnableIRQ(USBSS_IRQn);
    // PFIC_EnableIRQ(LINK_IRQn);
    // PFIC_EnableIRQ(TMR0_IRQn);


}
    15ba:	4432                	lw	s0,12(sp)
    15bc:	0141                	addi	sp,sp,16
    15be:	30200073          	mret
c:\Users\rui\Desktop\iphone_screen\wch\code\test_usb_hspi\test_usb_hspi\obj/../User/HSPI/hspi.c:84
				if (R8_HSPI_RX_SC & RB_HSPI_RX_TOG){ // now dma is using addr1, so we update addr0
    15c2:	02b44783          	lbu	a5,43(s0)
    15c6:	8bc1                	andi	a5,a5,16
    15c8:	c399                	beqz	a5,15ce <HSPI_IRQHandler+0xe2>
c:\Users\rui\Desktop\iphone_screen\wch\code\test_usb_hspi\test_usb_hspi\obj/../User/HSPI/hspi.c:85
					R32_HSPI_RX_ADDR0 = (UINT32)next_next_addr;
    15ca:	c448                	sw	a0,12(s0)
    15cc:	b759                	j	1552 <HSPI_IRQHandler+0x66>
c:\Users\rui\Desktop\iphone_screen\wch\code\test_usb_hspi\test_usb_hspi\obj/../User/HSPI/hspi.c:88
					R32_HSPI_RX_ADDR1 = (UINT32)next_next_addr;
    15ce:	c808                	sw	a0,16(s0)
    15d0:	b749                	j	1552 <HSPI_IRQHandler+0x66>

000015d2 <DebugInit>:
DebugInit():
c:\Users\rui\Desktop\iphone_screen\wch\code\test_usb_hspi\test_usb_hspi\obj/../User/Main.c:16


void DebugInit(UINT32 baudrate){ //uart1
	UINT32 x;
	UINT32 t = 120000000;
	x = 10 * t * 2 / 16 / baudrate;
    15d2:	08f0d7b7          	lui	a5,0x8f0d
    15d6:	18078793          	addi	a5,a5,384 # 8f0d180 <_data_lma+0x8f0a10c>
    15da:	02a7d7b3          	divu	a5,a5,a0
c:\Users\rui\Desktop\iphone_screen\wch\code\test_usb_hspi\test_usb_hspi\obj/../User/Main.c:17
	x = ( x + 5 ) / 10;
    15de:	4529                	li	a0,10
c:\Users\rui\Desktop\iphone_screen\wch\code\test_usb_hspi\test_usb_hspi\obj/../User/Main.c:18
	R8_UART1_DIV = 1;
    15e0:	40003737          	lui	a4,0x40003
    15e4:	4685                	li	a3,1
    15e6:	40d70723          	sb	a3,1038(a4) # 4000340e <endp1RTbuff+0x1ffe320e>
c:\Users\rui\Desktop\iphone_screen\wch\code\test_usb_hspi\test_usb_hspi\obj/../User/Main.c:17
	x = ( x + 5 ) / 10;
    15ea:	0795                	addi	a5,a5,5
    15ec:	02a7d7b3          	divu	a5,a5,a0
c:\Users\rui\Desktop\iphone_screen\wch\code\test_usb_hspi\test_usb_hspi\obj/../User/Main.c:19
	R16_UART1_DL = x;
    15f0:	07c2                	slli	a5,a5,0x10
    15f2:	83c1                	srli	a5,a5,0x10
    15f4:	40f71623          	sh	a5,1036(a4)
c:\Users\rui\Desktop\iphone_screen\wch\code\test_usb_hspi\test_usb_hspi\obj/../User/Main.c:20
	R8_UART1_FCR = RB_FCR_FIFO_TRIG | RB_FCR_TX_FIFO_CLR | RB_FCR_RX_FIFO_CLR | RB_FCR_FIFO_EN;
    15f8:	fc700793          	li	a5,-57
    15fc:	40f70123          	sb	a5,1026(a4)
c:\Users\rui\Desktop\iphone_screen\wch\code\test_usb_hspi\test_usb_hspi\obj/../User/Main.c:21
	R8_UART1_LCR = RB_LCR_WORD_SZ;
    1600:	478d                	li	a5,3
    1602:	40f701a3          	sb	a5,1027(a4)
c:\Users\rui\Desktop\iphone_screen\wch\code\test_usb_hspi\test_usb_hspi\obj/../User/Main.c:22
	R8_UART1_IER = RB_IER_TXD_EN;
    1606:	04000793          	li	a5,64
    160a:	40f700a3          	sb	a5,1025(a4)
c:\Users\rui\Desktop\iphone_screen\wch\code\test_usb_hspi\test_usb_hspi\obj/../User/Main.c:23
	R32_PA_SMT |= (1<<8) |(1<<7);
    160e:	400017b7          	lui	a5,0x40001
    1612:	4ff8                	lw	a4,92(a5)
    1614:	18076713          	ori	a4,a4,384
    1618:	cff8                	sw	a4,92(a5)
c:\Users\rui\Desktop\iphone_screen\wch\code\test_usb_hspi\test_usb_hspi\obj/../User/Main.c:24
	R32_PA_DIR |= (1<<8);
    161a:	43b8                	lw	a4,64(a5)
    161c:	10076713          	ori	a4,a4,256
    1620:	c3b8                	sw	a4,64(a5)
c:\Users\rui\Desktop\iphone_screen\wch\code\test_usb_hspi\test_usb_hspi\obj/../User/Main.c:25
}
    1622:	8082                	ret

00001624 <main>:
main():
c:\Users\rui\Desktop\iphone_screen\wch\code\test_usb_hspi\test_usb_hspi\obj/../User/Main.c:28


int main( void ){
    1624:	1101                	addi	sp,sp,-32
    1626:	cc22                	sw	s0,24(sp)
c:\Users\rui\Desktop\iphone_screen\wch\code\test_usb_hspi\test_usb_hspi\obj/../User/Main.c:30

	SystemInit(120000000);
    1628:	07271437          	lui	s0,0x7271
    162c:	e0040513          	addi	a0,s0,-512 # 7270e00 <_data_lma+0x726dd8c>
c:\Users\rui\Desktop\iphone_screen\wch\code\test_usb_hspi\test_usb_hspi\obj/../User/Main.c:28
int main( void ){
    1630:	ce06                	sw	ra,28(sp)
    1632:	ca26                	sw	s1,20(sp)
    1634:	c84a                	sw	s2,16(sp)
    1636:	c64e                	sw	s3,12(sp)
    1638:	c452                	sw	s4,8(sp)
    163a:	c256                	sw	s5,4(sp)
c:\Users\rui\Desktop\iphone_screen\wch\code\test_usb_hspi\test_usb_hspi\obj/../User/Main.c:30
	SystemInit(120000000);
    163c:	2ca9                	jal	1896 <SystemInit>
c:\Users\rui\Desktop\iphone_screen\wch\code\test_usb_hspi\test_usb_hspi\obj/../User/Main.c:31
	Delay_Init(120000000);
    163e:	e0040513          	addi	a0,s0,-512
    1642:	26b9                	jal	1990 <Delay_Init>
c:\Users\rui\Desktop\iphone_screen\wch\code\test_usb_hspi\test_usb_hspi\obj/../User/Main.c:32
	DebugInit(115200);
    1644:	6571                	lui	a0,0x1c
    1646:	20050513          	addi	a0,a0,512 # 1c200 <_data_lma+0x1918c>
    164a:	3761                	jal	15d2 <DebugInit>
c:\Users\rui\Desktop\iphone_screen\wch\code\test_usb_hspi\test_usb_hspi\obj/../User/Main.c:33
	PRINT("\n\n\n\n\n\n\n++++++++++++++++\n");
    164c:	00003537          	lui	a0,0x3
    1650:	fa850513          	addi	a0,a0,-88 # 2fa8 <hs_string_descriptor2+0x74>
    1654:	2b71                	jal	1bf0 <puts>
c:\Users\rui\Desktop\iphone_screen\wch\code\test_usb_hspi\test_usb_hspi\obj/../User/Main.c:34
	PRINT("Start @ChipID=%08X\r\n", R8_CHIP_ID );
    1656:	40001437          	lui	s0,0x40001
    165a:	00144583          	lbu	a1,1(s0) # 40001001 <endp1RTbuff+0x1ffe0e01>
    165e:	00003537          	lui	a0,0x3
    1662:	fc050513          	addi	a0,a0,-64 # 2fc0 <hs_string_descriptor2+0x8c>
    1666:	21b5                	jal	1ad2 <iprintf>
c:\Users\rui\Desktop\iphone_screen\wch\code\test_usb_hspi\test_usb_hspi\obj/../User/Main.c:36

	dma_fifo_init();
    1668:	2045                	jal	1708 <dma_fifo_init>
c:\Users\rui\Desktop\iphone_screen\wch\code\test_usb_hspi\test_usb_hspi\obj/../User/Main.c:37
	hspi_init();
    166a:	3b55                	jal	141e <hspi_init>
c:\Users\rui\Desktop\iphone_screen\wch\code\test_usb_hspi\test_usb_hspi\obj/../User/Main.c:42

	// todo: check if this is needed


    R32_USB_CONTROL = 0;
    166c:	400097b7          	lui	a5,0x40009
    1670:	0007a023          	sw	zero,0(a5) # 40009000 <endp1RTbuff+0x1ffe8e00>
PFIC_EnableIRQ():
c:/Users/rui/Desktop/iphone_screen/wch/code/test_usb_hspi/test_usb_hspi/RVMSIS/core_riscv.h:131
    1674:	00100737          	lui	a4,0x100
    1678:	e000e7b7          	lui	a5,0xe000e
    167c:	10e7a023          	sw	a4,256(a5) # e000e100 <endp1RTbuff+0xbffedf00>
    1680:	00200737          	lui	a4,0x200
    1684:	10e7a023          	sw	a4,256(a5)
    1688:	00020737          	lui	a4,0x20
    168c:	10e7a023          	sw	a4,256(a5)
main():
c:\Users\rui\Desktop\iphone_screen\wch\code\test_usb_hspi\test_usb_hspi\obj/../User/Main.c:47
    PFIC_EnableIRQ(USBSS_IRQn);
    PFIC_EnableIRQ(LINK_IRQn);
	
    PFIC_EnableIRQ(TMR0_IRQn);
	R8_TMR0_INTER_EN = RB_TMR_IE_CYC_END;
    1690:	4905                	li	s2,1
    1692:	400027b7          	lui	a5,0x40002
c:\Users\rui\Desktop\iphone_screen\wch\code\test_usb_hspi\test_usb_hspi\obj/../User/Main.c:48
    TMR0_TimerInit( 67000000 );
    1696:	03fe5537          	lui	a0,0x3fe5
c:\Users\rui\Desktop\iphone_screen\wch\code\test_usb_hspi\test_usb_hspi\obj/../User/Main.c:47
	R8_TMR0_INTER_EN = RB_TMR_IE_CYC_END;
    169a:	01278123          	sb	s2,2(a5) # 40002002 <endp1RTbuff+0x1ffe1e02>
c:\Users\rui\Desktop\iphone_screen\wch\code\test_usb_hspi\test_usb_hspi\obj/../User/Main.c:48
    TMR0_TimerInit( 67000000 );
    169e:	6c050513          	addi	a0,a0,1728 # 3fe56c0 <_data_lma+0x3fe264c>
    16a2:	269d                	jal	1a08 <TMR0_TimerInit>
c:\Users\rui\Desktop\iphone_screen\wch\code\test_usb_hspi\test_usb_hspi\obj/../User/Main.c:49
	USB30D_init(ENABLE);
    16a4:	4505                	li	a0,1
    16a6:	fc5fe0ef          	jal	ra,66a <USB30D_init>
c:\Users\rui\Desktop\iphone_screen\wch\code\test_usb_hspi\test_usb_hspi\obj/../User/Main.c:55

    // Timer1_Init( 240000 );  /* 2ms */

    // HSPI_DataTrans( );

	mDelaymS(100);
    16aa:	06400513          	li	a0,100
c:\Users\rui\Desktop\iphone_screen\wch\code\test_usb_hspi\test_usb_hspi\obj/../User/Main.c:56
	hspi_receive_flag=1;
    16ae:	200004b7          	lui	s1,0x20000
c:\Users\rui\Desktop\iphone_screen\wch\code\test_usb_hspi\test_usb_hspi\obj/../User/Main.c:55
	mDelaymS(100);
    16b2:	2601                	jal	19b2 <mDelaymS>
c:\Users\rui\Desktop\iphone_screen\wch\code\test_usb_hspi\test_usb_hspi\obj/../User/Main.c:56
	hspi_receive_flag=1;
    16b4:	0b248923          	sb	s2,178(s1) # 200000b2 <hspi_receive_flag>
c:\Users\rui\Desktop\iphone_screen\wch\code\test_usb_hspi\test_usb_hspi\obj/../User/Main.c:57
	PIN_HRTS_LOW(); // set RTS low, fifo not full
    16b8:	547c                	lw	a5,108(s0)
    16ba:	6709                	lui	a4,0x2
c:\Users\rui\Desktop\iphone_screen\wch\code\test_usb_hspi\test_usb_hspi\obj/../User/Main.c:69
		// PFIC_DisableIRQ(LINK_IRQn);
		// PFIC_DisableIRQ(TMR0_IRQn);

		if(hspi_receive_flag==0 && dma_fifo_peek_push_addr(3)!=NULL){
			hspi_receive_flag = 1;
			PIN_HRTS_LOW();
    16bc:	400019b7          	lui	s3,0x40001
c:\Users\rui\Desktop\iphone_screen\wch\code\test_usb_hspi\test_usb_hspi\obj/../User/Main.c:57
	PIN_HRTS_LOW(); // set RTS low, fifo not full
    16c0:	8fd9                	or	a5,a5,a4
    16c2:	d47c                	sw	a5,108(s0)
c:\Users\rui\Desktop\iphone_screen\wch\code\test_usb_hspi\test_usb_hspi\obj/../User/Main.c:58
	usb_sending_flag = 0;
    16c4:	82018e23          	sb	zero,-1988(gp) # 200000ec <usb_sending_flag>
c:\Users\rui\Desktop\iphone_screen\wch\code\test_usb_hspi\test_usb_hspi\obj/../User/Main.c:69
			PIN_HRTS_LOW();
    16c8:	6a09                	lui	s4,0x2
c:\Users\rui\Desktop\iphone_screen\wch\code\test_usb_hspi\test_usb_hspi\obj/../User/Main.c:67
		if(hspi_receive_flag==0 && dma_fifo_peek_push_addr(3)!=NULL){
    16ca:	0b24c783          	lbu	a5,178(s1)
    16ce:	0ff7f793          	andi	a5,a5,255
    16d2:	ef81                	bnez	a5,16ea <main+0xc6>
c:\Users\rui\Desktop\iphone_screen\wch\code\test_usb_hspi\test_usb_hspi\obj/../User/Main.c:67 (discriminator 1)
    16d4:	450d                	li	a0,3
    16d6:	2081                	jal	1716 <dma_fifo_peek_push_addr>
    16d8:	c909                	beqz	a0,16ea <main+0xc6>
c:\Users\rui\Desktop\iphone_screen\wch\code\test_usb_hspi\test_usb_hspi\obj/../User/Main.c:68
			hspi_receive_flag = 1;
    16da:	0b248923          	sb	s2,178(s1)
c:\Users\rui\Desktop\iphone_screen\wch\code\test_usb_hspi\test_usb_hspi\obj/../User/Main.c:69
			PIN_HRTS_LOW();
    16de:	06c9a783          	lw	a5,108(s3) # 4000106c <endp1RTbuff+0x1ffe0e6c>
    16e2:	0147e7b3          	or	a5,a5,s4
    16e6:	06f9a623          	sw	a5,108(s3)
c:\Users\rui\Desktop\iphone_screen\wch\code\test_usb_hspi\test_usb_hspi\obj/../User/Main.c:72
		}

		if (usb_sending_flag==0){
    16ea:	83c1c783          	lbu	a5,-1988(gp) # 200000ec <usb_sending_flag>
    16ee:	0ff7f793          	andi	a5,a5,255
    16f2:	ffe1                	bnez	a5,16ca <main+0xa6>
dma_fifo_is_empty():
c:/Users/rui/Desktop/iphone_screen/wch/code/test_usb_hspi/test_usb_hspi/User/dma_fifo.h:19
    16f4:	8511c783          	lbu	a5,-1967(gp) # 20000101 <data_count>
    16f8:	0ff7f793          	andi	a5,a5,255
main():
c:\Users\rui\Desktop\iphone_screen\wch\code\test_usb_hspi\test_usb_hspi\obj/../User/Main.c:73
			if(!dma_fifo_is_empty()){
    16fc:	d7f9                	beqz	a5,16ca <main+0xa6>
c:\Users\rui\Desktop\iphone_screen\wch\code\test_usb_hspi\test_usb_hspi\obj/../User/Main.c:74
				usb_sending_flag = 1;
    16fe:	83218e23          	sb	s2,-1988(gp) # 200000ec <usb_sending_flag>
c:\Users\rui\Desktop\iphone_screen\wch\code\test_usb_hspi\test_usb_hspi\obj/../User/Main.c:75
				usb_start_sending();
    1702:	e74ff0ef          	jal	ra,d76 <usb_start_sending>
    1706:	b7d1                	j	16ca <main+0xa6>

00001708 <dma_fifo_init>:
dma_fifo_init():
c:\Users\rui\Desktop\iphone_screen\wch\code\test_usb_hspi\test_usb_hspi\obj/../User/dma_fifo.c:12
static inline uint32_t get_block_addr(uint8_t index) {
    return DMA_FIFO_BASE_ADDR + (index % DMA_FIFO_TOTAL_BLOCKS) * DMA_FIFO_BLOCK_SIZE;
}

void dma_fifo_init(void) {
    read_ind = 0;
    1708:	84018923          	sb	zero,-1966(gp) # 20000102 <read_ind>
c:\Users\rui\Desktop\iphone_screen\wch\code\test_usb_hspi\test_usb_hspi\obj/../User/dma_fifo.c:13
    write_ind = 0;
    170c:	840189a3          	sb	zero,-1965(gp) # 20000103 <write_ind>
c:\Users\rui\Desktop\iphone_screen\wch\code\test_usb_hspi\test_usb_hspi\obj/../User/dma_fifo.c:14
    data_count = 0;
    1710:	840188a3          	sb	zero,-1967(gp) # 20000101 <data_count>
c:\Users\rui\Desktop\iphone_screen\wch\code\test_usb_hspi\test_usb_hspi\obj/../User/dma_fifo.c:15
}
    1714:	8082                	ret

00001716 <dma_fifo_peek_push_addr>:
dma_fifo_peek_push_addr():
c:\Users\rui\Desktop\iphone_screen\wch\code\test_usb_hspi\test_usb_hspi\obj/../User/dma_fifo.c:21



// write
void* dma_fifo_peek_push_addr(uint8_t offset) {
    if ((data_count + (offset+1)*DMA_FIFO_PUSH_BLOCKS) > DMA_FIFO_TOTAL_BLOCKS) {
    1716:	8511c783          	lbu	a5,-1967(gp) # 20000101 <data_count>
    171a:	0505                	addi	a0,a0,1
    171c:	050a                	slli	a0,a0,0x2
    171e:	97aa                	add	a5,a5,a0
    1720:	06000713          	li	a4,96
    1724:	00f74f63          	blt	a4,a5,1742 <dma_fifo_peek_push_addr+0x2c>
c:\Users\rui\Desktop\iphone_screen\wch\code\test_usb_hspi\test_usb_hspi\obj/../User/dma_fifo.c:24
        return NULL;  // 
    }
    uint8_t target = (write_ind + offset*DMA_FIFO_PUSH_BLOCKS) % DMA_FIFO_TOTAL_BLOCKS;
    1728:	8531c783          	lbu	a5,-1965(gp) # 20000103 <write_ind>
    172c:	1571                	addi	a0,a0,-4
    172e:	953e                	add	a0,a0,a5
    1730:	02e56533          	rem	a0,a0,a4
get_block_addr():
c:\Users\rui\Desktop\iphone_screen\wch\code\test_usb_hspi\test_usb_hspi\obj/../User/dma_fifo.c:8
    return DMA_FIFO_BASE_ADDR + (index % DMA_FIFO_TOTAL_BLOCKS) * DMA_FIFO_BLOCK_SIZE;
    1734:	000807b7          	lui	a5,0x80
    1738:	08078793          	addi	a5,a5,128 # 80080 <_data_lma+0x7d00c>
    173c:	953e                	add	a0,a0,a5
    173e:	052a                	slli	a0,a0,0xa
dma_fifo_peek_push_addr():
c:\Users\rui\Desktop\iphone_screen\wch\code\test_usb_hspi\test_usb_hspi\obj/../User/dma_fifo.c:26
    void* addr = (void*)get_block_addr(target);
    return addr;
    1740:	8082                	ret
c:\Users\rui\Desktop\iphone_screen\wch\code\test_usb_hspi\test_usb_hspi\obj/../User/dma_fifo.c:22
        return NULL;  // 
    1742:	4501                	li	a0,0
c:\Users\rui\Desktop\iphone_screen\wch\code\test_usb_hspi\test_usb_hspi\obj/../User/dma_fifo.c:27
}
    1744:	8082                	ret

00001746 <dma_fifo_push>:
dma_fifo_is_full():
c:\Users\rui\Desktop\iphone_screen\wch\code\test_usb_hspi\test_usb_hspi\obj/../User/dma_fifo.h:23
inline uint8_t dma_fifo_is_empty(void) { // not enough for read
    return (data_count < DMA_FIFO_POP_BLOCKS); 
}

inline uint8_t dma_fifo_is_full(void) { // not enough for write
    return (data_count + DMA_FIFO_PUSH_BLOCKS) > DMA_FIFO_TOTAL_BLOCKS;
    1746:	85118793          	addi	a5,gp,-1967 # 20000101 <data_count>
    174a:	0007c703          	lbu	a4,0(a5)
dma_fifo_push():
c:\Users\rui\Desktop\iphone_screen\wch\code\test_usb_hspi\test_usb_hspi\obj/../User/dma_fifo.c:31


void dma_fifo_push(void) {
    if (!dma_fifo_is_full()) {
    174e:	05c00693          	li	a3,92
    1752:	02e6e463          	bltu	a3,a4,177a <dma_fifo_push+0x34>
c:\Users\rui\Desktop\iphone_screen\wch\code\test_usb_hspi\test_usb_hspi\obj/../User/dma_fifo.c:32
        write_ind = (write_ind + DMA_FIFO_PUSH_BLOCKS) % DMA_FIFO_TOTAL_BLOCKS;
    1756:	85318693          	addi	a3,gp,-1965 # 20000103 <write_ind>
    175a:	0006c703          	lbu	a4,0(a3) # 2000 <__sfmoreglue+0x1e>
    175e:	06000613          	li	a2,96
    1762:	0711                	addi	a4,a4,4
    1764:	02c76733          	rem	a4,a4,a2
    1768:	00e68023          	sb	a4,0(a3)
c:\Users\rui\Desktop\iphone_screen\wch\code\test_usb_hspi\test_usb_hspi\obj/../User/dma_fifo.c:33
        data_count += DMA_FIFO_PUSH_BLOCKS;
    176c:	0007c703          	lbu	a4,0(a5)
    1770:	0711                	addi	a4,a4,4
    1772:	0ff77713          	andi	a4,a4,255
    1776:	00e78023          	sb	a4,0(a5)
c:\Users\rui\Desktop\iphone_screen\wch\code\test_usb_hspi\test_usb_hspi\obj/../User/dma_fifo.c:35
    }
}
    177a:	8082                	ret

0000177c <dma_fifo_peek_pop_addr>:
dma_fifo_peek_pop_addr():
c:\Users\rui\Desktop\iphone_screen\wch\code\test_usb_hspi\test_usb_hspi\obj/../User/dma_fifo.c:39

// read
void* dma_fifo_peek_pop_addr(uint8_t offset) {
    if (data_count < ((offset+1)*DMA_FIFO_POP_BLOCKS)) {
    177c:	8511c783          	lbu	a5,-1967(gp) # 20000101 <data_count>
    1780:	02f57063          	bgeu	a0,a5,17a0 <dma_fifo_peek_pop_addr+0x24>
c:\Users\rui\Desktop\iphone_screen\wch\code\test_usb_hspi\test_usb_hspi\obj/../User/dma_fifo.c:42
        return NULL;  // 
    }
    uint8_t target = (read_ind + offset*DMA_FIFO_POP_BLOCKS) % DMA_FIFO_TOTAL_BLOCKS;
    1784:	8521c783          	lbu	a5,-1966(gp) # 20000102 <read_ind>
    1788:	953e                	add	a0,a0,a5
    178a:	06000793          	li	a5,96
    178e:	02f56533          	rem	a0,a0,a5
get_block_addr():
c:\Users\rui\Desktop\iphone_screen\wch\code\test_usb_hspi\test_usb_hspi\obj/../User/dma_fifo.c:8
    return DMA_FIFO_BASE_ADDR + (index % DMA_FIFO_TOTAL_BLOCKS) * DMA_FIFO_BLOCK_SIZE;
    1792:	000807b7          	lui	a5,0x80
    1796:	08078793          	addi	a5,a5,128 # 80080 <_data_lma+0x7d00c>
    179a:	953e                	add	a0,a0,a5
    179c:	052a                	slli	a0,a0,0xa
dma_fifo_peek_pop_addr():
c:\Users\rui\Desktop\iphone_screen\wch\code\test_usb_hspi\test_usb_hspi\obj/../User/dma_fifo.c:44
    void* addr = (void*)get_block_addr(target);
    return addr;
    179e:	8082                	ret
c:\Users\rui\Desktop\iphone_screen\wch\code\test_usb_hspi\test_usb_hspi\obj/../User/dma_fifo.c:40
        return NULL;  // 
    17a0:	4501                	li	a0,0
c:\Users\rui\Desktop\iphone_screen\wch\code\test_usb_hspi\test_usb_hspi\obj/../User/dma_fifo.c:45
}
    17a2:	8082                	ret

000017a4 <dma_fifo_pop>:
dma_fifo_is_empty():
c:\Users\rui\Desktop\iphone_screen\wch\code\test_usb_hspi\test_usb_hspi\obj/../User/dma_fifo.h:19
    return (data_count < DMA_FIFO_POP_BLOCKS); 
    17a4:	85118793          	addi	a5,gp,-1967 # 20000101 <data_count>
    17a8:	0007c703          	lbu	a4,0(a5)
    17ac:	0ff77713          	andi	a4,a4,255
dma_fifo_pop():
c:\Users\rui\Desktop\iphone_screen\wch\code\test_usb_hspi\test_usb_hspi\obj/../User/dma_fifo.c:48

void dma_fifo_pop(void) {
    if ( !dma_fifo_is_empty() ) {
    17b0:	c31d                	beqz	a4,17d6 <dma_fifo_pop+0x32>
c:\Users\rui\Desktop\iphone_screen\wch\code\test_usb_hspi\test_usb_hspi\obj/../User/dma_fifo.c:49
        read_ind = (read_ind + DMA_FIFO_POP_BLOCKS) % DMA_FIFO_TOTAL_BLOCKS;
    17b2:	85218693          	addi	a3,gp,-1966 # 20000102 <read_ind>
    17b6:	0006c703          	lbu	a4,0(a3)
    17ba:	06000613          	li	a2,96
    17be:	0705                	addi	a4,a4,1
    17c0:	02c76733          	rem	a4,a4,a2
    17c4:	00e68023          	sb	a4,0(a3)
c:\Users\rui\Desktop\iphone_screen\wch\code\test_usb_hspi\test_usb_hspi\obj/../User/dma_fifo.c:50
        data_count -= DMA_FIFO_POP_BLOCKS;
    17c8:	0007c703          	lbu	a4,0(a5)
    17cc:	177d                	addi	a4,a4,-1
    17ce:	0ff77713          	andi	a4,a4,255
    17d2:	00e78023          	sb	a4,0(a5)
c:\Users\rui\Desktop\iphone_screen\wch\code\test_usb_hspi\test_usb_hspi\obj/../User/dma_fifo.c:52
    }
}
    17d6:	8082                	ret

000017d8 <dma_fifo_check_pop_block_contiguous>:
dma_fifo_check_pop_block_contiguous():
c:\Users\rui\Desktop\iphone_screen\wch\code\test_usb_hspi\test_usb_hspi\obj/../User/dma_fifo.c:56

uint8_t dma_fifo_check_pop_block_contiguous(uint8_t max_check_blocks) {
    // return countiguous blocks available for pop
    if (data_count < max_check_blocks*DMA_FIFO_POP_BLOCKS) {
    17d8:	8511c783          	lbu	a5,-1967(gp) # 20000101 <data_count>
    17dc:	02a7e063          	bltu	a5,a0,17fc <dma_fifo_check_pop_block_contiguous+0x24>
c:\Users\rui\Desktop\iphone_screen\wch\code\test_usb_hspi\test_usb_hspi\obj/../User/dma_fifo.c:60
        return 0;  // no enough data
    }

    uint8_t to_memory_count = DMA_FIFO_TOTAL_BLOCKS - read_ind; // 
    17e0:	8521c703          	lbu	a4,-1966(gp) # 20000102 <read_ind>
    17e4:	06000793          	li	a5,96
    17e8:	8f99                	sub	a5,a5,a4
    17ea:	873e                	mv	a4,a5
    17ec:	0ff7f793          	andi	a5,a5,255
    17f0:	00f57363          	bgeu	a0,a5,17f6 <dma_fifo_check_pop_block_contiguous+0x1e>
    17f4:	872a                	mv	a4,a0
    17f6:	0ff77513          	andi	a0,a4,255
    17fa:	8082                	ret
c:\Users\rui\Desktop\iphone_screen\wch\code\test_usb_hspi\test_usb_hspi\obj/../User/dma_fifo.c:57
        return 0;  // no enough data
    17fc:	4501                	li	a0,0
c:\Users\rui\Desktop\iphone_screen\wch\code\test_usb_hspi\test_usb_hspi\obj/../User/dma_fifo.c:67
    if (to_memory_count >= max_check_blocks) {
        return max_check_blocks;  // 
    } else {
        return to_memory_count;  // 
    }
}
    17fe:	8082                	ret

00001800 <DVP_IRQHandler>:
GPIO_IRQHandler():
c:\Users\rui\Desktop\iphone_screen\wch\code\test_usb_hspi\test_usb_hspi\obj/../Startup/startup_CH56x.S:116
SERDES_IRQHandler:
ETH_IRQHandler:
PMT_IRQHandler:
ECDC_IRQHandler:
1:
	j 1b
    1800:	a001                	j	1800 <DVP_IRQHandler>

00001802 <handle_reset>:
handle_reset():
c:\Users\rui\Desktop\iphone_screen\wch\code\test_usb_hspi\test_usb_hspi\obj/../Startup/startup_CH56x.S:124
	.weak	handle_reset
	.align	1
handle_reset:
.option push 
.option	norelax 
	la gp, __global_pointer$
    1802:	1ffff197          	auipc	gp,0x1ffff
    1806:	0ae18193          	addi	gp,gp,174 # 200008b0 <__global_pointer$>
c:\Users\rui\Desktop\iphone_screen\wch\code\test_usb_hspi\test_usb_hspi\obj/../Startup/startup_CH56x.S:127
.option	pop 
1:
	la sp, _eusrstack 
    180a:	20002117          	auipc	sp,0x20002
    180e:	7f610113          	addi	sp,sp,2038 # 20004000 <_eusrstack>
c:\Users\rui\Desktop\iphone_screen\wch\code\test_usb_hspi\test_usb_hspi\obj/../Startup/startup_CH56x.S:130
2:	
/* Load data section from flash to RAM */
	la a0, _data_lma
    1812:	00002517          	auipc	a0,0x2
    1816:	86250513          	addi	a0,a0,-1950 # 3074 <_data_lma>
c:\Users\rui\Desktop\iphone_screen\wch\code\test_usb_hspi\test_usb_hspi\obj/../Startup/startup_CH56x.S:131
	la a1, _data_vma
    181a:	1fffe597          	auipc	a1,0x1fffe
    181e:	7e658593          	addi	a1,a1,2022 # 20000000 <_data_vma>
c:\Users\rui\Desktop\iphone_screen\wch\code\test_usb_hspi\test_usb_hspi\obj/../Startup/startup_CH56x.S:132
	la a2, _edata
    1822:	82818613          	addi	a2,gp,-2008 # 200000d8 <_edata>
c:\Users\rui\Desktop\iphone_screen\wch\code\test_usb_hspi\test_usb_hspi\obj/../Startup/startup_CH56x.S:133
	bgeu a1, a2, 2f
    1826:	00c5fa63          	bgeu	a1,a2,183a <handle_reset+0x38>
c:\Users\rui\Desktop\iphone_screen\wch\code\test_usb_hspi\test_usb_hspi\obj/../Startup/startup_CH56x.S:135
1:
	lw t0, (a0)
    182a:	00052283          	lw	t0,0(a0)
c:\Users\rui\Desktop\iphone_screen\wch\code\test_usb_hspi\test_usb_hspi\obj/../Startup/startup_CH56x.S:136
	sw t0, (a1)
    182e:	0055a023          	sw	t0,0(a1)
c:\Users\rui\Desktop\iphone_screen\wch\code\test_usb_hspi\test_usb_hspi\obj/../Startup/startup_CH56x.S:137
	addi a0, a0, 4
    1832:	0511                	addi	a0,a0,4
c:\Users\rui\Desktop\iphone_screen\wch\code\test_usb_hspi\test_usb_hspi\obj/../Startup/startup_CH56x.S:138
	addi a1, a1, 4
    1834:	0591                	addi	a1,a1,4
c:\Users\rui\Desktop\iphone_screen\wch\code\test_usb_hspi\test_usb_hspi\obj/../Startup/startup_CH56x.S:139
	bltu a1, a2, 1b
    1836:	fec5eae3          	bltu	a1,a2,182a <handle_reset+0x28>
c:\Users\rui\Desktop\iphone_screen\wch\code\test_usb_hspi\test_usb_hspi\obj/../Startup/startup_CH56x.S:142
2:
/* Clear bss section */
	la a0, _sbss
    183a:	82818513          	addi	a0,gp,-2008 # 200000d8 <_edata>
c:\Users\rui\Desktop\iphone_screen\wch\code\test_usb_hspi\test_usb_hspi\obj/../Startup/startup_CH56x.S:143
	la a1, _ebss
    183e:	87418593          	addi	a1,gp,-1932 # 20000124 <_ebss>
c:\Users\rui\Desktop\iphone_screen\wch\code\test_usb_hspi\test_usb_hspi\obj/../Startup/startup_CH56x.S:144
	bgeu a0, a1, 2f
    1842:	00b57763          	bgeu	a0,a1,1850 <handle_reset+0x4e>
c:\Users\rui\Desktop\iphone_screen\wch\code\test_usb_hspi\test_usb_hspi\obj/../Startup/startup_CH56x.S:146
1:
	sw zero, (a0)
    1846:	00052023          	sw	zero,0(a0)
c:\Users\rui\Desktop\iphone_screen\wch\code\test_usb_hspi\test_usb_hspi\obj/../Startup/startup_CH56x.S:147
	addi a0, a0, 4
    184a:	0511                	addi	a0,a0,4
c:\Users\rui\Desktop\iphone_screen\wch\code\test_usb_hspi\test_usb_hspi\obj/../Startup/startup_CH56x.S:148
	bltu a0, a1, 1b
    184c:	feb56de3          	bltu	a0,a1,1846 <handle_reset+0x44>
c:\Users\rui\Desktop\iphone_screen\wch\code\test_usb_hspi\test_usb_hspi\obj/../Startup/startup_CH56x.S:151
2:
/* Clear dmadata section */
    la a0, _dmadata_start
    1850:	2001e517          	auipc	a0,0x2001e
    1854:	7b050513          	addi	a0,a0,1968 # 20020000 <endp0RTbuff>
c:\Users\rui\Desktop\iphone_screen\wch\code\test_usb_hspi\test_usb_hspi\obj/../Startup/startup_CH56x.S:152
    la a1, _dmadata_end
    1858:	2001e597          	auipc	a1,0x2001e
    185c:	7a858593          	addi	a1,a1,1960 # 20020000 <endp0RTbuff>
c:\Users\rui\Desktop\iphone_screen\wch\code\test_usb_hspi\test_usb_hspi\obj/../Startup/startup_CH56x.S:153
    bgeu a0, a1, 2f
    1860:	00b57763          	bgeu	a0,a1,186e <handle_reset+0x6c>
c:\Users\rui\Desktop\iphone_screen\wch\code\test_usb_hspi\test_usb_hspi\obj/../Startup/startup_CH56x.S:155
1:
    sw zero, (a0)
    1864:	00052023          	sw	zero,0(a0)
c:\Users\rui\Desktop\iphone_screen\wch\code\test_usb_hspi\test_usb_hspi\obj/../Startup/startup_CH56x.S:156
    addi a0, a0, 4
    1868:	0511                	addi	a0,a0,4
c:\Users\rui\Desktop\iphone_screen\wch\code\test_usb_hspi\test_usb_hspi\obj/../Startup/startup_CH56x.S:157
    bltu a0, a1, 1b
    186a:	feb56de3          	bltu	a0,a1,1864 <handle_reset+0x62>
c:\Users\rui\Desktop\iphone_screen\wch\code\test_usb_hspi\test_usb_hspi\obj/../Startup/startup_CH56x.S:160
2:
/* Enable global interrupt and configure privileged mode */
    li t0, 0x88
    186e:	08800293          	li	t0,136
c:\Users\rui\Desktop\iphone_screen\wch\code\test_usb_hspi\test_usb_hspi\obj/../Startup/startup_CH56x.S:161
    csrw mstatus, t0
    1872:	30029073          	csrw	mstatus,t0
c:\Users\rui\Desktop\iphone_screen\wch\code\test_usb_hspi\test_usb_hspi\obj/../Startup/startup_CH56x.S:163
/* Configure entry address mode */
	la t0, _vector_base
    1876:	ffffe297          	auipc	t0,0xffffe
    187a:	78e28293          	addi	t0,t0,1934 # 4 <_einit>
c:\Users\rui\Desktop\iphone_screen\wch\code\test_usb_hspi\test_usb_hspi\obj/../Startup/startup_CH56x.S:164
    ori t0, t0, 1
    187e:	0012e293          	ori	t0,t0,1
c:\Users\rui\Desktop\iphone_screen\wch\code\test_usb_hspi\test_usb_hspi\obj/../Startup/startup_CH56x.S:165
	csrw mtvec, t0
    1882:	30529073          	csrw	mtvec,t0
c:\Users\rui\Desktop\iphone_screen\wch\code\test_usb_hspi\test_usb_hspi\obj/../Startup/startup_CH56x.S:167

	la t0, main
    1886:	00000297          	auipc	t0,0x0
    188a:	d9e28293          	addi	t0,t0,-610 # 1624 <main>
c:\Users\rui\Desktop\iphone_screen\wch\code\test_usb_hspi\test_usb_hspi\obj/../Startup/startup_CH56x.S:168
	csrw mepc, t0
    188e:	34129073          	csrw	mepc,t0
c:\Users\rui\Desktop\iphone_screen\wch\code\test_usb_hspi\test_usb_hspi\obj/../Startup/startup_CH56x.S:169
	mret
    1892:	30200073          	mret

00001896 <SystemInit>:
SystemInit():
c:\Users\rui\Desktop\iphone_screen\wch\code\test_usb_hspi\test_usb_hspi\obj/../Peripheral/src/CH56x_clk.c:29
 */
void SystemInit(uint32_t systemclck)
{	
	uint8_t sc;
	
	sc = systemclck/1000000;
    1896:	000f47b7          	lui	a5,0xf4
    189a:	24078793          	addi	a5,a5,576 # f4240 <_data_lma+0xf11cc>
    189e:	02f55533          	divu	a0,a0,a5
    18a2:	03c00793          	li	a5,60
    18a6:	0ff57513          	andi	a0,a0,255
    18aa:	08f50c63          	beq	a0,a5,1942 <SystemInit+0xac>
    18ae:	00a7ed63          	bltu	a5,a0,18c8 <SystemInit+0x32>
    18b2:	47bd                	li	a5,15
    18b4:	04f50363          	beq	a0,a5,18fa <SystemInit+0x64>
    18b8:	47f9                	li	a5,30
    18ba:	06f50363          	beq	a0,a5,1920 <SystemInit+0x8a>
c:\Users\rui\Desktop\iphone_screen\wch\code\test_usb_hspi\test_usb_hspi\obj/../Peripheral/src/CH56x_clk.c:78
			
            break;
        default :
            break;		
    }	
    R8_SAFE_ACCESS_SIG = 0;
    18be:	400017b7          	lui	a5,0x40001
    18c2:	00078023          	sb	zero,0(a5) # 40001000 <endp1RTbuff+0x1ffe0e00>
c:\Users\rui\Desktop\iphone_screen\wch\code\test_usb_hspi\test_usb_hspi\obj/../Peripheral/src/CH56x_clk.c:79
}
    18c6:	8082                	ret
    18c8:	06000793          	li	a5,96
    18cc:	08f50863          	beq	a0,a5,195c <SystemInit+0xc6>
    18d0:	07800793          	li	a5,120
    18d4:	0af50163          	beq	a0,a5,1976 <SystemInit+0xe0>
    18d8:	05000793          	li	a5,80
    18dc:	fef511e3          	bne	a0,a5,18be <SystemInit+0x28>
c:\Users\rui\Desktop\iphone_screen\wch\code\test_usb_hspi\test_usb_hspi\obj/../Peripheral/src/CH56x_clk.c:55
			R8_SAFE_ACCESS_SIG = 0x57; // enable safe access mode
    18e0:	400017b7          	lui	a5,0x40001
    18e4:	05700713          	li	a4,87
    18e8:	00e78023          	sb	a4,0(a5) # 40001000 <endp1RTbuff+0x1ffe0e00>
c:\Users\rui\Desktop\iphone_screen\wch\code\test_usb_hspi\test_usb_hspi\obj/../Peripheral/src/CH56x_clk.c:56
			R8_SAFE_ACCESS_SIG = 0xa8;
    18ec:	fa800713          	li	a4,-88
    18f0:	00e78023          	sb	a4,0(a5)
c:\Users\rui\Desktop\iphone_screen\wch\code\test_usb_hspi\test_usb_hspi\obj/../Peripheral/src/CH56x_clk.c:57
			R8_CLK_PLL_DIV = 0x40 | 0x06;			
    18f4:	04600713          	li	a4,70
    18f8:	a081                	j	1938 <SystemInit+0xa2>
c:\Users\rui\Desktop\iphone_screen\wch\code\test_usb_hspi\test_usb_hspi\obj/../Peripheral/src/CH56x_clk.c:34
			R8_SAFE_ACCESS_SIG = 0x57; // enable safe access mode
    18fa:	400017b7          	lui	a5,0x40001
    18fe:	05700713          	li	a4,87
    1902:	00e78023          	sb	a4,0(a5) # 40001000 <endp1RTbuff+0x1ffe0e00>
c:\Users\rui\Desktop\iphone_screen\wch\code\test_usb_hspi\test_usb_hspi\obj/../Peripheral/src/CH56x_clk.c:35
			R8_SAFE_ACCESS_SIG = 0xa8;
    1906:	fa800713          	li	a4,-88
    190a:	00e78023          	sb	a4,0(a5)
c:\Users\rui\Desktop\iphone_screen\wch\code\test_usb_hspi\test_usb_hspi\obj/../Peripheral/src/CH56x_clk.c:36
			R8_CLK_PLL_DIV = 0x40 | 0x02;			
    190e:	04200713          	li	a4,66
    1912:	00e78423          	sb	a4,8(a5)
c:\Users\rui\Desktop\iphone_screen\wch\code\test_usb_hspi\test_usb_hspi\obj/../Peripheral/src/CH56x_clk.c:37
			R8_CLK_CFG_CTRL = 0x80 ;
    1916:	f8000713          	li	a4,-128
c:\Users\rui\Desktop\iphone_screen\wch\code\test_usb_hspi\test_usb_hspi\obj/../Peripheral/src/CH56x_clk.c:72
			R8_CLK_CFG_CTRL = 0x80 | RB_CLK_SEL_PLL;
    191a:	00e78523          	sb	a4,10(a5)
c:\Users\rui\Desktop\iphone_screen\wch\code\test_usb_hspi\test_usb_hspi\obj/../Peripheral/src/CH56x_clk.c:74
            break;
    191e:	b745                	j	18be <SystemInit+0x28>
c:\Users\rui\Desktop\iphone_screen\wch\code\test_usb_hspi\test_usb_hspi\obj/../Peripheral/src/CH56x_clk.c:41
			R8_SAFE_ACCESS_SIG = 0x57; // enable safe access mode
    1920:	400017b7          	lui	a5,0x40001
    1924:	05700713          	li	a4,87
    1928:	00e78023          	sb	a4,0(a5) # 40001000 <endp1RTbuff+0x1ffe0e00>
c:\Users\rui\Desktop\iphone_screen\wch\code\test_usb_hspi\test_usb_hspi\obj/../Peripheral/src/CH56x_clk.c:42
			R8_SAFE_ACCESS_SIG = 0xa8;
    192c:	fa800713          	li	a4,-88
    1930:	00e78023          	sb	a4,0(a5)
c:\Users\rui\Desktop\iphone_screen\wch\code\test_usb_hspi\test_usb_hspi\obj/../Peripheral/src/CH56x_clk.c:43
			R8_CLK_PLL_DIV = 0x40;		
    1934:	04000713          	li	a4,64
c:\Users\rui\Desktop\iphone_screen\wch\code\test_usb_hspi\test_usb_hspi\obj/../Peripheral/src/CH56x_clk.c:71
			R8_CLK_PLL_DIV = 0x40 | 0x04;			
    1938:	00e78423          	sb	a4,8(a5)
c:\Users\rui\Desktop\iphone_screen\wch\code\test_usb_hspi\test_usb_hspi\obj/../Peripheral/src/CH56x_clk.c:72
			R8_CLK_CFG_CTRL = 0x80 | RB_CLK_SEL_PLL;
    193c:	f8200713          	li	a4,-126
    1940:	bfe9                	j	191a <SystemInit+0x84>
c:\Users\rui\Desktop\iphone_screen\wch\code\test_usb_hspi\test_usb_hspi\obj/../Peripheral/src/CH56x_clk.c:48
			R8_SAFE_ACCESS_SIG = 0x57; // enable safe access mode
    1942:	400017b7          	lui	a5,0x40001
    1946:	05700713          	li	a4,87
    194a:	00e78023          	sb	a4,0(a5) # 40001000 <endp1RTbuff+0x1ffe0e00>
c:\Users\rui\Desktop\iphone_screen\wch\code\test_usb_hspi\test_usb_hspi\obj/../Peripheral/src/CH56x_clk.c:49
			R8_SAFE_ACCESS_SIG = 0xa8;
    194e:	fa800713          	li	a4,-88
    1952:	00e78023          	sb	a4,0(a5)
c:\Users\rui\Desktop\iphone_screen\wch\code\test_usb_hspi\test_usb_hspi\obj/../Peripheral/src/CH56x_clk.c:50
			R8_CLK_PLL_DIV = 0x40 | 0x08;			
    1956:	04800713          	li	a4,72
    195a:	bff9                	j	1938 <SystemInit+0xa2>
c:\Users\rui\Desktop\iphone_screen\wch\code\test_usb_hspi\test_usb_hspi\obj/../Peripheral/src/CH56x_clk.c:62
			R8_SAFE_ACCESS_SIG = 0x57; // enable safe access mode
    195c:	400017b7          	lui	a5,0x40001
    1960:	05700713          	li	a4,87
    1964:	00e78023          	sb	a4,0(a5) # 40001000 <endp1RTbuff+0x1ffe0e00>
c:\Users\rui\Desktop\iphone_screen\wch\code\test_usb_hspi\test_usb_hspi\obj/../Peripheral/src/CH56x_clk.c:63
			R8_SAFE_ACCESS_SIG = 0xa8;
    1968:	fa800713          	li	a4,-88
    196c:	00e78023          	sb	a4,0(a5)
c:\Users\rui\Desktop\iphone_screen\wch\code\test_usb_hspi\test_usb_hspi\obj/../Peripheral/src/CH56x_clk.c:64
			R8_CLK_PLL_DIV = 0x40 | 0x05;			
    1970:	04500713          	li	a4,69
    1974:	b7d1                	j	1938 <SystemInit+0xa2>
c:\Users\rui\Desktop\iphone_screen\wch\code\test_usb_hspi\test_usb_hspi\obj/../Peripheral/src/CH56x_clk.c:69
			R8_SAFE_ACCESS_SIG = 0x57; // enable safe access mode
    1976:	400017b7          	lui	a5,0x40001
    197a:	05700713          	li	a4,87
    197e:	00e78023          	sb	a4,0(a5) # 40001000 <endp1RTbuff+0x1ffe0e00>
c:\Users\rui\Desktop\iphone_screen\wch\code\test_usb_hspi\test_usb_hspi\obj/../Peripheral/src/CH56x_clk.c:70
			R8_SAFE_ACCESS_SIG = 0xa8;
    1982:	fa800713          	li	a4,-88
    1986:	00e78023          	sb	a4,0(a5)
c:\Users\rui\Desktop\iphone_screen\wch\code\test_usb_hspi\test_usb_hspi\obj/../Peripheral/src/CH56x_clk.c:71
			R8_CLK_PLL_DIV = 0x40 | 0x04;			
    198a:	04400713          	li	a4,68
    198e:	b76d                	j	1938 <SystemInit+0xa2>

00001990 <Delay_Init>:
Delay_Init():
c:\Users\rui\Desktop\iphone_screen\wch\code\test_usb_hspi\test_usb_hspi\obj/../Peripheral/src/CH56x_sys.c:30
 *
 * @return   None
 **/
void Delay_Init(uint32_t systemclck)
{
    p_us = systemclck / 8000000;
    1990:	007a17b7          	lui	a5,0x7a1
    1994:	20078793          	addi	a5,a5,512 # 7a1200 <_data_lma+0x79e18c>
    1998:	02f55533          	divu	a0,a0,a5
    199c:	0ff57513          	andi	a0,a0,255
    19a0:	84a18b23          	sb	a0,-1962(gp) # 20000106 <p_us>
c:\Users\rui\Desktop\iphone_screen\wch\code\test_usb_hspi\test_usb_hspi\obj/../Peripheral/src/CH56x_sys.c:31
    p_ms = (uint16_t)p_us * 1000;
    19a4:	3e800793          	li	a5,1000
    19a8:	02f50533          	mul	a0,a0,a5
    19ac:	84a19a23          	sh	a0,-1964(gp) # 20000104 <p_ms>
c:\Users\rui\Desktop\iphone_screen\wch\code\test_usb_hspi\test_usb_hspi\obj/../Peripheral/src/CH56x_sys.c:32
}
    19b0:	8082                	ret

000019b2 <mDelaymS>:
mDelaymS():
c:\Users\rui\Desktop\iphone_screen\wch\code\test_usb_hspi\test_usb_hspi\obj/../Peripheral/src/CH56x_sys.c:71
 **/
void mDelaymS(uint32_t n)
{
    uint32_t i;

    SysTick->CNTFG &= ~(1 << 1);
    19b2:	e000f7b7          	lui	a5,0xe000f
    19b6:	4bd8                	lw	a4,20(a5)
    19b8:	9b75                	andi	a4,a4,-3
    19ba:	cbd8                	sw	a4,20(a5)
c:\Users\rui\Desktop\iphone_screen\wch\code\test_usb_hspi\test_usb_hspi\obj/../Peripheral/src/CH56x_sys.c:73

    i = (uint32_t)n * p_ms;
    19bc:	8541d703          	lhu	a4,-1964(gp) # 20000104 <p_ms>
    19c0:	02a70533          	mul	a0,a4,a0
c:\Users\rui\Desktop\iphone_screen\wch\code\test_usb_hspi\test_usb_hspi\obj/../Peripheral/src/CH56x_sys.c:76

    SysTick->CMP = i;
    SysTick->CTLR = (1 << 8) | (1 << 0);
    19c4:	10100713          	li	a4,257
c:\Users\rui\Desktop\iphone_screen\wch\code\test_usb_hspi\test_usb_hspi\obj/../Peripheral/src/CH56x_sys.c:75
    SysTick->CMP = i;
    19c8:	c7c8                	sw	a0,12(a5)
    19ca:	0007a823          	sw	zero,16(a5) # e000f010 <endp1RTbuff+0xbffeee10>
c:\Users\rui\Desktop\iphone_screen\wch\code\test_usb_hspi\test_usb_hspi\obj/../Peripheral/src/CH56x_sys.c:76
    SysTick->CTLR = (1 << 8) | (1 << 0);
    19ce:	c398                	sw	a4,0(a5)
c:\Users\rui\Desktop\iphone_screen\wch\code\test_usb_hspi\test_usb_hspi\obj/../Peripheral/src/CH56x_sys.c:78

    while ((SysTick->CNTFG & (1 << 1)) != (1 << 1));
    19d0:	e000f737          	lui	a4,0xe000f
c:\Users\rui\Desktop\iphone_screen\wch\code\test_usb_hspi\test_usb_hspi\obj/../Peripheral/src/CH56x_sys.c:78 (discriminator 1)
    19d4:	4b5c                	lw	a5,20(a4)
    19d6:	8b89                	andi	a5,a5,2
    19d8:	dff5                	beqz	a5,19d4 <mDelaymS+0x22>
c:\Users\rui\Desktop\iphone_screen\wch\code\test_usb_hspi\test_usb_hspi\obj/../Peripheral/src/CH56x_sys.c:79
    SysTick->CTLR = 0;
    19da:	00072023          	sw	zero,0(a4) # e000f000 <endp1RTbuff+0xbffeee00>
c:\Users\rui\Desktop\iphone_screen\wch\code\test_usb_hspi\test_usb_hspi\obj/../Peripheral/src/CH56x_sys.c:80
}
    19de:	8082                	ret

000019e0 <_write>:
_write():
c:\Users\rui\Desktop\iphone_screen\wch\code\test_usb_hspi\test_usb_hspi\obj/../Peripheral/src/CH56x_sys.c:179
 **/
__attribute__((used)) int _write(int fd, char *buf, int size)
{
    int i;

    for (i = 0; i < size; i++)
    19e0:	4781                	li	a5,0
c:\Users\rui\Desktop\iphone_screen\wch\code\test_usb_hspi\test_usb_hspi\obj/../Peripheral/src/CH56x_sys.c:185
    {
#if DEBUG == Debug_UART0
        while (R8_UART0_TFC == UART_FIFO_SIZE);
        R8_UART0_THR = *buf++;
#elif DEBUG == Debug_UART1
        while (R8_UART1_TFC == UART_FIFO_SIZE);
    19e2:	40003737          	lui	a4,0x40003
    19e6:	46a1                	li	a3,8
c:\Users\rui\Desktop\iphone_screen\wch\code\test_usb_hspi\test_usb_hspi\obj/../Peripheral/src/CH56x_sys.c:179 (discriminator 1)
    for (i = 0; i < size; i++)
    19e8:	00c7c463          	blt	a5,a2,19f0 <_write+0x10>
c:\Users\rui\Desktop\iphone_screen\wch\code\test_usb_hspi\test_usb_hspi\obj/../Peripheral/src/CH56x_sys.c:197
        R8_UART3_THR = *buf++;
#endif
    }

    return size;
}
    19ec:	8532                	mv	a0,a2
    19ee:	8082                	ret
c:\Users\rui\Desktop\iphone_screen\wch\code\test_usb_hspi\test_usb_hspi\obj/../Peripheral/src/CH56x_sys.c:185 (discriminator 1)
        while (R8_UART1_TFC == UART_FIFO_SIZE);
    19f0:	40b74503          	lbu	a0,1035(a4) # 4000340b <endp1RTbuff+0x1ffe320b>
    19f4:	fea68ee3          	beq	a3,a0,19f0 <_write+0x10>
c:\Users\rui\Desktop\iphone_screen\wch\code\test_usb_hspi\test_usb_hspi\obj/../Peripheral/src/CH56x_sys.c:186 (discriminator 2)
        R8_UART1_THR = *buf++;
    19f8:	00f58533          	add	a0,a1,a5
    19fc:	00054503          	lbu	a0,0(a0)
c:\Users\rui\Desktop\iphone_screen\wch\code\test_usb_hspi\test_usb_hspi\obj/../Peripheral/src/CH56x_sys.c:179 (discriminator 2)
    for (i = 0; i < size; i++)
    1a00:	0785                	addi	a5,a5,1
c:\Users\rui\Desktop\iphone_screen\wch\code\test_usb_hspi\test_usb_hspi\obj/../Peripheral/src/CH56x_sys.c:186 (discriminator 2)
        R8_UART1_THR = *buf++;
    1a02:	40a70423          	sb	a0,1032(a4)
    1a06:	b7cd                	j	19e8 <_write+0x8>

00001a08 <TMR0_TimerInit>:
TMR0_TimerInit():
c:\Users\rui\Desktop\iphone_screen\wch\code\test_usb_hspi\test_usb_hspi\obj/../Peripheral/src/CH56x_timer.c:27
 *
 * @return   None
 */
void TMR0_TimerInit( UINT32 t )
{
    R32_TMR0_CNT_END = t;
    1a08:	400027b7          	lui	a5,0x40002
    1a0c:	c7c8                	sw	a0,12(a5)
c:\Users\rui\Desktop\iphone_screen\wch\code\test_usb_hspi\test_usb_hspi\obj/../Peripheral/src/CH56x_timer.c:28
    R8_TMR0_CTRL_MOD = RB_TMR_ALL_CLEAR;
    1a0e:	4709                	li	a4,2
    1a10:	00e78023          	sb	a4,0(a5) # 40002000 <endp1RTbuff+0x1ffe1e00>
c:\Users\rui\Desktop\iphone_screen\wch\code\test_usb_hspi\test_usb_hspi\obj/../Peripheral/src/CH56x_timer.c:29
    R8_TMR0_CTRL_MOD = RB_TMR_COUNT_EN | RB_TMR_CAP_COUNT;
    1a14:	4751                	li	a4,20
    1a16:	00e78023          	sb	a4,0(a5)
c:\Users\rui\Desktop\iphone_screen\wch\code\test_usb_hspi\test_usb_hspi\obj/../Peripheral/src/CH56x_timer.c:30
}
    1a1a:	8082                	ret

00001a1c <memcpy>:
memcpy():
    1a1c:	00a5c7b3          	xor	a5,a1,a0
    1a20:	8b8d                	andi	a5,a5,3
    1a22:	00c50733          	add	a4,a0,a2
    1a26:	e781                	bnez	a5,1a2e <memcpy+0x12>
    1a28:	478d                	li	a5,3
    1a2a:	00c7ee63          	bltu	a5,a2,1a46 <memcpy+0x2a>
    1a2e:	87aa                	mv	a5,a0
    1a30:	0ae57063          	bgeu	a0,a4,1ad0 <memcpy+0xb4>
    1a34:	0005c683          	lbu	a3,0(a1)
    1a38:	0785                	addi	a5,a5,1
    1a3a:	0585                	addi	a1,a1,1
    1a3c:	fed78fa3          	sb	a3,-1(a5)
    1a40:	fee7eae3          	bltu	a5,a4,1a34 <memcpy+0x18>
    1a44:	8082                	ret
    1a46:	00357693          	andi	a3,a0,3
    1a4a:	87aa                	mv	a5,a0
    1a4c:	ca91                	beqz	a3,1a60 <memcpy+0x44>
    1a4e:	0005c683          	lbu	a3,0(a1)
    1a52:	0785                	addi	a5,a5,1
    1a54:	0585                	addi	a1,a1,1
    1a56:	fed78fa3          	sb	a3,-1(a5)
    1a5a:	0037f693          	andi	a3,a5,3
    1a5e:	b7fd                	j	1a4c <memcpy+0x30>
    1a60:	ffc77693          	andi	a3,a4,-4
    1a64:	fe068613          	addi	a2,a3,-32
    1a68:	06c7f063          	bgeu	a5,a2,1ac8 <memcpy+0xac>
    1a6c:	0005a383          	lw	t2,0(a1)
    1a70:	0045a283          	lw	t0,4(a1)
    1a74:	0085af83          	lw	t6,8(a1)
    1a78:	00c5af03          	lw	t5,12(a1)
    1a7c:	0105ae83          	lw	t4,16(a1)
    1a80:	0145ae03          	lw	t3,20(a1)
    1a84:	0185a303          	lw	t1,24(a1)
    1a88:	01c5a883          	lw	a7,28(a1)
    1a8c:	02458593          	addi	a1,a1,36
    1a90:	0077a023          	sw	t2,0(a5)
    1a94:	ffc5a803          	lw	a6,-4(a1)
    1a98:	0057a223          	sw	t0,4(a5)
    1a9c:	01f7a423          	sw	t6,8(a5)
    1aa0:	01e7a623          	sw	t5,12(a5)
    1aa4:	01d7a823          	sw	t4,16(a5)
    1aa8:	01c7aa23          	sw	t3,20(a5)
    1aac:	0067ac23          	sw	t1,24(a5)
    1ab0:	0117ae23          	sw	a7,28(a5)
    1ab4:	02478793          	addi	a5,a5,36
    1ab8:	ff07ae23          	sw	a6,-4(a5)
    1abc:	b775                	j	1a68 <memcpy+0x4c>
    1abe:	4190                	lw	a2,0(a1)
    1ac0:	0791                	addi	a5,a5,4
    1ac2:	0591                	addi	a1,a1,4
    1ac4:	fec7ae23          	sw	a2,-4(a5)
    1ac8:	fed7ebe3          	bltu	a5,a3,1abe <memcpy+0xa2>
    1acc:	f6e7e4e3          	bltu	a5,a4,1a34 <memcpy+0x18>
    1ad0:	8082                	ret

00001ad2 <iprintf>:
printf():
    1ad2:	7139                	addi	sp,sp,-64
    1ad4:	da3e                	sw	a5,52(sp)
    1ad6:	d22e                	sw	a1,36(sp)
    1ad8:	d432                	sw	a2,40(sp)
    1ada:	d636                	sw	a3,44(sp)
    1adc:	d83a                	sw	a4,48(sp)
    1ade:	dc42                	sw	a6,56(sp)
    1ae0:	de46                	sw	a7,60(sp)
    1ae2:	1fffe797          	auipc	a5,0x1fffe
    1ae6:	5d278793          	addi	a5,a5,1490 # 200000b4 <_impure_ptr>
    1aea:	cc22                	sw	s0,24(sp)
    1aec:	4380                	lw	s0,0(a5)
    1aee:	ca26                	sw	s1,20(sp)
    1af0:	ce06                	sw	ra,28(sp)
    1af2:	84aa                	mv	s1,a0
    1af4:	c409                	beqz	s0,1afe <iprintf+0x2c>
    1af6:	4c1c                	lw	a5,24(s0)
    1af8:	e399                	bnez	a5,1afe <iprintf+0x2c>
    1afa:	8522                	mv	a0,s0
    1afc:	2335                	jal	2028 <__sinit>
    1afe:	440c                	lw	a1,8(s0)
    1b00:	1054                	addi	a3,sp,36
    1b02:	8626                	mv	a2,s1
    1b04:	8522                	mv	a0,s0
    1b06:	c636                	sw	a3,12(sp)
    1b08:	16f000ef          	jal	ra,2476 <_vfiprintf_r>
    1b0c:	40f2                	lw	ra,28(sp)
    1b0e:	4462                	lw	s0,24(sp)
    1b10:	44d2                	lw	s1,20(sp)
    1b12:	6121                	addi	sp,sp,64
    1b14:	8082                	ret

00001b16 <_puts_r>:
_puts_r():
    1b16:	1101                	addi	sp,sp,-32
    1b18:	ca26                	sw	s1,20(sp)
    1b1a:	c84a                	sw	s2,16(sp)
    1b1c:	ce06                	sw	ra,28(sp)
    1b1e:	cc22                	sw	s0,24(sp)
    1b20:	c64e                	sw	s3,12(sp)
    1b22:	c452                	sw	s4,8(sp)
    1b24:	84aa                	mv	s1,a0
    1b26:	892e                	mv	s2,a1
    1b28:	c501                	beqz	a0,1b30 <_puts_r+0x1a>
    1b2a:	4d1c                	lw	a5,24(a0)
    1b2c:	e391                	bnez	a5,1b30 <_puts_r+0x1a>
    1b2e:	29ed                	jal	2028 <__sinit>
    1b30:	4c9c                	lw	a5,24(s1)
    1b32:	4480                	lw	s0,8(s1)
    1b34:	e399                	bnez	a5,1b3a <_puts_r+0x24>
    1b36:	8526                	mv	a0,s1
    1b38:	29c5                	jal	2028 <__sinit>
    1b3a:	00001797          	auipc	a5,0x1
    1b3e:	4be78793          	addi	a5,a5,1214 # 2ff8 <__sf_fake_stdin>
    1b42:	02f41c63          	bne	s0,a5,1b7a <_puts_r+0x64>
    1b46:	40c0                	lw	s0,4(s1)
    1b48:	00c45783          	lhu	a5,12(s0)
    1b4c:	8ba1                	andi	a5,a5,8
    1b4e:	c7b1                	beqz	a5,1b9a <_puts_r+0x84>
    1b50:	481c                	lw	a5,16(s0)
    1b52:	c7a1                	beqz	a5,1b9a <_puts_r+0x84>
    1b54:	59fd                	li	s3,-1
    1b56:	4a29                	li	s4,10
    1b58:	441c                	lw	a5,8(s0)
    1b5a:	00094583          	lbu	a1,0(s2)
    1b5e:	17fd                	addi	a5,a5,-1
    1b60:	e9b1                	bnez	a1,1bb4 <_puts_r+0x9e>
    1b62:	c41c                	sw	a5,8(s0)
    1b64:	0607de63          	bgez	a5,1be0 <_puts_r+0xca>
    1b68:	8622                	mv	a2,s0
    1b6a:	45a9                	li	a1,10
    1b6c:	8526                	mv	a0,s1
    1b6e:	2841                	jal	1bfe <__swbuf_r>
    1b70:	57fd                	li	a5,-1
    1b72:	02f50863          	beq	a0,a5,1ba2 <_puts_r+0x8c>
    1b76:	4529                	li	a0,10
    1b78:	a035                	j	1ba4 <_puts_r+0x8e>
    1b7a:	00001797          	auipc	a5,0x1
    1b7e:	49e78793          	addi	a5,a5,1182 # 3018 <__sf_fake_stdout>
    1b82:	00f41463          	bne	s0,a5,1b8a <_puts_r+0x74>
    1b86:	4480                	lw	s0,8(s1)
    1b88:	b7c1                	j	1b48 <_puts_r+0x32>
    1b8a:	00001797          	auipc	a5,0x1
    1b8e:	44e78793          	addi	a5,a5,1102 # 2fd8 <__sf_fake_stderr>
    1b92:	faf41be3          	bne	s0,a5,1b48 <_puts_r+0x32>
    1b96:	44c0                	lw	s0,12(s1)
    1b98:	bf45                	j	1b48 <_puts_r+0x32>
    1b9a:	85a2                	mv	a1,s0
    1b9c:	8526                	mv	a0,s1
    1b9e:	2205                	jal	1cbe <__swsetup_r>
    1ba0:	d955                	beqz	a0,1b54 <_puts_r+0x3e>
    1ba2:	557d                	li	a0,-1
    1ba4:	40f2                	lw	ra,28(sp)
    1ba6:	4462                	lw	s0,24(sp)
    1ba8:	44d2                	lw	s1,20(sp)
    1baa:	4942                	lw	s2,16(sp)
    1bac:	49b2                	lw	s3,12(sp)
    1bae:	4a22                	lw	s4,8(sp)
    1bb0:	6105                	addi	sp,sp,32
    1bb2:	8082                	ret
    1bb4:	c41c                	sw	a5,8(s0)
    1bb6:	0905                	addi	s2,s2,1
    1bb8:	0007d763          	bgez	a5,1bc6 <_puts_r+0xb0>
    1bbc:	4c18                	lw	a4,24(s0)
    1bbe:	00e7cb63          	blt	a5,a4,1bd4 <_puts_r+0xbe>
    1bc2:	01458963          	beq	a1,s4,1bd4 <_puts_r+0xbe>
    1bc6:	401c                	lw	a5,0(s0)
    1bc8:	00178713          	addi	a4,a5,1
    1bcc:	c018                	sw	a4,0(s0)
    1bce:	00b78023          	sb	a1,0(a5)
    1bd2:	b759                	j	1b58 <_puts_r+0x42>
    1bd4:	8622                	mv	a2,s0
    1bd6:	8526                	mv	a0,s1
    1bd8:	201d                	jal	1bfe <__swbuf_r>
    1bda:	f7351fe3          	bne	a0,s3,1b58 <_puts_r+0x42>
    1bde:	b7d1                	j	1ba2 <_puts_r+0x8c>
    1be0:	401c                	lw	a5,0(s0)
    1be2:	00178713          	addi	a4,a5,1
    1be6:	c018                	sw	a4,0(s0)
    1be8:	4729                	li	a4,10
    1bea:	00e78023          	sb	a4,0(a5)
    1bee:	b761                	j	1b76 <_puts_r+0x60>

00001bf0 <puts>:
puts():
    1bf0:	1fffe797          	auipc	a5,0x1fffe
    1bf4:	4c478793          	addi	a5,a5,1220 # 200000b4 <_impure_ptr>
    1bf8:	85aa                	mv	a1,a0
    1bfa:	4388                	lw	a0,0(a5)
    1bfc:	bf29                	j	1b16 <_puts_r>

00001bfe <__swbuf_r>:
__swbuf_r():
    1bfe:	1101                	addi	sp,sp,-32
    1c00:	cc22                	sw	s0,24(sp)
    1c02:	ca26                	sw	s1,20(sp)
    1c04:	c84a                	sw	s2,16(sp)
    1c06:	ce06                	sw	ra,28(sp)
    1c08:	c64e                	sw	s3,12(sp)
    1c0a:	84aa                	mv	s1,a0
    1c0c:	892e                	mv	s2,a1
    1c0e:	8432                	mv	s0,a2
    1c10:	c501                	beqz	a0,1c18 <__swbuf_r+0x1a>
    1c12:	4d1c                	lw	a5,24(a0)
    1c14:	e391                	bnez	a5,1c18 <__swbuf_r+0x1a>
    1c16:	2909                	jal	2028 <__sinit>
    1c18:	00001797          	auipc	a5,0x1
    1c1c:	3e078793          	addi	a5,a5,992 # 2ff8 <__sf_fake_stdin>
    1c20:	06f41963          	bne	s0,a5,1c92 <__swbuf_r+0x94>
    1c24:	40c0                	lw	s0,4(s1)
    1c26:	4c1c                	lw	a5,24(s0)
    1c28:	c41c                	sw	a5,8(s0)
    1c2a:	00c45783          	lhu	a5,12(s0)
    1c2e:	8ba1                	andi	a5,a5,8
    1c30:	c3c9                	beqz	a5,1cb2 <__swbuf_r+0xb4>
    1c32:	481c                	lw	a5,16(s0)
    1c34:	cfbd                	beqz	a5,1cb2 <__swbuf_r+0xb4>
    1c36:	481c                	lw	a5,16(s0)
    1c38:	4008                	lw	a0,0(s0)
    1c3a:	0ff97993          	andi	s3,s2,255
    1c3e:	0ff97913          	andi	s2,s2,255
    1c42:	8d1d                	sub	a0,a0,a5
    1c44:	485c                	lw	a5,20(s0)
    1c46:	00f54663          	blt	a0,a5,1c52 <__swbuf_r+0x54>
    1c4a:	85a2                	mv	a1,s0
    1c4c:	8526                	mv	a0,s1
    1c4e:	2c75                	jal	1f0a <_fflush_r>
    1c50:	e52d                	bnez	a0,1cba <__swbuf_r+0xbc>
    1c52:	441c                	lw	a5,8(s0)
    1c54:	0505                	addi	a0,a0,1
    1c56:	17fd                	addi	a5,a5,-1
    1c58:	c41c                	sw	a5,8(s0)
    1c5a:	401c                	lw	a5,0(s0)
    1c5c:	00178713          	addi	a4,a5,1
    1c60:	c018                	sw	a4,0(s0)
    1c62:	01378023          	sb	s3,0(a5)
    1c66:	485c                	lw	a5,20(s0)
    1c68:	00a78963          	beq	a5,a0,1c7a <__swbuf_r+0x7c>
    1c6c:	00c45783          	lhu	a5,12(s0)
    1c70:	8b85                	andi	a5,a5,1
    1c72:	cb81                	beqz	a5,1c82 <__swbuf_r+0x84>
    1c74:	47a9                	li	a5,10
    1c76:	00f91663          	bne	s2,a5,1c82 <__swbuf_r+0x84>
    1c7a:	85a2                	mv	a1,s0
    1c7c:	8526                	mv	a0,s1
    1c7e:	2471                	jal	1f0a <_fflush_r>
    1c80:	ed0d                	bnez	a0,1cba <__swbuf_r+0xbc>
    1c82:	40f2                	lw	ra,28(sp)
    1c84:	4462                	lw	s0,24(sp)
    1c86:	854a                	mv	a0,s2
    1c88:	44d2                	lw	s1,20(sp)
    1c8a:	4942                	lw	s2,16(sp)
    1c8c:	49b2                	lw	s3,12(sp)
    1c8e:	6105                	addi	sp,sp,32
    1c90:	8082                	ret
    1c92:	00001797          	auipc	a5,0x1
    1c96:	38678793          	addi	a5,a5,902 # 3018 <__sf_fake_stdout>
    1c9a:	00f41463          	bne	s0,a5,1ca2 <__swbuf_r+0xa4>
    1c9e:	4480                	lw	s0,8(s1)
    1ca0:	b759                	j	1c26 <__swbuf_r+0x28>
    1ca2:	00001797          	auipc	a5,0x1
    1ca6:	33678793          	addi	a5,a5,822 # 2fd8 <__sf_fake_stderr>
    1caa:	f6f41ee3          	bne	s0,a5,1c26 <__swbuf_r+0x28>
    1cae:	44c0                	lw	s0,12(s1)
    1cb0:	bf9d                	j	1c26 <__swbuf_r+0x28>
    1cb2:	85a2                	mv	a1,s0
    1cb4:	8526                	mv	a0,s1
    1cb6:	2021                	jal	1cbe <__swsetup_r>
    1cb8:	dd3d                	beqz	a0,1c36 <__swbuf_r+0x38>
    1cba:	597d                	li	s2,-1
    1cbc:	b7d9                	j	1c82 <__swbuf_r+0x84>

00001cbe <__swsetup_r>:
__swsetup_r():
    1cbe:	1141                	addi	sp,sp,-16
    1cc0:	1fffe797          	auipc	a5,0x1fffe
    1cc4:	3f478793          	addi	a5,a5,1012 # 200000b4 <_impure_ptr>
    1cc8:	c226                	sw	s1,4(sp)
    1cca:	4384                	lw	s1,0(a5)
    1ccc:	c422                	sw	s0,8(sp)
    1cce:	c04a                	sw	s2,0(sp)
    1cd0:	c606                	sw	ra,12(sp)
    1cd2:	892a                	mv	s2,a0
    1cd4:	842e                	mv	s0,a1
    1cd6:	c489                	beqz	s1,1ce0 <__swsetup_r+0x22>
    1cd8:	4c9c                	lw	a5,24(s1)
    1cda:	e399                	bnez	a5,1ce0 <__swsetup_r+0x22>
    1cdc:	8526                	mv	a0,s1
    1cde:	26a9                	jal	2028 <__sinit>
    1ce0:	00001797          	auipc	a5,0x1
    1ce4:	31878793          	addi	a5,a5,792 # 2ff8 <__sf_fake_stdin>
    1ce8:	02f41c63          	bne	s0,a5,1d20 <__swsetup_r+0x62>
    1cec:	40c0                	lw	s0,4(s1)
    1cee:	00c41703          	lh	a4,12(s0)
    1cf2:	01071793          	slli	a5,a4,0x10
    1cf6:	83c1                	srli	a5,a5,0x10
    1cf8:	0087f693          	andi	a3,a5,8
    1cfc:	eeb5                	bnez	a3,1d78 <__swsetup_r+0xba>
    1cfe:	0107f693          	andi	a3,a5,16
    1d02:	ee9d                	bnez	a3,1d40 <__swsetup_r+0x82>
    1d04:	47a5                	li	a5,9
    1d06:	00f92023          	sw	a5,0(s2)
    1d0a:	04076713          	ori	a4,a4,64
    1d0e:	00e41623          	sh	a4,12(s0)
    1d12:	557d                	li	a0,-1
    1d14:	40b2                	lw	ra,12(sp)
    1d16:	4422                	lw	s0,8(sp)
    1d18:	4492                	lw	s1,4(sp)
    1d1a:	4902                	lw	s2,0(sp)
    1d1c:	0141                	addi	sp,sp,16
    1d1e:	8082                	ret
    1d20:	00001797          	auipc	a5,0x1
    1d24:	2f878793          	addi	a5,a5,760 # 3018 <__sf_fake_stdout>
    1d28:	00f41463          	bne	s0,a5,1d30 <__swsetup_r+0x72>
    1d2c:	4480                	lw	s0,8(s1)
    1d2e:	b7c1                	j	1cee <__swsetup_r+0x30>
    1d30:	00001797          	auipc	a5,0x1
    1d34:	2a878793          	addi	a5,a5,680 # 2fd8 <__sf_fake_stderr>
    1d38:	faf41be3          	bne	s0,a5,1cee <__swsetup_r+0x30>
    1d3c:	44c0                	lw	s0,12(s1)
    1d3e:	bf45                	j	1cee <__swsetup_r+0x30>
    1d40:	8b91                	andi	a5,a5,4
    1d42:	c78d                	beqz	a5,1d6c <__swsetup_r+0xae>
    1d44:	584c                	lw	a1,52(s0)
    1d46:	c989                	beqz	a1,1d58 <__swsetup_r+0x9a>
    1d48:	04440793          	addi	a5,s0,68
    1d4c:	00f58463          	beq	a1,a5,1d54 <__swsetup_r+0x96>
    1d50:	854a                	mv	a0,s2
    1d52:	2b35                	jal	228e <_free_r>
    1d54:	02042a23          	sw	zero,52(s0)
    1d58:	00c45783          	lhu	a5,12(s0)
    1d5c:	00042223          	sw	zero,4(s0)
    1d60:	fdb7f793          	andi	a5,a5,-37
    1d64:	00f41623          	sh	a5,12(s0)
    1d68:	481c                	lw	a5,16(s0)
    1d6a:	c01c                	sw	a5,0(s0)
    1d6c:	00c45783          	lhu	a5,12(s0)
    1d70:	0087e793          	ori	a5,a5,8
    1d74:	00f41623          	sh	a5,12(s0)
    1d78:	481c                	lw	a5,16(s0)
    1d7a:	ef81                	bnez	a5,1d92 <__swsetup_r+0xd4>
    1d7c:	00c45783          	lhu	a5,12(s0)
    1d80:	20000713          	li	a4,512
    1d84:	2807f793          	andi	a5,a5,640
    1d88:	00e78563          	beq	a5,a4,1d92 <__swsetup_r+0xd4>
    1d8c:	85a2                	mv	a1,s0
    1d8e:	854a                	mv	a0,s2
    1d90:	2185                	jal	21f0 <__smakebuf_r>
    1d92:	00c45783          	lhu	a5,12(s0)
    1d96:	0017f713          	andi	a4,a5,1
    1d9a:	c705                	beqz	a4,1dc2 <__swsetup_r+0x104>
    1d9c:	485c                	lw	a5,20(s0)
    1d9e:	00042423          	sw	zero,8(s0)
    1da2:	40f007b3          	neg	a5,a5
    1da6:	cc1c                	sw	a5,24(s0)
    1da8:	481c                	lw	a5,16(s0)
    1daa:	4501                	li	a0,0
    1dac:	f7a5                	bnez	a5,1d14 <__swsetup_r+0x56>
    1dae:	00c41783          	lh	a5,12(s0)
    1db2:	0807f713          	andi	a4,a5,128
    1db6:	df39                	beqz	a4,1d14 <__swsetup_r+0x56>
    1db8:	0407e793          	ori	a5,a5,64
    1dbc:	00f41623          	sh	a5,12(s0)
    1dc0:	bf89                	j	1d12 <__swsetup_r+0x54>
    1dc2:	8b89                	andi	a5,a5,2
    1dc4:	4701                	li	a4,0
    1dc6:	e391                	bnez	a5,1dca <__swsetup_r+0x10c>
    1dc8:	4858                	lw	a4,20(s0)
    1dca:	c418                	sw	a4,8(s0)
    1dcc:	bff1                	j	1da8 <__swsetup_r+0xea>

00001dce <__sflush_r>:
__sflush_r():
    1dce:	00c5d783          	lhu	a5,12(a1)
    1dd2:	1101                	addi	sp,sp,-32
    1dd4:	cc22                	sw	s0,24(sp)
    1dd6:	ca26                	sw	s1,20(sp)
    1dd8:	ce06                	sw	ra,28(sp)
    1dda:	c84a                	sw	s2,16(sp)
    1ddc:	c64e                	sw	s3,12(sp)
    1dde:	0087f713          	andi	a4,a5,8
    1de2:	84aa                	mv	s1,a0
    1de4:	842e                	mv	s0,a1
    1de6:	ef71                	bnez	a4,1ec2 <__sflush_r+0xf4>
    1de8:	41d8                	lw	a4,4(a1)
    1dea:	00e04d63          	bgtz	a4,1e04 <__sflush_r+0x36>
    1dee:	41b8                	lw	a4,64(a1)
    1df0:	00e04a63          	bgtz	a4,1e04 <__sflush_r+0x36>
    1df4:	4501                	li	a0,0
    1df6:	40f2                	lw	ra,28(sp)
    1df8:	4462                	lw	s0,24(sp)
    1dfa:	44d2                	lw	s1,20(sp)
    1dfc:	4942                	lw	s2,16(sp)
    1dfe:	49b2                	lw	s3,12(sp)
    1e00:	6105                	addi	sp,sp,32
    1e02:	8082                	ret
    1e04:	5458                	lw	a4,44(s0)
    1e06:	d77d                	beqz	a4,1df4 <__sflush_r+0x26>
    1e08:	0004a903          	lw	s2,0(s1)
    1e0c:	01379693          	slli	a3,a5,0x13
    1e10:	0004a023          	sw	zero,0(s1)
    1e14:	0606dd63          	bgez	a3,1e8e <__sflush_r+0xc0>
    1e18:	4870                	lw	a2,84(s0)
    1e1a:	00c45783          	lhu	a5,12(s0)
    1e1e:	8b91                	andi	a5,a5,4
    1e20:	c799                	beqz	a5,1e2e <__sflush_r+0x60>
    1e22:	405c                	lw	a5,4(s0)
    1e24:	8e1d                	sub	a2,a2,a5
    1e26:	585c                	lw	a5,52(s0)
    1e28:	c399                	beqz	a5,1e2e <__sflush_r+0x60>
    1e2a:	403c                	lw	a5,64(s0)
    1e2c:	8e1d                	sub	a2,a2,a5
    1e2e:	545c                	lw	a5,44(s0)
    1e30:	500c                	lw	a1,32(s0)
    1e32:	4681                	li	a3,0
    1e34:	8526                	mv	a0,s1
    1e36:	9782                	jalr	a5
    1e38:	57fd                	li	a5,-1
    1e3a:	00c45703          	lhu	a4,12(s0)
    1e3e:	00f51d63          	bne	a0,a5,1e58 <__sflush_r+0x8a>
    1e42:	4094                	lw	a3,0(s1)
    1e44:	47f5                	li	a5,29
    1e46:	06d7e863          	bltu	a5,a3,1eb6 <__sflush_r+0xe8>
    1e4a:	204007b7          	lui	a5,0x20400
    1e4e:	0785                	addi	a5,a5,1
    1e50:	00d7d7b3          	srl	a5,a5,a3
    1e54:	8b85                	andi	a5,a5,1
    1e56:	c3a5                	beqz	a5,1eb6 <__sflush_r+0xe8>
    1e58:	481c                	lw	a5,16(s0)
    1e5a:	00042223          	sw	zero,4(s0)
    1e5e:	c01c                	sw	a5,0(s0)
    1e60:	01371793          	slli	a5,a4,0x13
    1e64:	0007d863          	bgez	a5,1e74 <__sflush_r+0xa6>
    1e68:	57fd                	li	a5,-1
    1e6a:	00f51463          	bne	a0,a5,1e72 <__sflush_r+0xa4>
    1e6e:	409c                	lw	a5,0(s1)
    1e70:	e391                	bnez	a5,1e74 <__sflush_r+0xa6>
    1e72:	c868                	sw	a0,84(s0)
    1e74:	584c                	lw	a1,52(s0)
    1e76:	0124a023          	sw	s2,0(s1)
    1e7a:	ddad                	beqz	a1,1df4 <__sflush_r+0x26>
    1e7c:	04440793          	addi	a5,s0,68
    1e80:	00f58463          	beq	a1,a5,1e88 <__sflush_r+0xba>
    1e84:	8526                	mv	a0,s1
    1e86:	2121                	jal	228e <_free_r>
    1e88:	02042a23          	sw	zero,52(s0)
    1e8c:	b7a5                	j	1df4 <__sflush_r+0x26>
    1e8e:	500c                	lw	a1,32(s0)
    1e90:	4601                	li	a2,0
    1e92:	4685                	li	a3,1
    1e94:	8526                	mv	a0,s1
    1e96:	9702                	jalr	a4
    1e98:	57fd                	li	a5,-1
    1e9a:	862a                	mv	a2,a0
    1e9c:	f6f51fe3          	bne	a0,a5,1e1a <__sflush_r+0x4c>
    1ea0:	409c                	lw	a5,0(s1)
    1ea2:	dfa5                	beqz	a5,1e1a <__sflush_r+0x4c>
    1ea4:	4775                	li	a4,29
    1ea6:	00e78563          	beq	a5,a4,1eb0 <__sflush_r+0xe2>
    1eaa:	4759                	li	a4,22
    1eac:	04e79463          	bne	a5,a4,1ef4 <__sflush_r+0x126>
    1eb0:	0124a023          	sw	s2,0(s1)
    1eb4:	b781                	j	1df4 <__sflush_r+0x26>
    1eb6:	04076713          	ori	a4,a4,64
    1eba:	00e41623          	sh	a4,12(s0)
    1ebe:	557d                	li	a0,-1
    1ec0:	bf1d                	j	1df6 <__sflush_r+0x28>
    1ec2:	0105a983          	lw	s3,16(a1)
    1ec6:	f20987e3          	beqz	s3,1df4 <__sflush_r+0x26>
    1eca:	0005a903          	lw	s2,0(a1)
    1ece:	8b8d                	andi	a5,a5,3
    1ed0:	0135a023          	sw	s3,0(a1)
    1ed4:	41390933          	sub	s2,s2,s3
    1ed8:	4701                	li	a4,0
    1eda:	e391                	bnez	a5,1ede <__sflush_r+0x110>
    1edc:	49d8                	lw	a4,20(a1)
    1ede:	c418                	sw	a4,8(s0)
    1ee0:	f1205ae3          	blez	s2,1df4 <__sflush_r+0x26>
    1ee4:	541c                	lw	a5,40(s0)
    1ee6:	500c                	lw	a1,32(s0)
    1ee8:	86ca                	mv	a3,s2
    1eea:	864e                	mv	a2,s3
    1eec:	8526                	mv	a0,s1
    1eee:	9782                	jalr	a5
    1ef0:	00a04963          	bgtz	a0,1f02 <__sflush_r+0x134>
    1ef4:	00c45783          	lhu	a5,12(s0)
    1ef8:	0407e793          	ori	a5,a5,64
    1efc:	00f41623          	sh	a5,12(s0)
    1f00:	bf7d                	j	1ebe <__sflush_r+0xf0>
    1f02:	99aa                	add	s3,s3,a0
    1f04:	40a90933          	sub	s2,s2,a0
    1f08:	bfe1                	j	1ee0 <__sflush_r+0x112>

00001f0a <_fflush_r>:
_fflush_r():
    1f0a:	499c                	lw	a5,16(a1)
    1f0c:	cfb9                	beqz	a5,1f6a <_fflush_r+0x60>
    1f0e:	1101                	addi	sp,sp,-32
    1f10:	cc22                	sw	s0,24(sp)
    1f12:	ce06                	sw	ra,28(sp)
    1f14:	842a                	mv	s0,a0
    1f16:	c511                	beqz	a0,1f22 <_fflush_r+0x18>
    1f18:	4d1c                	lw	a5,24(a0)
    1f1a:	e781                	bnez	a5,1f22 <_fflush_r+0x18>
    1f1c:	c62e                	sw	a1,12(sp)
    1f1e:	2229                	jal	2028 <__sinit>
    1f20:	45b2                	lw	a1,12(sp)
    1f22:	00001797          	auipc	a5,0x1
    1f26:	0d678793          	addi	a5,a5,214 # 2ff8 <__sf_fake_stdin>
    1f2a:	00f59b63          	bne	a1,a5,1f40 <_fflush_r+0x36>
    1f2e:	404c                	lw	a1,4(s0)
    1f30:	00c59783          	lh	a5,12(a1)
    1f34:	c795                	beqz	a5,1f60 <_fflush_r+0x56>
    1f36:	8522                	mv	a0,s0
    1f38:	4462                	lw	s0,24(sp)
    1f3a:	40f2                	lw	ra,28(sp)
    1f3c:	6105                	addi	sp,sp,32
    1f3e:	bd41                	j	1dce <__sflush_r>
    1f40:	00001797          	auipc	a5,0x1
    1f44:	0d878793          	addi	a5,a5,216 # 3018 <__sf_fake_stdout>
    1f48:	00f59463          	bne	a1,a5,1f50 <_fflush_r+0x46>
    1f4c:	440c                	lw	a1,8(s0)
    1f4e:	b7cd                	j	1f30 <_fflush_r+0x26>
    1f50:	00001797          	auipc	a5,0x1
    1f54:	08878793          	addi	a5,a5,136 # 2fd8 <__sf_fake_stderr>
    1f58:	fcf59ce3          	bne	a1,a5,1f30 <_fflush_r+0x26>
    1f5c:	444c                	lw	a1,12(s0)
    1f5e:	bfc9                	j	1f30 <_fflush_r+0x26>
    1f60:	40f2                	lw	ra,28(sp)
    1f62:	4462                	lw	s0,24(sp)
    1f64:	4501                	li	a0,0
    1f66:	6105                	addi	sp,sp,32
    1f68:	8082                	ret
    1f6a:	4501                	li	a0,0
    1f6c:	8082                	ret

00001f6e <std>:
std():
    1f6e:	1141                	addi	sp,sp,-16
    1f70:	c422                	sw	s0,8(sp)
    1f72:	c606                	sw	ra,12(sp)
    1f74:	842a                	mv	s0,a0
    1f76:	00b51623          	sh	a1,12(a0)
    1f7a:	00c51723          	sh	a2,14(a0)
    1f7e:	00052023          	sw	zero,0(a0)
    1f82:	00052223          	sw	zero,4(a0)
    1f86:	00052423          	sw	zero,8(a0)
    1f8a:	06052223          	sw	zero,100(a0)
    1f8e:	00052823          	sw	zero,16(a0)
    1f92:	00052a23          	sw	zero,20(a0)
    1f96:	00052c23          	sw	zero,24(a0)
    1f9a:	4621                	li	a2,8
    1f9c:	4581                	li	a1,0
    1f9e:	05c50513          	addi	a0,a0,92
    1fa2:	e08fe0ef          	jal	ra,5aa <memset>
    1fa6:	00001797          	auipc	a5,0x1
    1faa:	b4678793          	addi	a5,a5,-1210 # 2aec <__sread>
    1fae:	d05c                	sw	a5,36(s0)
    1fb0:	00001797          	auipc	a5,0x1
    1fb4:	b6c78793          	addi	a5,a5,-1172 # 2b1c <__swrite>
    1fb8:	d41c                	sw	a5,40(s0)
    1fba:	00001797          	auipc	a5,0x1
    1fbe:	bb078793          	addi	a5,a5,-1104 # 2b6a <__sseek>
    1fc2:	d45c                	sw	a5,44(s0)
    1fc4:	00001797          	auipc	a5,0x1
    1fc8:	bdc78793          	addi	a5,a5,-1060 # 2ba0 <__sclose>
    1fcc:	d000                	sw	s0,32(s0)
    1fce:	d81c                	sw	a5,48(s0)
    1fd0:	40b2                	lw	ra,12(sp)
    1fd2:	4422                	lw	s0,8(sp)
    1fd4:	0141                	addi	sp,sp,16
    1fd6:	8082                	ret

00001fd8 <_cleanup_r>:
_cleanup_r():
    1fd8:	00000597          	auipc	a1,0x0
    1fdc:	f3258593          	addi	a1,a1,-206 # 1f0a <_fflush_r>
    1fe0:	a2a9                	j	212a <_fwalk_reent>

00001fe2 <__sfmoreglue>:
__sfmoreglue():
    1fe2:	1141                	addi	sp,sp,-16
    1fe4:	c226                	sw	s1,4(sp)
    1fe6:	06800613          	li	a2,104
    1fea:	fff58493          	addi	s1,a1,-1
    1fee:	02c484b3          	mul	s1,s1,a2
    1ff2:	c04a                	sw	s2,0(sp)
    1ff4:	892e                	mv	s2,a1
    1ff6:	c422                	sw	s0,8(sp)
    1ff8:	c606                	sw	ra,12(sp)
    1ffa:	07448593          	addi	a1,s1,116
    1ffe:	2e25                	jal	2336 <_malloc_r>
    2000:	842a                	mv	s0,a0
    2002:	cd01                	beqz	a0,201a <__sfmoreglue+0x38>
    2004:	00052023          	sw	zero,0(a0)
    2008:	01252223          	sw	s2,4(a0)
    200c:	0531                	addi	a0,a0,12
    200e:	c408                	sw	a0,8(s0)
    2010:	06848613          	addi	a2,s1,104
    2014:	4581                	li	a1,0
    2016:	d94fe0ef          	jal	ra,5aa <memset>
    201a:	8522                	mv	a0,s0
    201c:	40b2                	lw	ra,12(sp)
    201e:	4422                	lw	s0,8(sp)
    2020:	4492                	lw	s1,4(sp)
    2022:	4902                	lw	s2,0(sp)
    2024:	0141                	addi	sp,sp,16
    2026:	8082                	ret

00002028 <__sinit>:
__sinit():
    2028:	4d1c                	lw	a5,24(a0)
    202a:	e3ad                	bnez	a5,208c <__sinit+0x64>
    202c:	1141                	addi	sp,sp,-16
    202e:	c606                	sw	ra,12(sp)
    2030:	c422                	sw	s0,8(sp)
    2032:	00000797          	auipc	a5,0x0
    2036:	fa678793          	addi	a5,a5,-90 # 1fd8 <_cleanup_r>
    203a:	d51c                	sw	a5,40(a0)
    203c:	82018793          	addi	a5,gp,-2016 # 200000d0 <_global_impure_ptr>
    2040:	439c                	lw	a5,0(a5)
    2042:	04052423          	sw	zero,72(a0)
    2046:	04052623          	sw	zero,76(a0)
    204a:	04052823          	sw	zero,80(a0)
    204e:	00f51463          	bne	a0,a5,2056 <__sinit+0x2e>
    2052:	4785                	li	a5,1
    2054:	cd1c                	sw	a5,24(a0)
    2056:	842a                	mv	s0,a0
    2058:	281d                	jal	208e <__sfp>
    205a:	c048                	sw	a0,4(s0)
    205c:	8522                	mv	a0,s0
    205e:	2805                	jal	208e <__sfp>
    2060:	c408                	sw	a0,8(s0)
    2062:	8522                	mv	a0,s0
    2064:	202d                	jal	208e <__sfp>
    2066:	c448                	sw	a0,12(s0)
    2068:	4048                	lw	a0,4(s0)
    206a:	4601                	li	a2,0
    206c:	4591                	li	a1,4
    206e:	3701                	jal	1f6e <std>
    2070:	4408                	lw	a0,8(s0)
    2072:	4605                	li	a2,1
    2074:	45a5                	li	a1,9
    2076:	3de5                	jal	1f6e <std>
    2078:	4448                	lw	a0,12(s0)
    207a:	4609                	li	a2,2
    207c:	45c9                	li	a1,18
    207e:	3dc5                	jal	1f6e <std>
    2080:	4785                	li	a5,1
    2082:	cc1c                	sw	a5,24(s0)
    2084:	40b2                	lw	ra,12(sp)
    2086:	4422                	lw	s0,8(sp)
    2088:	0141                	addi	sp,sp,16
    208a:	8082                	ret
    208c:	8082                	ret

0000208e <__sfp>:
__sfp():
    208e:	1141                	addi	sp,sp,-16
    2090:	82018793          	addi	a5,gp,-2016 # 200000d0 <_global_impure_ptr>
    2094:	c226                	sw	s1,4(sp)
    2096:	4384                	lw	s1,0(a5)
    2098:	c04a                	sw	s2,0(sp)
    209a:	c606                	sw	ra,12(sp)
    209c:	4c9c                	lw	a5,24(s1)
    209e:	c422                	sw	s0,8(sp)
    20a0:	892a                	mv	s2,a0
    20a2:	e399                	bnez	a5,20a8 <__sfp+0x1a>
    20a4:	8526                	mv	a0,s1
    20a6:	3749                	jal	2028 <__sinit>
    20a8:	04848493          	addi	s1,s1,72
    20ac:	4480                	lw	s0,8(s1)
    20ae:	40dc                	lw	a5,4(s1)
    20b0:	17fd                	addi	a5,a5,-1
    20b2:	0007d663          	bgez	a5,20be <__sfp+0x30>
    20b6:	409c                	lw	a5,0(s1)
    20b8:	cfb9                	beqz	a5,2116 <__sfp+0x88>
    20ba:	4084                	lw	s1,0(s1)
    20bc:	bfc5                	j	20ac <__sfp+0x1e>
    20be:	00c41703          	lh	a4,12(s0)
    20c2:	e739                	bnez	a4,2110 <__sfp+0x82>
    20c4:	77c1                	lui	a5,0xffff0
    20c6:	0785                	addi	a5,a5,1
    20c8:	06042223          	sw	zero,100(s0)
    20cc:	00042023          	sw	zero,0(s0)
    20d0:	00042223          	sw	zero,4(s0)
    20d4:	00042423          	sw	zero,8(s0)
    20d8:	c45c                	sw	a5,12(s0)
    20da:	00042823          	sw	zero,16(s0)
    20de:	00042a23          	sw	zero,20(s0)
    20e2:	00042c23          	sw	zero,24(s0)
    20e6:	4621                	li	a2,8
    20e8:	4581                	li	a1,0
    20ea:	05c40513          	addi	a0,s0,92
    20ee:	cbcfe0ef          	jal	ra,5aa <memset>
    20f2:	02042a23          	sw	zero,52(s0)
    20f6:	02042c23          	sw	zero,56(s0)
    20fa:	04042423          	sw	zero,72(s0)
    20fe:	04042623          	sw	zero,76(s0)
    2102:	8522                	mv	a0,s0
    2104:	40b2                	lw	ra,12(sp)
    2106:	4422                	lw	s0,8(sp)
    2108:	4492                	lw	s1,4(sp)
    210a:	4902                	lw	s2,0(sp)
    210c:	0141                	addi	sp,sp,16
    210e:	8082                	ret
    2110:	06840413          	addi	s0,s0,104
    2114:	bf71                	j	20b0 <__sfp+0x22>
    2116:	4591                	li	a1,4
    2118:	854a                	mv	a0,s2
    211a:	35e1                	jal	1fe2 <__sfmoreglue>
    211c:	c088                	sw	a0,0(s1)
    211e:	fd51                	bnez	a0,20ba <__sfp+0x2c>
    2120:	47b1                	li	a5,12
    2122:	00f92023          	sw	a5,0(s2)
    2126:	4401                	li	s0,0
    2128:	bfe9                	j	2102 <__sfp+0x74>

0000212a <_fwalk_reent>:
_fwalk_reent():
    212a:	7179                	addi	sp,sp,-48
    212c:	d422                	sw	s0,40(sp)
    212e:	d04a                	sw	s2,32(sp)
    2130:	cc52                	sw	s4,24(sp)
    2132:	ca56                	sw	s5,20(sp)
    2134:	c85a                	sw	s6,16(sp)
    2136:	c65e                	sw	s7,12(sp)
    2138:	d606                	sw	ra,44(sp)
    213a:	d226                	sw	s1,36(sp)
    213c:	ce4e                	sw	s3,28(sp)
    213e:	8a2a                	mv	s4,a0
    2140:	8aae                	mv	s5,a1
    2142:	04850413          	addi	s0,a0,72
    2146:	4901                	li	s2,0
    2148:	4b05                	li	s6,1
    214a:	5bfd                	li	s7,-1
    214c:	ec09                	bnez	s0,2166 <_fwalk_reent+0x3c>
    214e:	50b2                	lw	ra,44(sp)
    2150:	5422                	lw	s0,40(sp)
    2152:	854a                	mv	a0,s2
    2154:	5492                	lw	s1,36(sp)
    2156:	5902                	lw	s2,32(sp)
    2158:	49f2                	lw	s3,28(sp)
    215a:	4a62                	lw	s4,24(sp)
    215c:	4ad2                	lw	s5,20(sp)
    215e:	4b42                	lw	s6,16(sp)
    2160:	4bb2                	lw	s7,12(sp)
    2162:	6145                	addi	sp,sp,48
    2164:	8082                	ret
    2166:	4404                	lw	s1,8(s0)
    2168:	00442983          	lw	s3,4(s0)
    216c:	19fd                	addi	s3,s3,-1
    216e:	0009d463          	bgez	s3,2176 <_fwalk_reent+0x4c>
    2172:	4000                	lw	s0,0(s0)
    2174:	bfe1                	j	214c <_fwalk_reent+0x22>
    2176:	00c4d783          	lhu	a5,12(s1)
    217a:	00fb7b63          	bgeu	s6,a5,2190 <_fwalk_reent+0x66>
    217e:	00e49783          	lh	a5,14(s1)
    2182:	01778763          	beq	a5,s7,2190 <_fwalk_reent+0x66>
    2186:	85a6                	mv	a1,s1
    2188:	8552                	mv	a0,s4
    218a:	9a82                	jalr	s5
    218c:	00a96933          	or	s2,s2,a0
    2190:	06848493          	addi	s1,s1,104
    2194:	bfe1                	j	216c <_fwalk_reent+0x42>

00002196 <__swhatbuf_r>:
__swhatbuf_r():
    2196:	7119                	addi	sp,sp,-128
    2198:	daa6                	sw	s1,116(sp)
    219a:	84ae                	mv	s1,a1
    219c:	00e59583          	lh	a1,14(a1)
    21a0:	dca2                	sw	s0,120(sp)
    21a2:	de86                	sw	ra,124(sp)
    21a4:	8432                	mv	s0,a2
    21a6:	0005dc63          	bgez	a1,21be <__swhatbuf_r+0x28>
    21aa:	00c4d783          	lhu	a5,12(s1)
    21ae:	0006a023          	sw	zero,0(a3)
    21b2:	0807f793          	andi	a5,a5,128
    21b6:	e785                	bnez	a5,21de <__swhatbuf_r+0x48>
    21b8:	40000793          	li	a5,1024
    21bc:	a01d                	j	21e2 <__swhatbuf_r+0x4c>
    21be:	0830                	addi	a2,sp,24
    21c0:	c636                	sw	a3,12(sp)
    21c2:	23b000ef          	jal	ra,2bfc <_fstat_r>
    21c6:	46b2                	lw	a3,12(sp)
    21c8:	fe0541e3          	bltz	a0,21aa <__swhatbuf_r+0x14>
    21cc:	4772                	lw	a4,28(sp)
    21ce:	67bd                	lui	a5,0xf
    21d0:	8ff9                	and	a5,a5,a4
    21d2:	7779                	lui	a4,0xffffe
    21d4:	97ba                	add	a5,a5,a4
    21d6:	0017b793          	seqz	a5,a5
    21da:	c29c                	sw	a5,0(a3)
    21dc:	bff1                	j	21b8 <__swhatbuf_r+0x22>
    21de:	04000793          	li	a5,64
    21e2:	c01c                	sw	a5,0(s0)
    21e4:	50f6                	lw	ra,124(sp)
    21e6:	5466                	lw	s0,120(sp)
    21e8:	54d6                	lw	s1,116(sp)
    21ea:	4501                	li	a0,0
    21ec:	6109                	addi	sp,sp,128
    21ee:	8082                	ret

000021f0 <__smakebuf_r>:
__smakebuf_r():
    21f0:	00c5d783          	lhu	a5,12(a1)
    21f4:	1101                	addi	sp,sp,-32
    21f6:	cc22                	sw	s0,24(sp)
    21f8:	ce06                	sw	ra,28(sp)
    21fa:	ca26                	sw	s1,20(sp)
    21fc:	c84a                	sw	s2,16(sp)
    21fe:	8b89                	andi	a5,a5,2
    2200:	842e                	mv	s0,a1
    2202:	cf89                	beqz	a5,221c <__smakebuf_r+0x2c>
    2204:	04740793          	addi	a5,s0,71
    2208:	c01c                	sw	a5,0(s0)
    220a:	c81c                	sw	a5,16(s0)
    220c:	4785                	li	a5,1
    220e:	c85c                	sw	a5,20(s0)
    2210:	40f2                	lw	ra,28(sp)
    2212:	4462                	lw	s0,24(sp)
    2214:	44d2                	lw	s1,20(sp)
    2216:	4942                	lw	s2,16(sp)
    2218:	6105                	addi	sp,sp,32
    221a:	8082                	ret
    221c:	0074                	addi	a3,sp,12
    221e:	0030                	addi	a2,sp,8
    2220:	84aa                	mv	s1,a0
    2222:	3f95                	jal	2196 <__swhatbuf_r>
    2224:	45a2                	lw	a1,8(sp)
    2226:	892a                	mv	s2,a0
    2228:	8526                	mv	a0,s1
    222a:	2231                	jal	2336 <_malloc_r>
    222c:	ed01                	bnez	a0,2244 <__smakebuf_r+0x54>
    222e:	00c41783          	lh	a5,12(s0)
    2232:	2007f713          	andi	a4,a5,512
    2236:	ff69                	bnez	a4,2210 <__smakebuf_r+0x20>
    2238:	9bf1                	andi	a5,a5,-4
    223a:	0027e793          	ori	a5,a5,2
    223e:	00f41623          	sh	a5,12(s0)
    2242:	b7c9                	j	2204 <__smakebuf_r+0x14>
    2244:	00000797          	auipc	a5,0x0
    2248:	d9478793          	addi	a5,a5,-620 # 1fd8 <_cleanup_r>
    224c:	d49c                	sw	a5,40(s1)
    224e:	00c45783          	lhu	a5,12(s0)
    2252:	c008                	sw	a0,0(s0)
    2254:	c808                	sw	a0,16(s0)
    2256:	0807e793          	ori	a5,a5,128
    225a:	00f41623          	sh	a5,12(s0)
    225e:	47a2                	lw	a5,8(sp)
    2260:	c85c                	sw	a5,20(s0)
    2262:	47b2                	lw	a5,12(sp)
    2264:	cf91                	beqz	a5,2280 <__smakebuf_r+0x90>
    2266:	00e41583          	lh	a1,14(s0)
    226a:	8526                	mv	a0,s1
    226c:	1bb000ef          	jal	ra,2c26 <_isatty_r>
    2270:	c901                	beqz	a0,2280 <__smakebuf_r+0x90>
    2272:	00c45783          	lhu	a5,12(s0)
    2276:	9bf1                	andi	a5,a5,-4
    2278:	0017e793          	ori	a5,a5,1
    227c:	00f41623          	sh	a5,12(s0)
    2280:	00c45783          	lhu	a5,12(s0)
    2284:	00f96933          	or	s2,s2,a5
    2288:	01241623          	sh	s2,12(s0)
    228c:	b751                	j	2210 <__smakebuf_r+0x20>

0000228e <_free_r>:
_free_r():
    228e:	c1dd                	beqz	a1,2334 <_free_r+0xa6>
    2290:	ffc5a783          	lw	a5,-4(a1)
    2294:	1141                	addi	sp,sp,-16
    2296:	c422                	sw	s0,8(sp)
    2298:	c606                	sw	ra,12(sp)
    229a:	c226                	sw	s1,4(sp)
    229c:	ffc58413          	addi	s0,a1,-4
    22a0:	0007d363          	bgez	a5,22a6 <_free_r+0x18>
    22a4:	943e                	add	s0,s0,a5
    22a6:	84aa                	mv	s1,a0
    22a8:	1ed000ef          	jal	ra,2c94 <__malloc_lock>
    22ac:	85c18793          	addi	a5,gp,-1956 # 2000010c <__malloc_free_list>
    22b0:	439c                	lw	a5,0(a5)
    22b2:	ef81                	bnez	a5,22ca <_free_r+0x3c>
    22b4:	00042223          	sw	zero,4(s0)
    22b8:	8481ae23          	sw	s0,-1956(gp) # 2000010c <__malloc_free_list>
    22bc:	4422                	lw	s0,8(sp)
    22be:	40b2                	lw	ra,12(sp)
    22c0:	8526                	mv	a0,s1
    22c2:	4492                	lw	s1,4(sp)
    22c4:	0141                	addi	sp,sp,16
    22c6:	1d10006f          	j	2c96 <__malloc_unlock>
    22ca:	00f47e63          	bgeu	s0,a5,22e6 <_free_r+0x58>
    22ce:	4014                	lw	a3,0(s0)
    22d0:	00d40733          	add	a4,s0,a3
    22d4:	00e79663          	bne	a5,a4,22e0 <_free_r+0x52>
    22d8:	4398                	lw	a4,0(a5)
    22da:	43dc                	lw	a5,4(a5)
    22dc:	9736                	add	a4,a4,a3
    22de:	c018                	sw	a4,0(s0)
    22e0:	c05c                	sw	a5,4(s0)
    22e2:	bfd9                	j	22b8 <_free_r+0x2a>
    22e4:	87ba                	mv	a5,a4
    22e6:	43d8                	lw	a4,4(a5)
    22e8:	c319                	beqz	a4,22ee <_free_r+0x60>
    22ea:	fee47de3          	bgeu	s0,a4,22e4 <_free_r+0x56>
    22ee:	4394                	lw	a3,0(a5)
    22f0:	00d78633          	add	a2,a5,a3
    22f4:	00861f63          	bne	a2,s0,2312 <_free_r+0x84>
    22f8:	4010                	lw	a2,0(s0)
    22fa:	96b2                	add	a3,a3,a2
    22fc:	c394                	sw	a3,0(a5)
    22fe:	00d78633          	add	a2,a5,a3
    2302:	fac71de3          	bne	a4,a2,22bc <_free_r+0x2e>
    2306:	4310                	lw	a2,0(a4)
    2308:	4358                	lw	a4,4(a4)
    230a:	96b2                	add	a3,a3,a2
    230c:	c394                	sw	a3,0(a5)
    230e:	c3d8                	sw	a4,4(a5)
    2310:	b775                	j	22bc <_free_r+0x2e>
    2312:	00c47563          	bgeu	s0,a2,231c <_free_r+0x8e>
    2316:	47b1                	li	a5,12
    2318:	c09c                	sw	a5,0(s1)
    231a:	b74d                	j	22bc <_free_r+0x2e>
    231c:	4010                	lw	a2,0(s0)
    231e:	00c406b3          	add	a3,s0,a2
    2322:	00d71663          	bne	a4,a3,232e <_free_r+0xa0>
    2326:	4314                	lw	a3,0(a4)
    2328:	4358                	lw	a4,4(a4)
    232a:	96b2                	add	a3,a3,a2
    232c:	c014                	sw	a3,0(s0)
    232e:	c058                	sw	a4,4(s0)
    2330:	c3c0                	sw	s0,4(a5)
    2332:	b769                	j	22bc <_free_r+0x2e>
    2334:	8082                	ret

00002336 <_malloc_r>:
_malloc_r():
    2336:	1101                	addi	sp,sp,-32
    2338:	ca26                	sw	s1,20(sp)
    233a:	00358493          	addi	s1,a1,3
    233e:	98f1                	andi	s1,s1,-4
    2340:	ce06                	sw	ra,28(sp)
    2342:	cc22                	sw	s0,24(sp)
    2344:	c84a                	sw	s2,16(sp)
    2346:	c64e                	sw	s3,12(sp)
    2348:	04a1                	addi	s1,s1,8
    234a:	47b1                	li	a5,12
    234c:	04f4f363          	bgeu	s1,a5,2392 <_malloc_r+0x5c>
    2350:	44b1                	li	s1,12
    2352:	04b4e263          	bltu	s1,a1,2396 <_malloc_r+0x60>
    2356:	892a                	mv	s2,a0
    2358:	13d000ef          	jal	ra,2c94 <__malloc_lock>
    235c:	85c18793          	addi	a5,gp,-1956 # 2000010c <__malloc_free_list>
    2360:	4398                	lw	a4,0(a5)
    2362:	843a                	mv	s0,a4
    2364:	e039                	bnez	s0,23aa <_malloc_r+0x74>
    2366:	86018793          	addi	a5,gp,-1952 # 20000110 <__malloc_sbrk_start>
    236a:	439c                	lw	a5,0(a5)
    236c:	e791                	bnez	a5,2378 <_malloc_r+0x42>
    236e:	4581                	li	a1,0
    2370:	854a                	mv	a0,s2
    2372:	2f89                	jal	2ac4 <_sbrk_r>
    2374:	86a1a023          	sw	a0,-1952(gp) # 20000110 <__malloc_sbrk_start>
    2378:	85a6                	mv	a1,s1
    237a:	854a                	mv	a0,s2
    237c:	27a1                	jal	2ac4 <_sbrk_r>
    237e:	59fd                	li	s3,-1
    2380:	07351963          	bne	a0,s3,23f2 <_malloc_r+0xbc>
    2384:	47b1                	li	a5,12
    2386:	00f92023          	sw	a5,0(s2)
    238a:	854a                	mv	a0,s2
    238c:	10b000ef          	jal	ra,2c96 <__malloc_unlock>
    2390:	a029                	j	239a <_malloc_r+0x64>
    2392:	fc04d0e3          	bgez	s1,2352 <_malloc_r+0x1c>
    2396:	47b1                	li	a5,12
    2398:	c11c                	sw	a5,0(a0)
    239a:	4501                	li	a0,0
    239c:	40f2                	lw	ra,28(sp)
    239e:	4462                	lw	s0,24(sp)
    23a0:	44d2                	lw	s1,20(sp)
    23a2:	4942                	lw	s2,16(sp)
    23a4:	49b2                	lw	s3,12(sp)
    23a6:	6105                	addi	sp,sp,32
    23a8:	8082                	ret
    23aa:	401c                	lw	a5,0(s0)
    23ac:	8f85                	sub	a5,a5,s1
    23ae:	0207cf63          	bltz	a5,23ec <_malloc_r+0xb6>
    23b2:	46ad                	li	a3,11
    23b4:	00f6f663          	bgeu	a3,a5,23c0 <_malloc_r+0x8a>
    23b8:	c01c                	sw	a5,0(s0)
    23ba:	943e                	add	s0,s0,a5
    23bc:	c004                	sw	s1,0(s0)
    23be:	a031                	j	23ca <_malloc_r+0x94>
    23c0:	405c                	lw	a5,4(s0)
    23c2:	02871363          	bne	a4,s0,23e8 <_malloc_r+0xb2>
    23c6:	84f1ae23          	sw	a5,-1956(gp) # 2000010c <__malloc_free_list>
    23ca:	854a                	mv	a0,s2
    23cc:	0cb000ef          	jal	ra,2c96 <__malloc_unlock>
    23d0:	00b40513          	addi	a0,s0,11
    23d4:	00440793          	addi	a5,s0,4
    23d8:	9961                	andi	a0,a0,-8
    23da:	40f50733          	sub	a4,a0,a5
    23de:	df5d                	beqz	a4,239c <_malloc_r+0x66>
    23e0:	943a                	add	s0,s0,a4
    23e2:	8f89                	sub	a5,a5,a0
    23e4:	c01c                	sw	a5,0(s0)
    23e6:	bf5d                	j	239c <_malloc_r+0x66>
    23e8:	c35c                	sw	a5,4(a4)
    23ea:	b7c5                	j	23ca <_malloc_r+0x94>
    23ec:	8722                	mv	a4,s0
    23ee:	4040                	lw	s0,4(s0)
    23f0:	bf95                	j	2364 <_malloc_r+0x2e>
    23f2:	00350413          	addi	s0,a0,3
    23f6:	9871                	andi	s0,s0,-4
    23f8:	fc8502e3          	beq	a0,s0,23bc <_malloc_r+0x86>
    23fc:	40a405b3          	sub	a1,s0,a0
    2400:	854a                	mv	a0,s2
    2402:	25c9                	jal	2ac4 <_sbrk_r>
    2404:	fb351ce3          	bne	a0,s3,23bc <_malloc_r+0x86>
    2408:	bfb5                	j	2384 <_malloc_r+0x4e>

0000240a <__sfputc_r>:
__sfputc_r():
    240a:	461c                	lw	a5,8(a2)
    240c:	17fd                	addi	a5,a5,-1
    240e:	c61c                	sw	a5,8(a2)
    2410:	0007da63          	bgez	a5,2424 <__sfputc_r+0x1a>
    2414:	4e18                	lw	a4,24(a2)
    2416:	00e7c563          	blt	a5,a4,2420 <__sfputc_r+0x16>
    241a:	47a9                	li	a5,10
    241c:	00f59463          	bne	a1,a5,2424 <__sfputc_r+0x1a>
    2420:	fdeff06f          	j	1bfe <__swbuf_r>
    2424:	421c                	lw	a5,0(a2)
    2426:	852e                	mv	a0,a1
    2428:	00178713          	addi	a4,a5,1
    242c:	c218                	sw	a4,0(a2)
    242e:	00b78023          	sb	a1,0(a5)
    2432:	8082                	ret

00002434 <__sfputs_r>:
__sfputs_r():
    2434:	1101                	addi	sp,sp,-32
    2436:	cc22                	sw	s0,24(sp)
    2438:	ca26                	sw	s1,20(sp)
    243a:	c84a                	sw	s2,16(sp)
    243c:	c64e                	sw	s3,12(sp)
    243e:	c452                	sw	s4,8(sp)
    2440:	ce06                	sw	ra,28(sp)
    2442:	892a                	mv	s2,a0
    2444:	89ae                	mv	s3,a1
    2446:	8432                	mv	s0,a2
    2448:	00d604b3          	add	s1,a2,a3
    244c:	5a7d                	li	s4,-1
    244e:	00941463          	bne	s0,s1,2456 <__sfputs_r+0x22>
    2452:	4501                	li	a0,0
    2454:	a809                	j	2466 <__sfputs_r+0x32>
    2456:	00044583          	lbu	a1,0(s0)
    245a:	864e                	mv	a2,s3
    245c:	854a                	mv	a0,s2
    245e:	3775                	jal	240a <__sfputc_r>
    2460:	0405                	addi	s0,s0,1
    2462:	ff4516e3          	bne	a0,s4,244e <__sfputs_r+0x1a>
    2466:	40f2                	lw	ra,28(sp)
    2468:	4462                	lw	s0,24(sp)
    246a:	44d2                	lw	s1,20(sp)
    246c:	4942                	lw	s2,16(sp)
    246e:	49b2                	lw	s3,12(sp)
    2470:	4a22                	lw	s4,8(sp)
    2472:	6105                	addi	sp,sp,32
    2474:	8082                	ret

00002476 <_vfiprintf_r>:
_vfiprintf_r():
    2476:	7135                	addi	sp,sp,-160
    2478:	cd22                	sw	s0,152(sp)
    247a:	cb26                	sw	s1,148(sp)
    247c:	c94a                	sw	s2,144(sp)
    247e:	c74e                	sw	s3,140(sp)
    2480:	cf06                	sw	ra,156(sp)
    2482:	c552                	sw	s4,136(sp)
    2484:	c356                	sw	s5,132(sp)
    2486:	c15a                	sw	s6,128(sp)
    2488:	dede                	sw	s7,124(sp)
    248a:	dce2                	sw	s8,120(sp)
    248c:	dae6                	sw	s9,116(sp)
    248e:	89aa                	mv	s3,a0
    2490:	84ae                	mv	s1,a1
    2492:	8932                	mv	s2,a2
    2494:	8436                	mv	s0,a3
    2496:	c509                	beqz	a0,24a0 <_vfiprintf_r+0x2a>
    2498:	4d1c                	lw	a5,24(a0)
    249a:	e399                	bnez	a5,24a0 <_vfiprintf_r+0x2a>
    249c:	b8dff0ef          	jal	ra,2028 <__sinit>
    24a0:	00001797          	auipc	a5,0x1
    24a4:	b5878793          	addi	a5,a5,-1192 # 2ff8 <__sf_fake_stdin>
    24a8:	0cf49b63          	bne	s1,a5,257e <_vfiprintf_r+0x108>
    24ac:	0049a483          	lw	s1,4(s3)
    24b0:	00c4d783          	lhu	a5,12(s1)
    24b4:	8ba1                	andi	a5,a5,8
    24b6:	c7f5                	beqz	a5,25a2 <_vfiprintf_r+0x12c>
    24b8:	489c                	lw	a5,16(s1)
    24ba:	c7e5                	beqz	a5,25a2 <_vfiprintf_r+0x12c>
    24bc:	02000793          	li	a5,32
    24c0:	02f104a3          	sb	a5,41(sp)
    24c4:	03000793          	li	a5,48
    24c8:	d202                	sw	zero,36(sp)
    24ca:	02f10523          	sb	a5,42(sp)
    24ce:	c622                	sw	s0,12(sp)
    24d0:	02500b93          	li	s7,37
    24d4:	00001a97          	auipc	s5,0x1
    24d8:	b64a8a93          	addi	s5,s5,-1180 # 3038 <__sf_fake_stdout+0x20>
    24dc:	4c05                	li	s8,1
    24de:	4b29                	li	s6,10
    24e0:	844a                	mv	s0,s2
    24e2:	00044783          	lbu	a5,0(s0)
    24e6:	c399                	beqz	a5,24ec <_vfiprintf_r+0x76>
    24e8:	0f779063          	bne	a5,s7,25c8 <_vfiprintf_r+0x152>
    24ec:	41240cb3          	sub	s9,s0,s2
    24f0:	000c8d63          	beqz	s9,250a <_vfiprintf_r+0x94>
    24f4:	86e6                	mv	a3,s9
    24f6:	864a                	mv	a2,s2
    24f8:	85a6                	mv	a1,s1
    24fa:	854e                	mv	a0,s3
    24fc:	3f25                	jal	2434 <__sfputs_r>
    24fe:	57fd                	li	a5,-1
    2500:	1ef50663          	beq	a0,a5,26ec <_vfiprintf_r+0x276>
    2504:	5692                	lw	a3,36(sp)
    2506:	96e6                	add	a3,a3,s9
    2508:	d236                	sw	a3,36(sp)
    250a:	00044783          	lbu	a5,0(s0)
    250e:	1c078f63          	beqz	a5,26ec <_vfiprintf_r+0x276>
    2512:	57fd                	li	a5,-1
    2514:	00140913          	addi	s2,s0,1
    2518:	c802                	sw	zero,16(sp)
    251a:	ce02                	sw	zero,28(sp)
    251c:	ca3e                	sw	a5,20(sp)
    251e:	cc02                	sw	zero,24(sp)
    2520:	040109a3          	sb	zero,83(sp)
    2524:	d482                	sw	zero,104(sp)
    2526:	00094583          	lbu	a1,0(s2)
    252a:	4615                	li	a2,5
    252c:	8556                	mv	a0,s5
    252e:	27b1                	jal	2c7a <memchr>
    2530:	00190413          	addi	s0,s2,1
    2534:	47c2                	lw	a5,16(sp)
    2536:	e959                	bnez	a0,25cc <_vfiprintf_r+0x156>
    2538:	0107f713          	andi	a4,a5,16
    253c:	c709                	beqz	a4,2546 <_vfiprintf_r+0xd0>
    253e:	02000713          	li	a4,32
    2542:	04e109a3          	sb	a4,83(sp)
    2546:	0087f713          	andi	a4,a5,8
    254a:	c709                	beqz	a4,2554 <_vfiprintf_r+0xde>
    254c:	02b00713          	li	a4,43
    2550:	04e109a3          	sb	a4,83(sp)
    2554:	00094683          	lbu	a3,0(s2)
    2558:	02a00713          	li	a4,42
    255c:	08e68063          	beq	a3,a4,25dc <_vfiprintf_r+0x166>
    2560:	47f2                	lw	a5,28(sp)
    2562:	844a                	mv	s0,s2
    2564:	4681                	li	a3,0
    2566:	4625                	li	a2,9
    2568:	00044703          	lbu	a4,0(s0)
    256c:	00140593          	addi	a1,s0,1
    2570:	fd070713          	addi	a4,a4,-48 # ffffdfd0 <endp1RTbuff+0xdffdddd0>
    2574:	0ae67963          	bgeu	a2,a4,2626 <_vfiprintf_r+0x1b0>
    2578:	cab5                	beqz	a3,25ec <_vfiprintf_r+0x176>
    257a:	ce3e                	sw	a5,28(sp)
    257c:	a885                	j	25ec <_vfiprintf_r+0x176>
    257e:	00001797          	auipc	a5,0x1
    2582:	a9a78793          	addi	a5,a5,-1382 # 3018 <__sf_fake_stdout>
    2586:	00f49563          	bne	s1,a5,2590 <_vfiprintf_r+0x11a>
    258a:	0089a483          	lw	s1,8(s3)
    258e:	b70d                	j	24b0 <_vfiprintf_r+0x3a>
    2590:	00001797          	auipc	a5,0x1
    2594:	a4878793          	addi	a5,a5,-1464 # 2fd8 <__sf_fake_stderr>
    2598:	f0f49ce3          	bne	s1,a5,24b0 <_vfiprintf_r+0x3a>
    259c:	00c9a483          	lw	s1,12(s3)
    25a0:	bf01                	j	24b0 <_vfiprintf_r+0x3a>
    25a2:	85a6                	mv	a1,s1
    25a4:	854e                	mv	a0,s3
    25a6:	f18ff0ef          	jal	ra,1cbe <__swsetup_r>
    25aa:	d909                	beqz	a0,24bc <_vfiprintf_r+0x46>
    25ac:	557d                	li	a0,-1
    25ae:	40fa                	lw	ra,156(sp)
    25b0:	446a                	lw	s0,152(sp)
    25b2:	44da                	lw	s1,148(sp)
    25b4:	494a                	lw	s2,144(sp)
    25b6:	49ba                	lw	s3,140(sp)
    25b8:	4a2a                	lw	s4,136(sp)
    25ba:	4a9a                	lw	s5,132(sp)
    25bc:	4b0a                	lw	s6,128(sp)
    25be:	5bf6                	lw	s7,124(sp)
    25c0:	5c66                	lw	s8,120(sp)
    25c2:	5cd6                	lw	s9,116(sp)
    25c4:	610d                	addi	sp,sp,160
    25c6:	8082                	ret
    25c8:	0405                	addi	s0,s0,1
    25ca:	bf21                	j	24e2 <_vfiprintf_r+0x6c>
    25cc:	41550533          	sub	a0,a0,s5
    25d0:	00ac1533          	sll	a0,s8,a0
    25d4:	8fc9                	or	a5,a5,a0
    25d6:	c83e                	sw	a5,16(sp)
    25d8:	8922                	mv	s2,s0
    25da:	b7b1                	j	2526 <_vfiprintf_r+0xb0>
    25dc:	4732                	lw	a4,12(sp)
    25de:	00470693          	addi	a3,a4,4
    25e2:	4318                	lw	a4,0(a4)
    25e4:	c636                	sw	a3,12(sp)
    25e6:	02074963          	bltz	a4,2618 <_vfiprintf_r+0x1a2>
    25ea:	ce3a                	sw	a4,28(sp)
    25ec:	00044703          	lbu	a4,0(s0)
    25f0:	02e00793          	li	a5,46
    25f4:	04f71f63          	bne	a4,a5,2652 <_vfiprintf_r+0x1dc>
    25f8:	00144703          	lbu	a4,1(s0)
    25fc:	02a00793          	li	a5,42
    2600:	02f71b63          	bne	a4,a5,2636 <_vfiprintf_r+0x1c0>
    2604:	47b2                	lw	a5,12(sp)
    2606:	0409                	addi	s0,s0,2
    2608:	00478713          	addi	a4,a5,4
    260c:	439c                	lw	a5,0(a5)
    260e:	c63a                	sw	a4,12(sp)
    2610:	0207c163          	bltz	a5,2632 <_vfiprintf_r+0x1bc>
    2614:	ca3e                	sw	a5,20(sp)
    2616:	a835                	j	2652 <_vfiprintf_r+0x1dc>
    2618:	40e00733          	neg	a4,a4
    261c:	0027e793          	ori	a5,a5,2
    2620:	ce3a                	sw	a4,28(sp)
    2622:	c83e                	sw	a5,16(sp)
    2624:	b7e1                	j	25ec <_vfiprintf_r+0x176>
    2626:	036787b3          	mul	a5,a5,s6
    262a:	4685                	li	a3,1
    262c:	842e                	mv	s0,a1
    262e:	97ba                	add	a5,a5,a4
    2630:	bf25                	j	2568 <_vfiprintf_r+0xf2>
    2632:	57fd                	li	a5,-1
    2634:	b7c5                	j	2614 <_vfiprintf_r+0x19e>
    2636:	0405                	addi	s0,s0,1
    2638:	ca02                	sw	zero,20(sp)
    263a:	4681                	li	a3,0
    263c:	4781                	li	a5,0
    263e:	4625                	li	a2,9
    2640:	00044703          	lbu	a4,0(s0)
    2644:	00140593          	addi	a1,s0,1
    2648:	fd070713          	addi	a4,a4,-48
    264c:	06e67663          	bgeu	a2,a4,26b8 <_vfiprintf_r+0x242>
    2650:	f2f1                	bnez	a3,2614 <_vfiprintf_r+0x19e>
    2652:	00044583          	lbu	a1,0(s0)
    2656:	460d                	li	a2,3
    2658:	00001517          	auipc	a0,0x1
    265c:	9e850513          	addi	a0,a0,-1560 # 3040 <__sf_fake_stdout+0x28>
    2660:	2d29                	jal	2c7a <memchr>
    2662:	cd11                	beqz	a0,267e <_vfiprintf_r+0x208>
    2664:	00001797          	auipc	a5,0x1
    2668:	9dc78793          	addi	a5,a5,-1572 # 3040 <__sf_fake_stdout+0x28>
    266c:	8d1d                	sub	a0,a0,a5
    266e:	04000793          	li	a5,64
    2672:	00a797b3          	sll	a5,a5,a0
    2676:	4542                	lw	a0,16(sp)
    2678:	0405                	addi	s0,s0,1
    267a:	8d5d                	or	a0,a0,a5
    267c:	c82a                	sw	a0,16(sp)
    267e:	00044583          	lbu	a1,0(s0)
    2682:	4619                	li	a2,6
    2684:	00001517          	auipc	a0,0x1
    2688:	9c050513          	addi	a0,a0,-1600 # 3044 <__sf_fake_stdout+0x2c>
    268c:	00140913          	addi	s2,s0,1
    2690:	02b10423          	sb	a1,40(sp)
    2694:	23dd                	jal	2c7a <memchr>
    2696:	c13d                	beqz	a0,26fc <_vfiprintf_r+0x286>
    2698:	ffffe797          	auipc	a5,0xffffe
    269c:	96878793          	addi	a5,a5,-1688 # 0 <_sinit>
    26a0:	e795                	bnez	a5,26cc <_vfiprintf_r+0x256>
    26a2:	4742                	lw	a4,16(sp)
    26a4:	47b2                	lw	a5,12(sp)
    26a6:	10077713          	andi	a4,a4,256
    26aa:	cf09                	beqz	a4,26c4 <_vfiprintf_r+0x24e>
    26ac:	0791                	addi	a5,a5,4
    26ae:	c63e                	sw	a5,12(sp)
    26b0:	5792                	lw	a5,36(sp)
    26b2:	97d2                	add	a5,a5,s4
    26b4:	d23e                	sw	a5,36(sp)
    26b6:	b52d                	j	24e0 <_vfiprintf_r+0x6a>
    26b8:	036787b3          	mul	a5,a5,s6
    26bc:	4685                	li	a3,1
    26be:	842e                	mv	s0,a1
    26c0:	97ba                	add	a5,a5,a4
    26c2:	bfbd                	j	2640 <_vfiprintf_r+0x1ca>
    26c4:	079d                	addi	a5,a5,7
    26c6:	9be1                	andi	a5,a5,-8
    26c8:	07a1                	addi	a5,a5,8
    26ca:	b7d5                	j	26ae <_vfiprintf_r+0x238>
    26cc:	0078                	addi	a4,sp,12
    26ce:	00000697          	auipc	a3,0x0
    26d2:	d6668693          	addi	a3,a3,-666 # 2434 <__sfputs_r>
    26d6:	8626                	mv	a2,s1
    26d8:	080c                	addi	a1,sp,16
    26da:	854e                	mv	a0,s3
    26dc:	00000097          	auipc	ra,0x0
    26e0:	000000e7          	jalr	zero # 0 <_sinit>
    26e4:	57fd                	li	a5,-1
    26e6:	8a2a                	mv	s4,a0
    26e8:	fcf514e3          	bne	a0,a5,26b0 <_vfiprintf_r+0x23a>
    26ec:	00c4d783          	lhu	a5,12(s1)
    26f0:	0407f793          	andi	a5,a5,64
    26f4:	ea079ce3          	bnez	a5,25ac <_vfiprintf_r+0x136>
    26f8:	5512                	lw	a0,36(sp)
    26fa:	bd55                	j	25ae <_vfiprintf_r+0x138>
    26fc:	0078                	addi	a4,sp,12
    26fe:	00000697          	auipc	a3,0x0
    2702:	d3668693          	addi	a3,a3,-714 # 2434 <__sfputs_r>
    2706:	8626                	mv	a2,s1
    2708:	080c                	addi	a1,sp,16
    270a:	854e                	mv	a0,s3
    270c:	2a01                	jal	281c <_printf_i>
    270e:	bfd9                	j	26e4 <_vfiprintf_r+0x26e>

00002710 <_printf_common>:
_printf_common():
    2710:	7179                	addi	sp,sp,-48
    2712:	ca56                	sw	s5,20(sp)
    2714:	499c                	lw	a5,16(a1)
    2716:	8aba                	mv	s5,a4
    2718:	4598                	lw	a4,8(a1)
    271a:	d422                	sw	s0,40(sp)
    271c:	d226                	sw	s1,36(sp)
    271e:	ce4e                	sw	s3,28(sp)
    2720:	cc52                	sw	s4,24(sp)
    2722:	d606                	sw	ra,44(sp)
    2724:	d04a                	sw	s2,32(sp)
    2726:	c85a                	sw	s6,16(sp)
    2728:	c65e                	sw	s7,12(sp)
    272a:	89aa                	mv	s3,a0
    272c:	842e                	mv	s0,a1
    272e:	84b2                	mv	s1,a2
    2730:	8a36                	mv	s4,a3
    2732:	00e7d363          	bge	a5,a4,2738 <_printf_common+0x28>
    2736:	87ba                	mv	a5,a4
    2738:	c09c                	sw	a5,0(s1)
    273a:	04344703          	lbu	a4,67(s0)
    273e:	c319                	beqz	a4,2744 <_printf_common+0x34>
    2740:	0785                	addi	a5,a5,1
    2742:	c09c                	sw	a5,0(s1)
    2744:	401c                	lw	a5,0(s0)
    2746:	0207f793          	andi	a5,a5,32
    274a:	c781                	beqz	a5,2752 <_printf_common+0x42>
    274c:	409c                	lw	a5,0(s1)
    274e:	0789                	addi	a5,a5,2
    2750:	c09c                	sw	a5,0(s1)
    2752:	00042903          	lw	s2,0(s0)
    2756:	00697913          	andi	s2,s2,6
    275a:	00091a63          	bnez	s2,276e <_printf_common+0x5e>
    275e:	01940b13          	addi	s6,s0,25
    2762:	5bfd                	li	s7,-1
    2764:	445c                	lw	a5,12(s0)
    2766:	4098                	lw	a4,0(s1)
    2768:	8f99                	sub	a5,a5,a4
    276a:	04f94c63          	blt	s2,a5,27c2 <_printf_common+0xb2>
    276e:	401c                	lw	a5,0(s0)
    2770:	04344683          	lbu	a3,67(s0)
    2774:	0207f793          	andi	a5,a5,32
    2778:	00d036b3          	snez	a3,a3
    277c:	eba5                	bnez	a5,27ec <_printf_common+0xdc>
    277e:	04340613          	addi	a2,s0,67
    2782:	85d2                	mv	a1,s4
    2784:	854e                	mv	a0,s3
    2786:	9a82                	jalr	s5
    2788:	57fd                	li	a5,-1
    278a:	04f50363          	beq	a0,a5,27d0 <_printf_common+0xc0>
    278e:	401c                	lw	a5,0(s0)
    2790:	4611                	li	a2,4
    2792:	4098                	lw	a4,0(s1)
    2794:	8b99                	andi	a5,a5,6
    2796:	4454                	lw	a3,12(s0)
    2798:	4481                	li	s1,0
    279a:	00c79763          	bne	a5,a2,27a8 <_printf_common+0x98>
    279e:	40e684b3          	sub	s1,a3,a4
    27a2:	0004d363          	bgez	s1,27a8 <_printf_common+0x98>
    27a6:	4481                	li	s1,0
    27a8:	441c                	lw	a5,8(s0)
    27aa:	4818                	lw	a4,16(s0)
    27ac:	00f75463          	bge	a4,a5,27b4 <_printf_common+0xa4>
    27b0:	8f99                	sub	a5,a5,a4
    27b2:	94be                	add	s1,s1,a5
    27b4:	4901                	li	s2,0
    27b6:	0469                	addi	s0,s0,26
    27b8:	5b7d                	li	s6,-1
    27ba:	05249863          	bne	s1,s2,280a <_printf_common+0xfa>
    27be:	4501                	li	a0,0
    27c0:	a809                	j	27d2 <_printf_common+0xc2>
    27c2:	4685                	li	a3,1
    27c4:	865a                	mv	a2,s6
    27c6:	85d2                	mv	a1,s4
    27c8:	854e                	mv	a0,s3
    27ca:	9a82                	jalr	s5
    27cc:	01751e63          	bne	a0,s7,27e8 <_printf_common+0xd8>
    27d0:	557d                	li	a0,-1
    27d2:	50b2                	lw	ra,44(sp)
    27d4:	5422                	lw	s0,40(sp)
    27d6:	5492                	lw	s1,36(sp)
    27d8:	5902                	lw	s2,32(sp)
    27da:	49f2                	lw	s3,28(sp)
    27dc:	4a62                	lw	s4,24(sp)
    27de:	4ad2                	lw	s5,20(sp)
    27e0:	4b42                	lw	s6,16(sp)
    27e2:	4bb2                	lw	s7,12(sp)
    27e4:	6145                	addi	sp,sp,48
    27e6:	8082                	ret
    27e8:	0905                	addi	s2,s2,1
    27ea:	bfad                	j	2764 <_printf_common+0x54>
    27ec:	00d40733          	add	a4,s0,a3
    27f0:	03000613          	li	a2,48
    27f4:	04c701a3          	sb	a2,67(a4)
    27f8:	04544703          	lbu	a4,69(s0)
    27fc:	00168793          	addi	a5,a3,1
    2800:	97a2                	add	a5,a5,s0
    2802:	0689                	addi	a3,a3,2
    2804:	04e781a3          	sb	a4,67(a5)
    2808:	bf9d                	j	277e <_printf_common+0x6e>
    280a:	4685                	li	a3,1
    280c:	8622                	mv	a2,s0
    280e:	85d2                	mv	a1,s4
    2810:	854e                	mv	a0,s3
    2812:	9a82                	jalr	s5
    2814:	fb650ee3          	beq	a0,s6,27d0 <_printf_common+0xc0>
    2818:	0905                	addi	s2,s2,1
    281a:	b745                	j	27ba <_printf_common+0xaa>

0000281c <_printf_i>:
_printf_i():
    281c:	7179                	addi	sp,sp,-48
    281e:	d422                	sw	s0,40(sp)
    2820:	d226                	sw	s1,36(sp)
    2822:	d04a                	sw	s2,32(sp)
    2824:	ce4e                	sw	s3,28(sp)
    2826:	d606                	sw	ra,44(sp)
    2828:	cc52                	sw	s4,24(sp)
    282a:	ca56                	sw	s5,20(sp)
    282c:	c85a                	sw	s6,16(sp)
    282e:	89b6                	mv	s3,a3
    2830:	0185c683          	lbu	a3,24(a1)
    2834:	06900793          	li	a5,105
    2838:	8932                	mv	s2,a2
    283a:	84aa                	mv	s1,a0
    283c:	842e                	mv	s0,a1
    283e:	04358613          	addi	a2,a1,67
    2842:	02f68d63          	beq	a3,a5,287c <_printf_i+0x60>
    2846:	06d7e263          	bltu	a5,a3,28aa <_printf_i+0x8e>
    284a:	05800793          	li	a5,88
    284e:	18f68763          	beq	a3,a5,29dc <_printf_i+0x1c0>
    2852:	00d7ed63          	bltu	a5,a3,286c <_printf_i+0x50>
    2856:	22068063          	beqz	a3,2a76 <_printf_i+0x25a>
    285a:	04300793          	li	a5,67
    285e:	0af68e63          	beq	a3,a5,291a <_printf_i+0xfe>
    2862:	04240a93          	addi	s5,s0,66
    2866:	04d40123          	sb	a3,66(s0)
    286a:	a0c9                	j	292c <_printf_i+0x110>
    286c:	06300793          	li	a5,99
    2870:	0af68563          	beq	a3,a5,291a <_printf_i+0xfe>
    2874:	06400793          	li	a5,100
    2878:	fef695e3          	bne	a3,a5,2862 <_printf_i+0x46>
    287c:	401c                	lw	a5,0(s0)
    287e:	4308                	lw	a0,0(a4)
    2880:	0807f693          	andi	a3,a5,128
    2884:	00450593          	addi	a1,a0,4
    2888:	c6c5                	beqz	a3,2930 <_printf_i+0x114>
    288a:	411c                	lw	a5,0(a0)
    288c:	c30c                	sw	a1,0(a4)
    288e:	0007d863          	bgez	a5,289e <_printf_i+0x82>
    2892:	02d00713          	li	a4,45
    2896:	40f007b3          	neg	a5,a5
    289a:	04e401a3          	sb	a4,67(s0)
    289e:	00000697          	auipc	a3,0x0
    28a2:	7ae68693          	addi	a3,a3,1966 # 304c <__sf_fake_stdout+0x34>
    28a6:	4729                	li	a4,10
    28a8:	a86d                	j	2962 <_printf_i+0x146>
    28aa:	07000793          	li	a5,112
    28ae:	16f68363          	beq	a3,a5,2a14 <_printf_i+0x1f8>
    28b2:	02d7e563          	bltu	a5,a3,28dc <_printf_i+0xc0>
    28b6:	06e00793          	li	a5,110
    28ba:	18f68a63          	beq	a3,a5,2a4e <_printf_i+0x232>
    28be:	06f00793          	li	a5,111
    28c2:	faf690e3          	bne	a3,a5,2862 <_printf_i+0x46>
    28c6:	400c                	lw	a1,0(s0)
    28c8:	431c                	lw	a5,0(a4)
    28ca:	0805f813          	andi	a6,a1,128
    28ce:	00478513          	addi	a0,a5,4
    28d2:	06080763          	beqz	a6,2940 <_printf_i+0x124>
    28d6:	c308                	sw	a0,0(a4)
    28d8:	439c                	lw	a5,0(a5)
    28da:	a88d                	j	294c <_printf_i+0x130>
    28dc:	07500793          	li	a5,117
    28e0:	fef683e3          	beq	a3,a5,28c6 <_printf_i+0xaa>
    28e4:	07800793          	li	a5,120
    28e8:	12f68a63          	beq	a3,a5,2a1c <_printf_i+0x200>
    28ec:	07300793          	li	a5,115
    28f0:	f6f699e3          	bne	a3,a5,2862 <_printf_i+0x46>
    28f4:	431c                	lw	a5,0(a4)
    28f6:	41d0                	lw	a2,4(a1)
    28f8:	4581                	li	a1,0
    28fa:	00478693          	addi	a3,a5,4
    28fe:	c314                	sw	a3,0(a4)
    2900:	0007aa83          	lw	s5,0(a5)
    2904:	8556                	mv	a0,s5
    2906:	2e95                	jal	2c7a <memchr>
    2908:	c501                	beqz	a0,2910 <_printf_i+0xf4>
    290a:	41550533          	sub	a0,a0,s5
    290e:	c048                	sw	a0,4(s0)
    2910:	405c                	lw	a5,4(s0)
    2912:	c81c                	sw	a5,16(s0)
    2914:	040401a3          	sb	zero,67(s0)
    2918:	a871                	j	29b4 <_printf_i+0x198>
    291a:	431c                	lw	a5,0(a4)
    291c:	04240a93          	addi	s5,s0,66
    2920:	00478693          	addi	a3,a5,4
    2924:	439c                	lw	a5,0(a5)
    2926:	c314                	sw	a3,0(a4)
    2928:	04f40123          	sb	a5,66(s0)
    292c:	4785                	li	a5,1
    292e:	b7d5                	j	2912 <_printf_i+0xf6>
    2930:	0407f693          	andi	a3,a5,64
    2934:	411c                	lw	a5,0(a0)
    2936:	c30c                	sw	a1,0(a4)
    2938:	dab9                	beqz	a3,288e <_printf_i+0x72>
    293a:	07c2                	slli	a5,a5,0x10
    293c:	87c1                	srai	a5,a5,0x10
    293e:	bf81                	j	288e <_printf_i+0x72>
    2940:	0405f593          	andi	a1,a1,64
    2944:	c308                	sw	a0,0(a4)
    2946:	d9c9                	beqz	a1,28d8 <_printf_i+0xbc>
    2948:	0007d783          	lhu	a5,0(a5)
    294c:	06f00713          	li	a4,111
    2950:	0ee68763          	beq	a3,a4,2a3e <_printf_i+0x222>
    2954:	00000697          	auipc	a3,0x0
    2958:	6f868693          	addi	a3,a3,1784 # 304c <__sf_fake_stdout+0x34>
    295c:	4729                	li	a4,10
    295e:	040401a3          	sb	zero,67(s0)
    2962:	404c                	lw	a1,4(s0)
    2964:	c40c                	sw	a1,8(s0)
    2966:	0005c563          	bltz	a1,2970 <_printf_i+0x154>
    296a:	4008                	lw	a0,0(s0)
    296c:	996d                	andi	a0,a0,-5
    296e:	c008                	sw	a0,0(s0)
    2970:	e399                	bnez	a5,2976 <_printf_i+0x15a>
    2972:	8ab2                	mv	s5,a2
    2974:	cd91                	beqz	a1,2990 <_printf_i+0x174>
    2976:	8ab2                	mv	s5,a2
    2978:	02e7f5b3          	remu	a1,a5,a4
    297c:	1afd                	addi	s5,s5,-1
    297e:	95b6                	add	a1,a1,a3
    2980:	0005c583          	lbu	a1,0(a1)
    2984:	00ba8023          	sb	a1,0(s5)
    2988:	02e7d5b3          	divu	a1,a5,a4
    298c:	0ae7ff63          	bgeu	a5,a4,2a4a <_printf_i+0x22e>
    2990:	47a1                	li	a5,8
    2992:	00f71e63          	bne	a4,a5,29ae <_printf_i+0x192>
    2996:	401c                	lw	a5,0(s0)
    2998:	8b85                	andi	a5,a5,1
    299a:	cb91                	beqz	a5,29ae <_printf_i+0x192>
    299c:	4058                	lw	a4,4(s0)
    299e:	481c                	lw	a5,16(s0)
    29a0:	00e7c763          	blt	a5,a4,29ae <_printf_i+0x192>
    29a4:	03000793          	li	a5,48
    29a8:	fefa8fa3          	sb	a5,-1(s5)
    29ac:	1afd                	addi	s5,s5,-1
    29ae:	41560633          	sub	a2,a2,s5
    29b2:	c810                	sw	a2,16(s0)
    29b4:	874e                	mv	a4,s3
    29b6:	86ca                	mv	a3,s2
    29b8:	0070                	addi	a2,sp,12
    29ba:	85a2                	mv	a1,s0
    29bc:	8526                	mv	a0,s1
    29be:	3b89                	jal	2710 <_printf_common>
    29c0:	5a7d                	li	s4,-1
    29c2:	0b451e63          	bne	a0,s4,2a7e <_printf_i+0x262>
    29c6:	557d                	li	a0,-1
    29c8:	50b2                	lw	ra,44(sp)
    29ca:	5422                	lw	s0,40(sp)
    29cc:	5492                	lw	s1,36(sp)
    29ce:	5902                	lw	s2,32(sp)
    29d0:	49f2                	lw	s3,28(sp)
    29d2:	4a62                	lw	s4,24(sp)
    29d4:	4ad2                	lw	s5,20(sp)
    29d6:	4b42                	lw	s6,16(sp)
    29d8:	6145                	addi	sp,sp,48
    29da:	8082                	ret
    29dc:	04d582a3          	sb	a3,69(a1)
    29e0:	00000697          	auipc	a3,0x0
    29e4:	66c68693          	addi	a3,a3,1644 # 304c <__sf_fake_stdout+0x34>
    29e8:	400c                	lw	a1,0(s0)
    29ea:	4308                	lw	a0,0(a4)
    29ec:	0805f813          	andi	a6,a1,128
    29f0:	411c                	lw	a5,0(a0)
    29f2:	0511                	addi	a0,a0,4
    29f4:	02080d63          	beqz	a6,2a2e <_printf_i+0x212>
    29f8:	c308                	sw	a0,0(a4)
    29fa:	0015f713          	andi	a4,a1,1
    29fe:	c701                	beqz	a4,2a06 <_printf_i+0x1ea>
    2a00:	0205e593          	ori	a1,a1,32
    2a04:	c00c                	sw	a1,0(s0)
    2a06:	4741                	li	a4,16
    2a08:	fbb9                	bnez	a5,295e <_printf_i+0x142>
    2a0a:	400c                	lw	a1,0(s0)
    2a0c:	fdf5f593          	andi	a1,a1,-33
    2a10:	c00c                	sw	a1,0(s0)
    2a12:	b7b1                	j	295e <_printf_i+0x142>
    2a14:	419c                	lw	a5,0(a1)
    2a16:	0207e793          	ori	a5,a5,32
    2a1a:	c19c                	sw	a5,0(a1)
    2a1c:	07800793          	li	a5,120
    2a20:	04f402a3          	sb	a5,69(s0)
    2a24:	00000697          	auipc	a3,0x0
    2a28:	63c68693          	addi	a3,a3,1596 # 3060 <__sf_fake_stdout+0x48>
    2a2c:	bf75                	j	29e8 <_printf_i+0x1cc>
    2a2e:	0405f813          	andi	a6,a1,64
    2a32:	c308                	sw	a0,0(a4)
    2a34:	fc0803e3          	beqz	a6,29fa <_printf_i+0x1de>
    2a38:	07c2                	slli	a5,a5,0x10
    2a3a:	83c1                	srli	a5,a5,0x10
    2a3c:	bf7d                	j	29fa <_printf_i+0x1de>
    2a3e:	00000697          	auipc	a3,0x0
    2a42:	60e68693          	addi	a3,a3,1550 # 304c <__sf_fake_stdout+0x34>
    2a46:	4721                	li	a4,8
    2a48:	bf19                	j	295e <_printf_i+0x142>
    2a4a:	87ae                	mv	a5,a1
    2a4c:	b735                	j	2978 <_printf_i+0x15c>
    2a4e:	4194                	lw	a3,0(a1)
    2a50:	431c                	lw	a5,0(a4)
    2a52:	49cc                	lw	a1,20(a1)
    2a54:	0806f813          	andi	a6,a3,128
    2a58:	00478513          	addi	a0,a5,4
    2a5c:	00080663          	beqz	a6,2a68 <_printf_i+0x24c>
    2a60:	c308                	sw	a0,0(a4)
    2a62:	439c                	lw	a5,0(a5)
    2a64:	c38c                	sw	a1,0(a5)
    2a66:	a801                	j	2a76 <_printf_i+0x25a>
    2a68:	c308                	sw	a0,0(a4)
    2a6a:	0406f693          	andi	a3,a3,64
    2a6e:	439c                	lw	a5,0(a5)
    2a70:	daf5                	beqz	a3,2a64 <_printf_i+0x248>
    2a72:	00b79023          	sh	a1,0(a5)
    2a76:	00042823          	sw	zero,16(s0)
    2a7a:	8ab2                	mv	s5,a2
    2a7c:	bf25                	j	29b4 <_printf_i+0x198>
    2a7e:	4814                	lw	a3,16(s0)
    2a80:	8656                	mv	a2,s5
    2a82:	85ca                	mv	a1,s2
    2a84:	8526                	mv	a0,s1
    2a86:	9982                	jalr	s3
    2a88:	f3450fe3          	beq	a0,s4,29c6 <_printf_i+0x1aa>
    2a8c:	401c                	lw	a5,0(s0)
    2a8e:	8b89                	andi	a5,a5,2
    2a90:	e78d                	bnez	a5,2aba <_printf_i+0x29e>
    2a92:	47b2                	lw	a5,12(sp)
    2a94:	4448                	lw	a0,12(s0)
    2a96:	f2f559e3          	bge	a0,a5,29c8 <_printf_i+0x1ac>
    2a9a:	853e                	mv	a0,a5
    2a9c:	b735                	j	29c8 <_printf_i+0x1ac>
    2a9e:	4685                	li	a3,1
    2aa0:	8656                	mv	a2,s5
    2aa2:	85ca                	mv	a1,s2
    2aa4:	8526                	mv	a0,s1
    2aa6:	9982                	jalr	s3
    2aa8:	f1650fe3          	beq	a0,s6,29c6 <_printf_i+0x1aa>
    2aac:	0a05                	addi	s4,s4,1
    2aae:	445c                	lw	a5,12(s0)
    2ab0:	4732                	lw	a4,12(sp)
    2ab2:	8f99                	sub	a5,a5,a4
    2ab4:	fefa45e3          	blt	s4,a5,2a9e <_printf_i+0x282>
    2ab8:	bfe9                	j	2a92 <_printf_i+0x276>
    2aba:	4a01                	li	s4,0
    2abc:	01940a93          	addi	s5,s0,25
    2ac0:	5b7d                	li	s6,-1
    2ac2:	b7f5                	j	2aae <_printf_i+0x292>

00002ac4 <_sbrk_r>:
_sbrk_r():
    2ac4:	1141                	addi	sp,sp,-16
    2ac6:	c422                	sw	s0,8(sp)
    2ac8:	842a                	mv	s0,a0
    2aca:	852e                	mv	a0,a1
    2acc:	8601a823          	sw	zero,-1936(gp) # 20000120 <errno>
    2ad0:	c606                	sw	ra,12(sp)
    2ad2:	243d                	jal	2d00 <_sbrk>
    2ad4:	57fd                	li	a5,-1
    2ad6:	00f51763          	bne	a0,a5,2ae4 <_sbrk_r+0x20>
    2ada:	87018793          	addi	a5,gp,-1936 # 20000120 <errno>
    2ade:	439c                	lw	a5,0(a5)
    2ae0:	c391                	beqz	a5,2ae4 <_sbrk_r+0x20>
    2ae2:	c01c                	sw	a5,0(s0)
    2ae4:	40b2                	lw	ra,12(sp)
    2ae6:	4422                	lw	s0,8(sp)
    2ae8:	0141                	addi	sp,sp,16
    2aea:	8082                	ret

00002aec <__sread>:
__sread():
    2aec:	1141                	addi	sp,sp,-16
    2aee:	c422                	sw	s0,8(sp)
    2af0:	842e                	mv	s0,a1
    2af2:	00e59583          	lh	a1,14(a1)
    2af6:	c606                	sw	ra,12(sp)
    2af8:	2245                	jal	2c98 <_read_r>
    2afa:	00054963          	bltz	a0,2b0c <__sread+0x20>
    2afe:	487c                	lw	a5,84(s0)
    2b00:	97aa                	add	a5,a5,a0
    2b02:	c87c                	sw	a5,84(s0)
    2b04:	40b2                	lw	ra,12(sp)
    2b06:	4422                	lw	s0,8(sp)
    2b08:	0141                	addi	sp,sp,16
    2b0a:	8082                	ret
    2b0c:	00c45783          	lhu	a5,12(s0)
    2b10:	777d                	lui	a4,0xfffff
    2b12:	177d                	addi	a4,a4,-1
    2b14:	8ff9                	and	a5,a5,a4
    2b16:	00f41623          	sh	a5,12(s0)
    2b1a:	b7ed                	j	2b04 <__sread+0x18>

00002b1c <__swrite>:
__swrite():
    2b1c:	00c5d783          	lhu	a5,12(a1)
    2b20:	1101                	addi	sp,sp,-32
    2b22:	cc22                	sw	s0,24(sp)
    2b24:	ca26                	sw	s1,20(sp)
    2b26:	c84a                	sw	s2,16(sp)
    2b28:	c64e                	sw	s3,12(sp)
    2b2a:	ce06                	sw	ra,28(sp)
    2b2c:	1007f793          	andi	a5,a5,256
    2b30:	84aa                	mv	s1,a0
    2b32:	842e                	mv	s0,a1
    2b34:	8932                	mv	s2,a2
    2b36:	89b6                	mv	s3,a3
    2b38:	c791                	beqz	a5,2b44 <__swrite+0x28>
    2b3a:	00e59583          	lh	a1,14(a1)
    2b3e:	4689                	li	a3,2
    2b40:	4601                	li	a2,0
    2b42:	2231                	jal	2c4e <_lseek_r>
    2b44:	00c45783          	lhu	a5,12(s0)
    2b48:	777d                	lui	a4,0xfffff
    2b4a:	177d                	addi	a4,a4,-1
    2b4c:	8ff9                	and	a5,a5,a4
    2b4e:	00f41623          	sh	a5,12(s0)
    2b52:	00e41583          	lh	a1,14(s0)
    2b56:	4462                	lw	s0,24(sp)
    2b58:	40f2                	lw	ra,28(sp)
    2b5a:	86ce                	mv	a3,s3
    2b5c:	864a                	mv	a2,s2
    2b5e:	49b2                	lw	s3,12(sp)
    2b60:	4942                	lw	s2,16(sp)
    2b62:	8526                	mv	a0,s1
    2b64:	44d2                	lw	s1,20(sp)
    2b66:	6105                	addi	sp,sp,32
    2b68:	a83d                	j	2ba6 <_write_r>

00002b6a <__sseek>:
__sseek():
    2b6a:	1141                	addi	sp,sp,-16
    2b6c:	c422                	sw	s0,8(sp)
    2b6e:	842e                	mv	s0,a1
    2b70:	00e59583          	lh	a1,14(a1)
    2b74:	c606                	sw	ra,12(sp)
    2b76:	28e1                	jal	2c4e <_lseek_r>
    2b78:	57fd                	li	a5,-1
    2b7a:	00c45703          	lhu	a4,12(s0)
    2b7e:	00f51b63          	bne	a0,a5,2b94 <__sseek+0x2a>
    2b82:	77fd                	lui	a5,0xfffff
    2b84:	17fd                	addi	a5,a5,-1
    2b86:	8ff9                	and	a5,a5,a4
    2b88:	00f41623          	sh	a5,12(s0)
    2b8c:	40b2                	lw	ra,12(sp)
    2b8e:	4422                	lw	s0,8(sp)
    2b90:	0141                	addi	sp,sp,16
    2b92:	8082                	ret
    2b94:	6785                	lui	a5,0x1
    2b96:	8fd9                	or	a5,a5,a4
    2b98:	00f41623          	sh	a5,12(s0)
    2b9c:	c868                	sw	a0,84(s0)
    2b9e:	b7fd                	j	2b8c <__sseek+0x22>

00002ba0 <__sclose>:
__sclose():
    2ba0:	00e59583          	lh	a1,14(a1)
    2ba4:	a805                	j	2bd4 <_close_r>

00002ba6 <_write_r>:
_write_r():
    2ba6:	1141                	addi	sp,sp,-16
    2ba8:	c422                	sw	s0,8(sp)
    2baa:	842a                	mv	s0,a0
    2bac:	852e                	mv	a0,a1
    2bae:	85b2                	mv	a1,a2
    2bb0:	8636                	mv	a2,a3
    2bb2:	8601a823          	sw	zero,-1936(gp) # 20000120 <errno>
    2bb6:	c606                	sw	ra,12(sp)
    2bb8:	e29fe0ef          	jal	ra,19e0 <_write>
    2bbc:	57fd                	li	a5,-1
    2bbe:	00f51763          	bne	a0,a5,2bcc <_write_r+0x26>
    2bc2:	87018793          	addi	a5,gp,-1936 # 20000120 <errno>
    2bc6:	439c                	lw	a5,0(a5)
    2bc8:	c391                	beqz	a5,2bcc <_write_r+0x26>
    2bca:	c01c                	sw	a5,0(s0)
    2bcc:	40b2                	lw	ra,12(sp)
    2bce:	4422                	lw	s0,8(sp)
    2bd0:	0141                	addi	sp,sp,16
    2bd2:	8082                	ret

00002bd4 <_close_r>:
_close_r():
    2bd4:	1141                	addi	sp,sp,-16
    2bd6:	c422                	sw	s0,8(sp)
    2bd8:	842a                	mv	s0,a0
    2bda:	852e                	mv	a0,a1
    2bdc:	8601a823          	sw	zero,-1936(gp) # 20000120 <errno>
    2be0:	c606                	sw	ra,12(sp)
    2be2:	20cd                	jal	2cc4 <_close>
    2be4:	57fd                	li	a5,-1
    2be6:	00f51763          	bne	a0,a5,2bf4 <_close_r+0x20>
    2bea:	87018793          	addi	a5,gp,-1936 # 20000120 <errno>
    2bee:	439c                	lw	a5,0(a5)
    2bf0:	c391                	beqz	a5,2bf4 <_close_r+0x20>
    2bf2:	c01c                	sw	a5,0(s0)
    2bf4:	40b2                	lw	ra,12(sp)
    2bf6:	4422                	lw	s0,8(sp)
    2bf8:	0141                	addi	sp,sp,16
    2bfa:	8082                	ret

00002bfc <_fstat_r>:
_fstat_r():
    2bfc:	1141                	addi	sp,sp,-16
    2bfe:	c422                	sw	s0,8(sp)
    2c00:	842a                	mv	s0,a0
    2c02:	852e                	mv	a0,a1
    2c04:	85b2                	mv	a1,a2
    2c06:	8601a823          	sw	zero,-1936(gp) # 20000120 <errno>
    2c0a:	c606                	sw	ra,12(sp)
    2c0c:	20d1                	jal	2cd0 <_fstat>
    2c0e:	57fd                	li	a5,-1
    2c10:	00f51763          	bne	a0,a5,2c1e <_fstat_r+0x22>
    2c14:	87018793          	addi	a5,gp,-1936 # 20000120 <errno>
    2c18:	439c                	lw	a5,0(a5)
    2c1a:	c391                	beqz	a5,2c1e <_fstat_r+0x22>
    2c1c:	c01c                	sw	a5,0(s0)
    2c1e:	40b2                	lw	ra,12(sp)
    2c20:	4422                	lw	s0,8(sp)
    2c22:	0141                	addi	sp,sp,16
    2c24:	8082                	ret

00002c26 <_isatty_r>:
_isatty_r():
    2c26:	1141                	addi	sp,sp,-16
    2c28:	c422                	sw	s0,8(sp)
    2c2a:	842a                	mv	s0,a0
    2c2c:	852e                	mv	a0,a1
    2c2e:	8601a823          	sw	zero,-1936(gp) # 20000120 <errno>
    2c32:	c606                	sw	ra,12(sp)
    2c34:	2065                	jal	2cdc <_isatty>
    2c36:	57fd                	li	a5,-1
    2c38:	00f51763          	bne	a0,a5,2c46 <_isatty_r+0x20>
    2c3c:	87018793          	addi	a5,gp,-1936 # 20000120 <errno>
    2c40:	439c                	lw	a5,0(a5)
    2c42:	c391                	beqz	a5,2c46 <_isatty_r+0x20>
    2c44:	c01c                	sw	a5,0(s0)
    2c46:	40b2                	lw	ra,12(sp)
    2c48:	4422                	lw	s0,8(sp)
    2c4a:	0141                	addi	sp,sp,16
    2c4c:	8082                	ret

00002c4e <_lseek_r>:
_lseek_r():
    2c4e:	1141                	addi	sp,sp,-16
    2c50:	c422                	sw	s0,8(sp)
    2c52:	842a                	mv	s0,a0
    2c54:	852e                	mv	a0,a1
    2c56:	85b2                	mv	a1,a2
    2c58:	8636                	mv	a2,a3
    2c5a:	8601a823          	sw	zero,-1936(gp) # 20000120 <errno>
    2c5e:	c606                	sw	ra,12(sp)
    2c60:	2061                	jal	2ce8 <_lseek>
    2c62:	57fd                	li	a5,-1
    2c64:	00f51763          	bne	a0,a5,2c72 <_lseek_r+0x24>
    2c68:	87018793          	addi	a5,gp,-1936 # 20000120 <errno>
    2c6c:	439c                	lw	a5,0(a5)
    2c6e:	c391                	beqz	a5,2c72 <_lseek_r+0x24>
    2c70:	c01c                	sw	a5,0(s0)
    2c72:	40b2                	lw	ra,12(sp)
    2c74:	4422                	lw	s0,8(sp)
    2c76:	0141                	addi	sp,sp,16
    2c78:	8082                	ret

00002c7a <memchr>:
memchr():
    2c7a:	0ff5f593          	andi	a1,a1,255
    2c7e:	962a                	add	a2,a2,a0
    2c80:	00c51463          	bne	a0,a2,2c88 <memchr+0xe>
    2c84:	4501                	li	a0,0
    2c86:	8082                	ret
    2c88:	00054783          	lbu	a5,0(a0)
    2c8c:	feb78de3          	beq	a5,a1,2c86 <memchr+0xc>
    2c90:	0505                	addi	a0,a0,1
    2c92:	b7fd                	j	2c80 <memchr+0x6>

00002c94 <__malloc_lock>:
__malloc_lock():
    2c94:	8082                	ret

00002c96 <__malloc_unlock>:
__malloc_unlock():
    2c96:	8082                	ret

00002c98 <_read_r>:
_read_r():
    2c98:	1141                	addi	sp,sp,-16
    2c9a:	c422                	sw	s0,8(sp)
    2c9c:	842a                	mv	s0,a0
    2c9e:	852e                	mv	a0,a1
    2ca0:	85b2                	mv	a1,a2
    2ca2:	8636                	mv	a2,a3
    2ca4:	8601a823          	sw	zero,-1936(gp) # 20000120 <errno>
    2ca8:	c606                	sw	ra,12(sp)
    2caa:	20a9                	jal	2cf4 <_read>
    2cac:	57fd                	li	a5,-1
    2cae:	00f51763          	bne	a0,a5,2cbc <_read_r+0x24>
    2cb2:	87018793          	addi	a5,gp,-1936 # 20000120 <errno>
    2cb6:	439c                	lw	a5,0(a5)
    2cb8:	c391                	beqz	a5,2cbc <_read_r+0x24>
    2cba:	c01c                	sw	a5,0(s0)
    2cbc:	40b2                	lw	ra,12(sp)
    2cbe:	4422                	lw	s0,8(sp)
    2cc0:	0141                	addi	sp,sp,16
    2cc2:	8082                	ret

00002cc4 <_close>:
_close():
    2cc4:	05800793          	li	a5,88
    2cc8:	86f1a823          	sw	a5,-1936(gp) # 20000120 <errno>
    2ccc:	557d                	li	a0,-1
    2cce:	8082                	ret

00002cd0 <_fstat>:
_fstat():
    2cd0:	05800793          	li	a5,88
    2cd4:	86f1a823          	sw	a5,-1936(gp) # 20000120 <errno>
    2cd8:	557d                	li	a0,-1
    2cda:	8082                	ret

00002cdc <_isatty>:
_isatty():
    2cdc:	05800793          	li	a5,88
    2ce0:	86f1a823          	sw	a5,-1936(gp) # 20000120 <errno>
    2ce4:	4501                	li	a0,0
    2ce6:	8082                	ret

00002ce8 <_lseek>:
_lseek():
    2ce8:	05800793          	li	a5,88
    2cec:	86f1a823          	sw	a5,-1936(gp) # 20000120 <errno>
    2cf0:	557d                	li	a0,-1
    2cf2:	8082                	ret

00002cf4 <_read>:
_read():
    2cf4:	05800793          	li	a5,88
    2cf8:	86f1a823          	sw	a5,-1936(gp) # 20000120 <errno>
    2cfc:	557d                	li	a0,-1
    2cfe:	8082                	ret

00002d00 <_sbrk>:
_sbrk():
    2d00:	86418793          	addi	a5,gp,-1948 # 20000114 <heap_end.1518>
    2d04:	439c                	lw	a5,0(a5)
    2d06:	c791                	beqz	a5,2d12 <_sbrk+0x12>
    2d08:	953e                	add	a0,a0,a5
    2d0a:	86a1a223          	sw	a0,-1948(gp) # 20000114 <heap_end.1518>
    2d0e:	853e                	mv	a0,a5
    2d10:	8082                	ret
    2d12:	87418793          	addi	a5,gp,-1932 # 20000124 <_ebss>
    2d16:	953e                	add	a0,a0,a5
    2d18:	86a1a223          	sw	a0,-1948(gp) # 20000114 <heap_end.1518>
    2d1c:	853e                	mv	a0,a5
    2d1e:	8082                	ret

00002d20 <BOSDescriptor>:
    2d20:	0f05 0016 0702 0210 0006 0000 100a 0003     ................
    2d30:	000e 0a01 07ff 0000 5355 5342 2d53 4c3e     ........USBSS->L
    2d40:	4e49 5f4b 4e49 5f54 4c46 4741 2620 4c20     INK_INT_FLAG & L
    2d50:	4e49 5f4b 4944 4153 4c42 5f45 4c46 4741     INK_DISABLE_FLAG
    2d60:	2c20 5520 4253 3033 5f44 6e69 7469 4428      , USB30D_init(D
    2d70:	5349 4241 454c 0029                         ISABLE).

00002d78 <OSStringDescriptor>:
    2d78:	0312 004d 0053 0046 0054 0031 0030 0030     ..M.S.F.T.1.0.0.
    2d88:	0001 0000                                   ....

00002d8c <PropertyHeader>:
    2d8c:	008e 0000 0100 0005 0001 0084 0000 0001     ................
    2d9c:	0000 0028 0044 0065 0076 0069 0063 0065     ..(.D.e.v.i.c.e.
    2dac:	0049 006e 0074 0065 0072 0066 0061 0063     I.n.t.e.r.f.a.c.
    2dbc:	0065 0047 0055 0049 0044 0000 004e 0000     e.G.U.I.D...N...
    2dcc:	007b 0031 0032 0033 0034 0035 0036 0037     {.1.2.3.4.5.6.7.
    2ddc:	0038 002d 0031 0032 0033 0034 002d 0031     8.-.1.2.3.4.-.1.
    2dec:	0032 0033 0034 002d 0031 0032 0033 0034     2.3.4.-.1.2.3.4.
    2dfc:	002d 0031 0032 0033 0034 0035 0036 0037     -.1.2.3.4.5.6.7.
    2e0c:	0038 0039 0041 0042 0043 007d 0000 0000     8.9.A.B.C.}.....

00002e1c <SS_ConfigDescriptor>:
    2e1c:	0209 002c 0101 8000 0964 0004 0200 ffff     ..,.....d.......
    2e2c:	00ff 0507 0281 0400 0600 0230 0000 0700     ..........0.....
    2e3c:	0105 0002 0004 3006 0003 0000               .......0....

00002e48 <SS_DeviceDescriptor>:
    2e48:	0112 0300 80ff 0955 1a86 5537 0100 0201     ......U...7U....
    2e58:	0103 0000                                   ....

00002e5c <StringProduct>:
    2e5c:	0326 0057 0043 0048 0020 0055 0053 0042     &.W.C.H. .U.S.B.
    2e6c:	0033 002e 0030 0020 0044 0045 0056 0049     3...0. .D.E.V.I.
    2e7c:	0043 0045 0020 0000 5355 3342 302e 6420     C.E. ...USB3.0 d
    2e8c:	7369 6261 656c 0000 694c 6b6e 535f 6174     isable..Link_Sta
    2e9c:	2120 203d 494c 4b4e 535f 4154 335f 2c20      != LINK_STA_3 ,
    2eac:	5520 4253 3033 5f44 6e69 7469 4428 5349      USB30D_init(DIS
    2ebc:	4241 454c 0029 0000 6e49 7469 6520 7272     ABLE)...Init err
    2ecc:	0000 0000 116a 0000 106c 0000 0f5c 0000     ....j...l...\...
    2edc:	10ee 0000 0f5c 0000 0fa0 0000 0ef0 0000     ....\...........
    2eec:	0f5c 0000 101c 0000 1028 0000 0fac 0000     \.......(.......
    2efc:	0fac 0000                                   ....

00002f00 <hs_config_descriptor>:
    2f00:	0209 0020 0101 8000 0964 0004 0200 ffff     .. .....d.......
    2f10:	00ff 0507 0281 0200 0700 0105 0002 0002     ................

00002f20 <hs_device_descriptor>:
    2f20:	0112 0200 0000 4000 1a86 5537 1100 0201     .......@..7U....
    2f30:	0100 0000                                   ....

00002f34 <hs_string_descriptor2>:
    2f34:	0326 0057 0043 0048 0020 0055 0053 0042     &.W.C.H. .U.S.B.
    2f44:	0032 002e 0030 0020 0044 0045 0056 0049     2...0. .D.E.V.I.
    2f54:	0043 0045 0020 0000 2d0a 2d2d 2d2d 2d2d     C.E. ....-------
    2f64:	0a2d 5243 2043 7265 0072 0000 2d0a 2d2d     -.CRC err....---
    2f74:	2d2d 2d2d 0a2d 554e 5f4d 494d 2053 7265     -----.NUM_MIS er
    2f84:	0072 0000 455b 5252 524f 205d 4946 4f46     r...[ERROR] FIFO
    2f94:	6620 6c75 006c 0000 4946 4f46 4f20 0d56      full...FIFO OV.
    2fa4:	0000 0000 0a0a 0a0a 0a0a 2b0a 2b2b 2b2b     ...........+++++
    2fb4:	2b2b 2b2b 2b2b 2b2b 2b2b 002b 7453 7261     +++++++++++.Star
    2fc4:	2074 4340 6968 4970 3d44 3025 5838 0a0d     t @ChipID=%08X..
    2fd4:	0000 0000                                   ....

00002fd8 <__sf_fake_stderr>:
	...

00002ff8 <__sf_fake_stdin>:
	...

00003018 <__sf_fake_stdout>:
	...
    3038:	2d23 2b30 0020 0000 6c68 004c 6665 4567     #-0+ ...hlL.efgE
    3048:	4746 0000 3130 3332 3534 3736 3938 4241     FG..0123456789AB
    3058:	4443 4645 0000 0000 3130 3332 3534 3736     CDEF....01234567
    3068:	3938 6261 6463 6665 0000 0000               89abcdef....
