
hspi_usb3_ping_pong.elf:     file format elf32-littleriscv
hspi_usb3_ping_pong.elf
architecture: riscv:rv32, flags 0x00000112:
EXEC_P, HAS_SYMS, D_PAGED
start address 0x00000000

Program Header:
    LOAD off    0x00001000 vaddr 0x00000000 paddr 0x00000000 align 2**12
         filesz 0x0000283c memsz 0x0000283c flags r-x
    LOAD off    0x00004000 vaddr 0x20000000 paddr 0x0000283c align 2**12
         filesz 0x000000c8 memsz 0x00000100 flags rw-
    LOAD off    0x00005000 vaddr 0x20020000 paddr 0x00002904 align 2**12
         filesz 0x00002200 memsz 0x00002200 flags rw-
    LOAD off    0x00007800 vaddr 0x20003800 paddr 0x20003800 align 2**12
         filesz 0x00000000 memsz 0x00000800 flags rw-

Sections:
Idx Name           Size      VMA       LMA       File off  Algn  Flags
  0 .init          00000004  00000000  00000000  00001000  2**1  CONTENTS, ALLOC, LOAD, READONLY, CODE
  1 .vector        000000bc  00000004  00000004  00001004  2**1  CONTENTS, ALLOC, LOAD, READONLY, CODE
  2 .hclib         00000000  00000000  00000000  00007200  2**0  CONTENTS
  3 .text          0000277c  000000c0  000000c0  000010c0  2**2  CONTENTS, ALLOC, LOAD, READONLY, CODE
  4 .fini          00000000  0000283c  0000283c  00007200  2**0  CONTENTS, ALLOC, LOAD, CODE
  5 .dalign        00000000  20000000  20000000  00007200  2**0  CONTENTS
  6 .dlalign       00000000  0000283c  0000283c  00007200  2**0  CONTENTS
  7 .data          000000c8  20000000  0000283c  00004000  2**2  CONTENTS, ALLOC, LOAD, DATA
  8 .bss           00000038  200000c8  00002904  000040c8  2**2  ALLOC
  9 .DMADATA       00002200  20020000  00002904  00005000  2**4  CONTENTS, ALLOC, LOAD, DATA
 10 .stack         00000800  20003800  20003800  00007800  2**0  ALLOC
 11 .debug_info    00005f38  00000000  00000000  00007200  2**0  CONTENTS, READONLY, DEBUGGING
 12 .debug_abbrev  00001204  00000000  00000000  0000d138  2**0  CONTENTS, READONLY, DEBUGGING
 13 .debug_loc     00000670  00000000  00000000  0000e33c  2**0  CONTENTS, READONLY, DEBUGGING
 14 .debug_aranges 00000220  00000000  00000000  0000e9b0  2**3  CONTENTS, READONLY, DEBUGGING
 15 .debug_ranges  000001e8  00000000  00000000  0000ebd0  2**3  CONTENTS, READONLY, DEBUGGING
 16 .debug_line    00003aa3  00000000  00000000  0000edb8  2**0  CONTENTS, READONLY, DEBUGGING
 17 .debug_str     000012ec  00000000  00000000  0001285b  2**0  CONTENTS, READONLY, DEBUGGING
 18 .comment       00000033  00000000  00000000  00013b47  2**0  CONTENTS, READONLY
 19 .debug_frame   00000e20  00000000  00000000  00013b7c  2**2  CONTENTS, READONLY, DEBUGGING
 20 .stab          00000084  00000000  00000000  0001499c  2**2  CONTENTS, READONLY, DEBUGGING
 21 .stabstr       00000117  00000000  00000000  00014a20  2**0  CONTENTS, READONLY, DEBUGGING
SYMBOL TABLE:
00000000 l    d  .init	00000000 .init
00000004 l    d  .vector	00000000 .vector
00000000 l    d  .hclib	00000000 .hclib
000000c0 l    d  .text	00000000 .text
0000283c l    d  .fini	00000000 .fini
20000000 l    d  .dalign	00000000 .dalign
0000283c l    d  .dlalign	00000000 .dlalign
20000000 l    d  .data	00000000 .data
200000c8 l    d  .bss	00000000 .bss
20020000 l    d  .DMADATA	00000000 .DMADATA
20003800 l    d  .stack	00000000 .stack
00000000 l    d  .debug_info	00000000 .debug_info
00000000 l    d  .debug_abbrev	00000000 .debug_abbrev
00000000 l    d  .debug_loc	00000000 .debug_loc
00000000 l    d  .debug_aranges	00000000 .debug_aranges
00000000 l    d  .debug_ranges	00000000 .debug_ranges
00000000 l    d  .debug_line	00000000 .debug_line
00000000 l    d  .debug_str	00000000 .debug_str
00000000 l    d  .comment	00000000 .comment
00000000 l    d  .debug_frame	00000000 .debug_frame
00000000 l    d  .stab	00000000 .stab
00000000 l    d  .stabstr	00000000 .stabstr
00000000 l    df *ABS*	00000000 ./Startup/startup_CH56x.o
00000004 l       .vector	00000000 _vector_base
00000000 l    df *ABS*	00000000 usb30_int.c
200000e6 l     O .bss	00000001 count_IN
200000e5 l     O .bss	00000001 count_OUT
00000000 l    df *ABS*	00000000 CH56x_usb30.c
00000652 l     F .text	00000018 PFIC_DisableIRQ
0000066a l     F .text	00000030 USB30D_init.part.0
200000cc l     O .bss	00000004 SetupLen
200000d0 l     O .bss	00000001 SetupReqCode
200000d4 l     O .bss	00000004 pDescr
00000000 l    df *ABS*	00000000 hspi.c
200000dc l     O .bss	00000004 Rx_Cnt.4026
00000000 l    df *ABS*	00000000 Main.c
00000000 l    df *ABS*	00000000 CH56x_clk.c
00000000 l    df *ABS*	00000000 CH56x_sys.c
200000e2 l     O .bss	00000002 p_ms
200000e4 l     O .bss	00000001 p_us
00000000 l    df *ABS*	00000000 CH56x_timer.c
00000000 l    df *ABS*	00000000 memcpy.c
00000000 l    df *ABS*	00000000 printf.c
00000000 l    df *ABS*	00000000 puts.c
00000000 l    df *ABS*	00000000 wbuf.c
00000000 l    df *ABS*	00000000 wsetup.c
00000000 l    df *ABS*	00000000 fflush.c
00000000 l    df *ABS*	00000000 findfp.c
000017e4 l     F .text	0000006a std
00000000 l    df *ABS*	00000000 fwalk.c
00000000 l    df *ABS*	00000000 makebuf.c
00000000 l    df *ABS*	00000000 nano-mallocr.c
00000000 l    df *ABS*	00000000 nano-mallocr.c
00000000 l    df *ABS*	00000000 nano-vfprintf.c
00001c80 l     F .text	0000002a __sfputc_r
00000000 l    df *ABS*	00000000 nano-vfprintf_i.c
00000000 l    df *ABS*	00000000 sbrkr.c
00000000 l    df *ABS*	00000000 stdio.c
00000000 l    df *ABS*	00000000 writer.c
00000000 l    df *ABS*	00000000 closer.c
00000000 l    df *ABS*	00000000 fstatr.c
00000000 l    df *ABS*	00000000 isattyr.c
00000000 l    df *ABS*	00000000 lseekr.c
00000000 l    df *ABS*	00000000 memchr.c
00000000 l    df *ABS*	00000000 mlock.c
00000000 l    df *ABS*	00000000 readr.c
00000000 l    df *ABS*	00000000 close.c
00000000 l    df *ABS*	00000000 fstat.c
00000000 l    df *ABS*	00000000 isatty.c
00000000 l    df *ABS*	00000000 lseek.c
00000000 l    df *ABS*	00000000 read.c
00000000 l    df *ABS*	00000000 sbrk.c
200000f4 l     O .bss	00000004 heap_end.1518
00000000 l    df *ABS*	00000000 impure.c
20000050 l     O .data	00000060 impure_data
00000000 l    df *ABS*	00000000 reent.c
000010a4  w      .text	00000000 GPIO_IRQHandler
0000249a g     F .text	00000028 _isatty_r
00000392 g     F .text	0000000a USB30_getDevAddress
0000138c g     F .text	000000da _puts_r
000024c2 g     F .text	0000002c _lseek_r
000010a4  w      .text	00000000 EMMC_IRQHandler
0000022e g     F .text	00000016 USB30_OUT_ClearPendingIT
000001d6 g     F .text	00000026 USB30_OUT_Status
00000a7c g     F .text	00000234 LINK_IRQHandler
00001348 g     F .text	00000044 printf
200008b0 g       .data	00000000 __global_pointer$
000023de g     F .text	00000036 __sseek
0000189e g     F .text	00000066 __sinit
00001474 g     F .text	000000c0 __swbuf_r
000010a4  w      .text	00000000 HardFault_Handler
00001858 g     F .text	00000046 __sfmoreglue
0000039c g     F .text	0000008e stdreq
0000250a g     F .text	00000002 __malloc_unlock
000010a4  w      .text	00000000 SysTick_Handler
20020000 g     O .DMADATA	00000200 endp0RTbuff
000010a4  w      .text	00000000 NMI_Handler
000010a4  w      .text	00000000 UART1_IRQHandler
00000d44 g     F .text	00000002 EP4_IN_Callback
000010a4  w      .text	00000000 USBHS_IRQHandler
0000069a g     F .text	00000028 USB30D_init
00002470 g     F .text	0000002a _fstat_r
200000fc g     O .bss	00000004 errno
00000784 g     F .text	000001d6 USB30_StandardReq
200000c8 g       .bss	00000000 _sbss
00000800 g       *ABS*	00000000 __stack_size
000001a8 g     F .text	0000002e USB30_ITP_Enable
20000034 g     O .data	0000001c pEpInt_OUT
00000d52 g     F .text	00000002 EP5_OUT_Callback
000010a4  w      .text	00000000 UART0_IRQHandler
200000c8 g     O .bss	00000001 Link_Sta
00001292 g     F .text	000000b6 memcpy
200000bc g     O .data	00000008 StringVendor
200000b0 g     O .data	00000001 usb_ep1_upload_done_flag
00000d3e g     F .text	00000002 EP1_OUT_Callback
0000184e g     F .text	0000000a _cleanup_r
00001466 g     F .text	0000000e puts
00000d4e g     F .text	00000002 EP3_OUT_Callback
00002544 g     F .text	0000000c _fstat
00000004 g       .init	00000000 _einit
00000d40 g     F .text	00000002 EP2_IN_Callback
00000d48 g     F .text	00000002 EP6_IN_Callback
0000042a g     F .text	00000180 USB30_IRQHandler
000010a4  w      .text	00000000 PMT_IRQHandler
000010a4  w      .text	00000000 SPI1_IRQHandler
00002338 g     F .text	00000028 _sbrk_r
000009e8 g     F .text	00000094 TMR0_IRQHandler
0000250c g     F .text	0000002c _read_r
000009cc g     F .text	00000004 EP0_OUT_Callback
000010a4  w      .text	00000000 ECDC_IRQHandler
20000018 g     O .data	0000001c pEpInt_IN
00002550 g     F .text	0000000c _isatty
200000c4 g     O .data	00000004 _global_impure_ptr
00002574 g     F .text	00000020 _sbrk
20020000 g       .DMADATA	00000000 _dmadata_start
00002594 g     O .text	00000016 BOSDescriptor
20000100 g       .bss	00000000 _ebss
00001234 g     F .text	00000022 Delay_Init
000010a4  w      .text	00000000 DVP_IRQHandler
000009e2 g     F .text	00000006 USBSS_IRQHandler
20021200 g     O .DMADATA	00001000 buffer0
00000344 g     F .text	00000024 USB30_Send_ERDY
20020000 g       .DMADATA	00000000 _dmadata_end
000002d8 g     F .text	00000016 USB30_IN_ITflag
000027a0 g     O .text	00000020 __sf_fake_stderr
20000100 g       .bss	00000000 end
000010a4  w      .text	00000000 UART2_IRQHandler
00001caa g     F .text	00000042 __sfputs_r
000024ee g     F .text	0000001a memchr
00001b04 g     F .text	000000a8 _free_r
000001fc g     F .text	0000001a USB30_OUT_Set
00000286 g     F .text	00000024 USB30_IN_Set
00000edc g     F .text	00000052 DebugInit
00000000 g       .init	00000000 _start
000001a0 g     F .text	00000008 USB30_ISO_Setdelay
0000255c g     F .text	0000000c _lseek
20000000 g     O .data	00000016 StringSerial
00000368 g     F .text	00000016 USB30_Device_Setaddress
000000ca g     F .text	00000090 USB30_Device_Init
200000e8 g     O .bss	00000001 ISO_endp
200000d2 g     O .bss	00000001 last_send_packet
00000d5a g     F .text	000000f6 hspi_init
000010a4  w      .text	00000000 TMR2_IRQHandler
000002c0 g     F .text	00000018 USB30_IN_ClearIT
00002448 g     F .text	00000028 _close_r
20000000 g       .dalign	00000000 _data_vma
00001534 g     F .text	00000110 __swsetup_r
00001904 g     F .text	0000009c __sfp
00000160 g     F .text	00000040 USB30_ISO_Setendp
00002360 g     F .text	00000030 __sread
000026d8 g     O .text	00000026 StringProduct
200000e7 g     O .bss	00000001 ISO_MODE_STATUS
200000d1 g     O .bss	00000001 Tx_Lmp_Port
00002508 g     F .text	00000002 __malloc_lock
00001780 g     F .text	00000064 _fflush_r
000027c0 g     O .text	00000020 __sf_fake_stdin
000005aa g     F .text	000000a8 memset
00000f2e g     F .text	00000176 main
000002ee g     F .text	00000028 USB30_IN_Nump
00000316 g     F .text	0000002e USB30_Set_endp_seqnumber
00002414 g     F .text	00000006 __sclose
00002608 g     O .text	0000008e PropertyHeader
00001bac g     F .text	000000d4 _malloc_r
200000f8 g     O .bss	00000004 tx_addr_ptr
00000d46 g     F .text	00000002 EP5_IN_Callback
200000b8 g     O .data	00000004 StringLangID
00000d50 g     F .text	00000002 EP4_OUT_Callback
0000113a g     F .text	000000fa SystemInit
00000d54 g     F .text	00000002 EP6_OUT_Callback
000026c4 g     O .text	00000012 SS_DeviceDescriptor
00000d4a g     F .text	00000002 EP7_IN_Callback
00001348 g     F .text	00000044 iprintf
00000000 g       .init	00000000 _sinit
000002aa g     F .text	00000016 USB30_IN_ClearPendingIT
0000241a g     F .text	0000002e _write_r
000010a4  w      .text	00000000 ETH_IRQHandler
00001f84 g     F .text	0000010c _printf_common
200000b4 g     O .data	00000004 _impure_ptr
00001644 g     F .text	0000013c __sflush_r
00002698 g     O .text	0000002c SS_ConfigDescriptor
00000cb0 g     F .text	0000008e EP1_IN_Callback
200000e0 g     O .bss	00000001 hspi_receive_done
20004000 g       .stack	00000000 _eusrstack
000010a4  w      .text	00000000 SW_Handler
00000d58 g     F .text	00000002 USB30_ITP_Callback
00000244 g     F .text	00000016 USB30_OUT_ITflag
00001a0c g     F .text	0000005a __swhatbuf_r
00000d4c g     F .text	00000002 EP2_OUT_Callback
00001256 g     F .text	00000028 _write
200000c8 g       .data	00000000 _edata
000010a4  w      .text	00000000 SPI0_IRQHandler
200000d8 g     O .bss	00000001 ping_pong_state
000025f4 g     O .text	00000012 OSStringDescriptor
00000d42 g     F .text	00000002 EP3_IN_Callback
0000283c g       .dlalign	00000000 _data_lma
0000015a g     F .text	00000006 USB30_Lib_Getversion
00000216 g     F .text	00000018 USB30_OUT_ClearIT
000006c2 g     F .text	000000c2 USB30_NonStandardReq
00002390 g     F .text	0000004e __swrite
20020200 g     O .DMADATA	00001000 buffer1
00001cec g     F .text	00000298 _vfiprintf_r
000019a0 g     F .text	0000006c _fwalk_reent
000009d0 g     F .text	00000012 USB30_Setup_Status
000027e0 g     O .text	00000020 __sf_fake_stdout
000010a4  w      .text	00000000 WDOG_IRQHandler
00000e50 g     F .text	0000008c HSPI_IRQHandler
00002568 g     F .text	0000000c _read
000010a6  w      .text	00000000 handle_reset
00001a66 g     F .text	0000009e __smakebuf_r
00002090 g     F .text	000002a8 _printf_i
0000095a g     F .text	00000072 EP0_IN_Callback
000010a4  w      .text	00000000 UART3_IRQHandler
200000f0 g     O .bss	00000004 __malloc_sbrk_start
200000ec g     O .bss	00000004 __malloc_free_list
00001cec g     F .text	00000298 _vfprintf_r
000010a4  w      .text	00000000 TMR1_IRQHandler
00000d56 g     F .text	00000002 EP7_OUT_Callback
0000025a g     F .text	0000002c USB30_IN_ISO_Set
000010a4  w      .text	00000000 SERDES_IRQHandler
000000c0 g     F .text	0000000a USB30_Device_forceclr
0000037e g     F .text	00000014 USB30_Switch_Powermode
00002538 g     F .text	0000000c _close
0000127e g     F .text	00000014 TMR0_TimerInit



Disassembly of section .init:

00000000 <_sinit>:
_start():
c:\Users\rui\Desktop\iphone_screen\wch\code\hspi_usb3_ping_pong\hspi_usb3_ping_pong\obj/../Startup/startup_CH56x.S:17

	.section	.init,"ax",@progbits
	.global	_start
	.align	1
_start:
	j	handle_reset
   0:	0a60106f          	j	10a6 <handle_reset>

Disassembly of section .vector:

00000004 <_vector_base>:
	...
_vector_base():
c:\Users\rui\Desktop\iphone_screen\wch\code\hspi_usb3_ping_pong\hspi_usb3_ping_pong\obj/../Startup/startup_CH56x.S:25
    .align  1
_vector_base:
    .option norvc;
    .word   0
    .word   0
        j   NMI_Handler                 /* NMI Handler */
   c:	0980106f          	j	10a4 <DVP_IRQHandler>
c:\Users\rui\Desktop\iphone_screen\wch\code\hspi_usb3_ping_pong\hspi_usb3_ping_pong\obj/../Startup/startup_CH56x.S:26
        j   HardFault_Handler           /* Hard Fault Handler */
  10:	0940106f          	j	10a4 <DVP_IRQHandler>
  14:	bf11                	j	ffffff28 <buffer0+0xdffded28>
  16:	f7f9                	bnez	a5,ffffffe4 <buffer0+0xdffdede4>
	...
c:\Users\rui\Desktop\iphone_screen\wch\code\hspi_usb3_ping_pong\hspi_usb3_ping_pong\obj/../Startup/startup_CH56x.S:35
    .word   0
    .word   0
    .word   0
    .word   0
    .word   0
        j   SysTick_Handler            /* SysTick Handler */
  34:	0700106f          	j	10a4 <DVP_IRQHandler>
  38:	0000                	unimp
  3a:	0000                	unimp
c:\Users\rui\Desktop\iphone_screen\wch\code\hspi_usb3_ping_pong\hspi_usb3_ping_pong\obj/../Startup/startup_CH56x.S:37
    .word   0
        j   SW_Handler                 /* SW Handler */
  3c:	0680106f          	j	10a4 <DVP_IRQHandler>
  40:	0000                	unimp
  42:	0000                	unimp
c:\Users\rui\Desktop\iphone_screen\wch\code\hspi_usb3_ping_pong\hspi_usb3_ping_pong\obj/../Startup/startup_CH56x.S:40
    .word   0
    /* External Interrupts */
        j   WDOG_IRQHandler			   /* WDOG */
  44:	0600106f          	j	10a4 <DVP_IRQHandler>
c:\Users\rui\Desktop\iphone_screen\wch\code\hspi_usb3_ping_pong\hspi_usb3_ping_pong\obj/../Startup/startup_CH56x.S:41
        j   TMR0_IRQHandler            /* TMR0 */
  48:	1a10006f          	j	9e8 <TMR0_IRQHandler>
c:\Users\rui\Desktop\iphone_screen\wch\code\hspi_usb3_ping_pong\hspi_usb3_ping_pong\obj/../Startup/startup_CH56x.S:42
        j   GPIO_IRQHandler            /* GPIO */
  4c:	0580106f          	j	10a4 <DVP_IRQHandler>
c:\Users\rui\Desktop\iphone_screen\wch\code\hspi_usb3_ping_pong\hspi_usb3_ping_pong\obj/../Startup/startup_CH56x.S:43
        j   SPI0_IRQHandler            /* SPI0 */
  50:	0540106f          	j	10a4 <DVP_IRQHandler>
c:\Users\rui\Desktop\iphone_screen\wch\code\hspi_usb3_ping_pong\hspi_usb3_ping_pong\obj/../Startup/startup_CH56x.S:44
        j   USBSS_IRQHandler           /* USBSS */
  54:	18f0006f          	j	9e2 <USBSS_IRQHandler>
c:\Users\rui\Desktop\iphone_screen\wch\code\hspi_usb3_ping_pong\hspi_usb3_ping_pong\obj/../Startup/startup_CH56x.S:45
        j   LINK_IRQHandler            /* LINK */
  58:	2250006f          	j	a7c <LINK_IRQHandler>
c:\Users\rui\Desktop\iphone_screen\wch\code\hspi_usb3_ping_pong\hspi_usb3_ping_pong\obj/../Startup/startup_CH56x.S:46
        j   TMR1_IRQHandler            /* TMR1 */
  5c:	0480106f          	j	10a4 <DVP_IRQHandler>
c:\Users\rui\Desktop\iphone_screen\wch\code\hspi_usb3_ping_pong\hspi_usb3_ping_pong\obj/../Startup/startup_CH56x.S:47
        j   TMR2_IRQHandler            /* TMR2 */
  60:	0440106f          	j	10a4 <DVP_IRQHandler>
c:\Users\rui\Desktop\iphone_screen\wch\code\hspi_usb3_ping_pong\hspi_usb3_ping_pong\obj/../Startup/startup_CH56x.S:48
        j   UART0_IRQHandler           /* UART0 */
  64:	0400106f          	j	10a4 <DVP_IRQHandler>
c:\Users\rui\Desktop\iphone_screen\wch\code\hspi_usb3_ping_pong\hspi_usb3_ping_pong\obj/../Startup/startup_CH56x.S:49
        j   USBHS_IRQHandler           /* USBHS */
  68:	03c0106f          	j	10a4 <DVP_IRQHandler>
c:\Users\rui\Desktop\iphone_screen\wch\code\hspi_usb3_ping_pong\hspi_usb3_ping_pong\obj/../Startup/startup_CH56x.S:50
        j   EMMC_IRQHandler            /* EMMC */
  6c:	0380106f          	j	10a4 <DVP_IRQHandler>
c:\Users\rui\Desktop\iphone_screen\wch\code\hspi_usb3_ping_pong\hspi_usb3_ping_pong\obj/../Startup/startup_CH56x.S:51
        j   DVP_IRQHandler             /* DVP */
  70:	0340106f          	j	10a4 <DVP_IRQHandler>
c:\Users\rui\Desktop\iphone_screen\wch\code\hspi_usb3_ping_pong\hspi_usb3_ping_pong\obj/../Startup/startup_CH56x.S:52
        j   HSPI_IRQHandler            /* HSPI */
  74:	5dd0006f          	j	e50 <HSPI_IRQHandler>
c:\Users\rui\Desktop\iphone_screen\wch\code\hspi_usb3_ping_pong\hspi_usb3_ping_pong\obj/../Startup/startup_CH56x.S:53
        j   SPI1_IRQHandler            /* SPI1 */
  78:	02c0106f          	j	10a4 <DVP_IRQHandler>
c:\Users\rui\Desktop\iphone_screen\wch\code\hspi_usb3_ping_pong\hspi_usb3_ping_pong\obj/../Startup/startup_CH56x.S:54
        j   UART1_IRQHandler           /* UART1 */
  7c:	0280106f          	j	10a4 <DVP_IRQHandler>
c:\Users\rui\Desktop\iphone_screen\wch\code\hspi_usb3_ping_pong\hspi_usb3_ping_pong\obj/../Startup/startup_CH56x.S:55
        j   UART2_IRQHandler           /* UART2 */
  80:	0240106f          	j	10a4 <DVP_IRQHandler>
c:\Users\rui\Desktop\iphone_screen\wch\code\hspi_usb3_ping_pong\hspi_usb3_ping_pong\obj/../Startup/startup_CH56x.S:56
        j   UART3_IRQHandler           /* UART3 */
  84:	0200106f          	j	10a4 <DVP_IRQHandler>
c:\Users\rui\Desktop\iphone_screen\wch\code\hspi_usb3_ping_pong\hspi_usb3_ping_pong\obj/../Startup/startup_CH56x.S:57
        j   SERDES_IRQHandler          /* SERDES */
  88:	01c0106f          	j	10a4 <DVP_IRQHandler>
c:\Users\rui\Desktop\iphone_screen\wch\code\hspi_usb3_ping_pong\hspi_usb3_ping_pong\obj/../Startup/startup_CH56x.S:58
        j   ETH_IRQHandler             /* ETH */
  8c:	0180106f          	j	10a4 <DVP_IRQHandler>
c:\Users\rui\Desktop\iphone_screen\wch\code\hspi_usb3_ping_pong\hspi_usb3_ping_pong\obj/../Startup/startup_CH56x.S:59
        j   PMT_IRQHandler             /* PMT */
  90:	0140106f          	j	10a4 <DVP_IRQHandler>
c:\Users\rui\Desktop\iphone_screen\wch\code\hspi_usb3_ping_pong\hspi_usb3_ping_pong\obj/../Startup/startup_CH56x.S:60
        j   ECDC_IRQHandler            /* ECDC */
  94:	0100106f          	j	10a4 <DVP_IRQHandler>
	...

Disassembly of section .text:

000000c0 <USB30_Device_forceclr>:
USB30_Device_forceclr():
      c0:	400087b7          	lui	a5,0x40008
      c4:	4719                	li	a4,6
      c6:	d398                	sw	a4,32(a5)
      c8:	8082                	ret

000000ca <USB30_Device_Init>:
USB30_Device_Init():
      ca:	400087b7          	lui	a5,0x40008
      ce:	14000713          	li	a4,320
      d2:	c398                	sw	a4,0(a5)
      d4:	4749                	li	a4,18
      d6:	c3d8                	sw	a4,4(a5)
      d8:	004c5737          	lui	a4,0x4c5
      dc:	b4170713          	addi	a4,a4,-1215 # 4c4b41 <_data_lma+0x4c2305>
      e0:	4b94                	lw	a3,16(a5)
      e2:	8a91                	andi	a3,a3,4
      e4:	e6bd                	bnez	a3,152 <USB30_Device_Init+0x88>
      e6:	0607ae23          	sw	zero,124(a5) # 4000807c <buffer0+0x1ffe6e7c>
      ea:	0607ac23          	sw	zero,120(a5)
      ee:	0807a623          	sw	zero,140(a5)
      f2:	0807a423          	sw	zero,136(a5)
      f6:	0807ae23          	sw	zero,156(a5)
      fa:	0807ac23          	sw	zero,152(a5)
      fe:	0a07a623          	sw	zero,172(a5)
     102:	0a07a423          	sw	zero,168(a5)
     106:	0a07ae23          	sw	zero,188(a5)
     10a:	0a07ac23          	sw	zero,184(a5)
     10e:	0c07a623          	sw	zero,204(a5)
     112:	0c07a423          	sw	zero,200(a5)
     116:	0c07ae23          	sw	zero,220(a5)
     11a:	0c07ac23          	sw	zero,216(a5)
     11e:	0e07a623          	sw	zero,236(a5)
     122:	0e07a423          	sw	zero,232(a5)
     126:	474d                	li	a4,19
     128:	d3d8                	sw	a4,36(a5)
     12a:	00030737          	lui	a4,0x30
     12e:	02170713          	addi	a4,a4,33 # 30021 <_data_lma+0x2d7e5>
     132:	d398                	sw	a4,32(a5)
     134:	0607a823          	sw	zero,112(a5)
     138:	4398                	lw	a4,0(a5)
     13a:	4501                	li	a0,0
     13c:	00276713          	ori	a4,a4,2
     140:	c398                	sw	a4,0(a5)
     142:	0010c737          	lui	a4,0x10c
     146:	c7d70713          	addi	a4,a4,-899 # 10bc7d <_data_lma+0x109441>
     14a:	c798                	sw	a4,8(a5)
     14c:	4709                	li	a4,2
     14e:	c3d8                	sw	a4,4(a5)
     150:	8082                	ret
     152:	177d                	addi	a4,a4,-1
     154:	f751                	bnez	a4,e0 <USB30_Device_Init+0x16>
     156:	4505                	li	a0,1
     158:	8082                	ret

0000015a <USB30_Lib_Getversion>:
USB30_Lib_Getversion():
     15a:	02100513          	li	a0,33
     15e:	8082                	ret

00000160 <USB30_ISO_Setendp>:
USB30_ISO_Setendp():
     160:	01851793          	slli	a5,a0,0x18
     164:	87e1                	srai	a5,a5,0x18
     166:	00757693          	andi	a3,a0,7
     16a:	0007df63          	bgez	a5,188 <USB30_ISO_Setendp+0x28>
     16e:	010007b7          	lui	a5,0x1000
     172:	00d797b3          	sll	a5,a5,a3
     176:	c999                	beqz	a1,18c <USB30_ISO_Setendp+0x2c>
     178:	40008637          	lui	a2,0x40008
     17c:	5a34                	lw	a3,112(a2)
     17e:	8fd5                	or	a5,a5,a3
     180:	da3c                	sw	a5,112(a2)
     182:	82a18c23          	sb	a0,-1992(gp) # 200000e8 <ISO_endp>
     186:	8082                	ret
     188:	67c1                	lui	a5,0x10
     18a:	b7e5                	j	172 <USB30_ISO_Setendp+0x12>
     18c:	400086b7          	lui	a3,0x40008
     190:	5ab0                	lw	a2,112(a3)
     192:	fff7c793          	not	a5,a5
     196:	8ff1                	and	a5,a5,a2
     198:	dabc                	sw	a5,112(a3)
     19a:	82018c23          	sb	zero,-1992(gp) # 200000e8 <ISO_endp>
     19e:	8082                	ret

000001a0 <USB30_ISO_Setdelay>:
USB30_ISO_Setdelay():
     1a0:	400087b7          	lui	a5,0x40008
     1a4:	df88                	sw	a0,56(a5)
     1a6:	8082                	ret

000001a8 <USB30_ITP_Enable>:
USB30_ITP_Enable():
     1a8:	cd01                	beqz	a0,1c0 <USB30_ITP_Enable+0x18>
     1aa:	40008737          	lui	a4,0x40008
     1ae:	531c                	lw	a5,32(a4)
     1b0:	00080637          	lui	a2,0x80
     1b4:	8fd1                	or	a5,a5,a2
     1b6:	d31c                	sw	a5,32(a4)
     1b8:	4785                	li	a5,1
     1ba:	82f18ba3          	sb	a5,-1993(gp) # 200000e7 <ISO_MODE_STATUS>
     1be:	8082                	ret
     1c0:	40008637          	lui	a2,0x40008
     1c4:	521c                	lw	a5,32(a2)
     1c6:	fff80737          	lui	a4,0xfff80
     1ca:	177d                	addi	a4,a4,-1
     1cc:	8ff9                	and	a5,a5,a4
     1ce:	d21c                	sw	a5,32(a2)
     1d0:	82018ba3          	sb	zero,-1993(gp) # 200000e7 <ISO_MODE_STATUS>
     1d4:	8082                	ret

000001d6 <USB30_OUT_Status>:
USB30_OUT_Status():
     1d6:	400087b7          	lui	a5,0x40008
     1da:	07878793          	addi	a5,a5,120 # 40008078 <buffer0+0x1ffe6e78>
     1de:	0512                	slli	a0,a0,0x4
     1e0:	953e                	add	a0,a0,a5
     1e2:	411c                	lw	a5,0(a0)
     1e4:	0107d713          	srli	a4,a5,0x10
     1e8:	00f61023          	sh	a5,0(a2) # 40008000 <buffer0+0x1ffe6e00>
     1ec:	8b7d                	andi	a4,a4,31
     1ee:	83f1                	srli	a5,a5,0x1c
     1f0:	00e58023          	sb	a4,0(a1)
     1f4:	8b9d                	andi	a5,a5,7
     1f6:	00f68023          	sb	a5,0(a3) # 40008000 <buffer0+0x1ffe6e00>
     1fa:	8082                	ret

000001fc <USB30_OUT_Set>:
USB30_OUT_Set():
     1fc:	400087b7          	lui	a5,0x40008
     200:	07878793          	addi	a5,a5,120 # 40008078 <buffer0+0x1ffe6e78>
     204:	0512                	slli	a0,a0,0x4
     206:	953e                	add	a0,a0,a5
     208:	411c                	lw	a5,0(a0)
     20a:	0642                	slli	a2,a2,0x10
     20c:	05ea                	slli	a1,a1,0x1a
     20e:	8e4d                	or	a2,a2,a1
     210:	8e5d                	or	a2,a2,a5
     212:	c110                	sw	a2,0(a0)
     214:	8082                	ret

00000216 <USB30_OUT_ClearIT>:
USB30_OUT_ClearIT():
     216:	400087b7          	lui	a5,0x40008
     21a:	07878793          	addi	a5,a5,120 # 40008078 <buffer0+0x1ffe6e78>
     21e:	0512                	slli	a0,a0,0x4
     220:	953e                	add	a0,a0,a5
     222:	411c                	lw	a5,0(a0)
     224:	03e00737          	lui	a4,0x3e00
     228:	8ff9                	and	a5,a5,a4
     22a:	c11c                	sw	a5,0(a0)
     22c:	8082                	ret

0000022e <USB30_OUT_ClearPendingIT>:
USB30_OUT_ClearPendingIT():
     22e:	400087b7          	lui	a5,0x40008
     232:	07878793          	addi	a5,a5,120 # 40008078 <buffer0+0x1ffe6e78>
     236:	0512                	slli	a0,a0,0x4
     238:	953e                	add	a0,a0,a5
     23a:	411c                	lw	a5,0(a0)
     23c:	0786                	slli	a5,a5,0x1
     23e:	8385                	srli	a5,a5,0x1
     240:	c11c                	sw	a5,0(a0)
     242:	8082                	ret

00000244 <USB30_OUT_ITflag>:
USB30_OUT_ITflag():
     244:	400087b7          	lui	a5,0x40008
     248:	07878793          	addi	a5,a5,120 # 40008078 <buffer0+0x1ffe6e78>
     24c:	0512                	slli	a0,a0,0x4
     24e:	953e                	add	a0,a0,a5
     250:	4108                	lw	a0,0(a0)
     252:	8161                	srli	a0,a0,0x18
     254:	08057513          	andi	a0,a0,128
     258:	8082                	ret

0000025a <USB30_IN_ISO_Set>:
USB30_IN_ISO_Set():
     25a:	40008837          	lui	a6,0x40008
     25e:	07c80813          	addi	a6,a6,124 # 4000807c <buffer0+0x1ffe6e7c>
     262:	0512                	slli	a0,a0,0x4
     264:	9542                	add	a0,a0,a6
     266:	07d6                	slli	a5,a5,0x15
     268:	03e00837          	lui	a6,0x3e00
     26c:	0107f7b3          	and	a5,a5,a6
     270:	05f2                	slli	a1,a1,0x1c
     272:	8fcd                	or	a5,a5,a1
     274:	066a                	slli	a2,a2,0x1a
     276:	8fd1                	or	a5,a5,a2
     278:	06c2                	slli	a3,a3,0x10
     27a:	8fd5                	or	a5,a5,a3
     27c:	7ff77713          	andi	a4,a4,2047
     280:	8fd9                	or	a5,a5,a4
     282:	c11c                	sw	a5,0(a0)
     284:	8082                	ret

00000286 <USB30_IN_Set>:
USB30_IN_Set():
     286:	400087b7          	lui	a5,0x40008
     28a:	07c78793          	addi	a5,a5,124 # 4000807c <buffer0+0x1ffe6e7c>
     28e:	0512                	slli	a0,a0,0x4
     290:	953e                	add	a0,a0,a5
     292:	066a                	slli	a2,a2,0x1a
     294:	05f2                	slli	a1,a1,0x1c
     296:	411c                	lw	a5,0(a0)
     298:	8e4d                	or	a2,a2,a1
     29a:	06c2                	slli	a3,a3,0x10
     29c:	8e55                	or	a2,a2,a3
     29e:	7ff77713          	andi	a4,a4,2047
     2a2:	8e59                	or	a2,a2,a4
     2a4:	8e5d                	or	a2,a2,a5
     2a6:	c110                	sw	a2,0(a0)
     2a8:	8082                	ret

000002aa <USB30_IN_ClearPendingIT>:
USB30_IN_ClearPendingIT():
     2aa:	400087b7          	lui	a5,0x40008
     2ae:	07c78793          	addi	a5,a5,124 # 4000807c <buffer0+0x1ffe6e7c>
     2b2:	0512                	slli	a0,a0,0x4
     2b4:	953e                	add	a0,a0,a5
     2b6:	411c                	lw	a5,0(a0)
     2b8:	0786                	slli	a5,a5,0x1
     2ba:	8385                	srli	a5,a5,0x1
     2bc:	c11c                	sw	a5,0(a0)
     2be:	8082                	ret

000002c0 <USB30_IN_ClearIT>:
USB30_IN_ClearIT():
     2c0:	400087b7          	lui	a5,0x40008
     2c4:	07c78793          	addi	a5,a5,124 # 4000807c <buffer0+0x1ffe6e7c>
     2c8:	0512                	slli	a0,a0,0x4
     2ca:	953e                	add	a0,a0,a5
     2cc:	411c                	lw	a5,0(a0)
     2ce:	03e00737          	lui	a4,0x3e00
     2d2:	8ff9                	and	a5,a5,a4
     2d4:	c11c                	sw	a5,0(a0)
     2d6:	8082                	ret

000002d8 <USB30_IN_ITflag>:
USB30_IN_ITflag():
     2d8:	400087b7          	lui	a5,0x40008
     2dc:	07c78793          	addi	a5,a5,124 # 4000807c <buffer0+0x1ffe6e7c>
     2e0:	0512                	slli	a0,a0,0x4
     2e2:	953e                	add	a0,a0,a5
     2e4:	4108                	lw	a0,0(a0)
     2e6:	8161                	srli	a0,a0,0x18
     2e8:	08057513          	andi	a0,a0,128
     2ec:	8082                	ret

000002ee <USB30_IN_Nump>:
USB30_IN_Nump():
     2ee:	8381c783          	lbu	a5,-1992(gp) # 200000e8 <ISO_endp>
     2f2:	8fa9                	xor	a5,a5,a0
     2f4:	8b9d                	andi	a5,a5,7
     2f6:	e799                	bnez	a5,304 <USB30_IN_Nump+0x16>
     2f8:	400087b7          	lui	a5,0x40008
     2fc:	5788                	lw	a0,40(a5)
     2fe:	8121                	srli	a0,a0,0x8
     300:	897d                	andi	a0,a0,31
     302:	8082                	ret
     304:	400087b7          	lui	a5,0x40008
     308:	0512                	slli	a0,a0,0x4
     30a:	07c78793          	addi	a5,a5,124 # 4000807c <buffer0+0x1ffe6e7c>
     30e:	953e                	add	a0,a0,a5
     310:	4108                	lw	a0,0(a0)
     312:	8141                	srli	a0,a0,0x10
     314:	b7f5                	j	300 <USB30_IN_Nump+0x12>

00000316 <USB30_Set_endp_seqnumber>:
USB30_Set_endp_seqnumber():
     316:	0005c703          	lbu	a4,0(a1)
     31a:	00f57793          	andi	a5,a0,15
     31e:	0562                	slli	a0,a0,0x18
     320:	03e006b7          	lui	a3,0x3e00
     324:	0756                	slli	a4,a4,0x15
     326:	8561                	srai	a0,a0,0x18
     328:	8f75                	and	a4,a4,a3
     32a:	0792                	slli	a5,a5,0x4
     32c:	400086b7          	lui	a3,0x40008
     330:	00055763          	bgez	a0,33e <USB30_Set_endp_seqnumber+0x28>
     334:	07c68693          	addi	a3,a3,124 # 4000807c <buffer0+0x1ffe6e7c>
     338:	97b6                	add	a5,a5,a3
     33a:	c398                	sw	a4,0(a5)
     33c:	8082                	ret
     33e:	07868693          	addi	a3,a3,120
     342:	bfdd                	j	338 <USB30_Set_endp_seqnumber+0x22>

00000344 <USB30_Send_ERDY>:
USB30_Send_ERDY():
     344:	00f57793          	andi	a5,a0,15
     348:	0562                	slli	a0,a0,0x18
     34a:	078a                	slli	a5,a5,0x2
     34c:	059a                	slli	a1,a1,0x6
     34e:	8561                	srai	a0,a0,0x18
     350:	8ddd                	or	a1,a1,a5
     352:	00055863          	bgez	a0,362 <USB30_Send_ERDY+0x1e>
     356:	0035e593          	ori	a1,a1,3
     35a:	400087b7          	lui	a5,0x40008
     35e:	c3ec                	sw	a1,68(a5)
     360:	8082                	ret
     362:	0015e593          	ori	a1,a1,1
     366:	bfd5                	j	35a <USB30_Send_ERDY+0x16>

00000368 <USB30_Device_Setaddress>:
USB30_Device_Setaddress():
     368:	40008737          	lui	a4,0x40008
     36c:	531c                	lw	a5,32(a4)
     36e:	0562                	slli	a0,a0,0x18
     370:	07a2                	slli	a5,a5,0x8
     372:	83a1                	srli	a5,a5,0x8
     374:	d31c                	sw	a5,32(a4)
     376:	531c                	lw	a5,32(a4)
     378:	8d5d                	or	a0,a0,a5
     37a:	d308                	sw	a0,32(a4)
     37c:	8082                	ret

0000037e <USB30_Switch_Powermode>:
USB30_Switch_Powermode():
     37e:	40008737          	lui	a4,0x40008
     382:	435c                	lw	a5,4(a4)
     384:	9bf1                	andi	a5,a5,-4
     386:	8d5d                	or	a0,a0,a5
     388:	c348                	sw	a0,4(a4)
     38a:	4b1c                	lw	a5,16(a4)
     38c:	8b91                	andi	a5,a5,4
     38e:	fff5                	bnez	a5,38a <USB30_Switch_Powermode+0xc>
     390:	8082                	ret

00000392 <USB30_getDevAddress>:
USB30_getDevAddress():
     392:	400087b7          	lui	a5,0x40008
     396:	5388                	lw	a0,32(a5)
     398:	8161                	srli	a0,a0,0x18
     39a:	8082                	ret

0000039c <stdreq>:
stdreq():
     39c:	200207b7          	lui	a5,0x20020
     3a0:	0007c703          	lbu	a4,0(a5) # 20020000 <endp0RTbuff>
     3a4:	06077693          	andi	a3,a4,96
     3a8:	e2c1                	bnez	a3,428 <stdreq+0x8c>
     3aa:	00078793          	mv	a5,a5
     3ae:	0017c683          	lbu	a3,1(a5)
     3b2:	460d                	li	a2,3
     3b4:	02c68963          	beq	a3,a2,3e6 <stdreq+0x4a>
     3b8:	03100613          	li	a2,49
     3bc:	04c68c63          	beq	a3,a2,414 <stdreq+0x78>
     3c0:	4605                	li	a2,1
     3c2:	06c69363          	bne	a3,a2,428 <stdreq+0x8c>
     3c6:	8b7d                	andi	a4,a4,31
     3c8:	4689                	li	a3,2
     3ca:	04d71f63          	bne	a4,a3,428 <stdreq+0x8c>
     3ce:	1101                	addi	sp,sp,-32
     3d0:	ce06                	sw	ra,28(sp)
     3d2:	0047c503          	lbu	a0,4(a5)
     3d6:	00f10593          	addi	a1,sp,15
     3da:	000107a3          	sb	zero,15(sp)
     3de:	3f25                	jal	316 <USB30_Set_endp_seqnumber>
     3e0:	40f2                	lw	ra,28(sp)
     3e2:	6105                	addi	sp,sp,32
     3e4:	8082                	ret
     3e6:	0027c783          	lbu	a5,2(a5)
     3ea:	03000713          	li	a4,48
     3ee:	00e79963          	bne	a5,a4,400 <stdreq+0x64>
     3f2:	40008737          	lui	a4,0x40008
     3f6:	431c                	lw	a5,0(a4)
     3f8:	66c1                	lui	a3,0x10
     3fa:	8fd5                	or	a5,a5,a3
     3fc:	c31c                	sw	a5,0(a4)
     3fe:	8082                	ret
     400:	03100713          	li	a4,49
     404:	02e79263          	bne	a5,a4,428 <stdreq+0x8c>
     408:	40008737          	lui	a4,0x40008
     40c:	431c                	lw	a5,0(a4)
     40e:	000206b7          	lui	a3,0x20
     412:	b7e5                	j	3fa <stdreq+0x5e>
     414:	0037c703          	lbu	a4,3(a5)
     418:	0027c783          	lbu	a5,2(a5)
     41c:	0722                	slli	a4,a4,0x8
     41e:	97ba                	add	a5,a5,a4
     420:	40008737          	lui	a4,0x40008
     424:	df1c                	sw	a5,56(a4)
     426:	8082                	ret
     428:	8082                	ret

0000042a <USB30_IRQHandler>:
USB30_IRQHandler():
     42a:	40008737          	lui	a4,0x40008
     42e:	535c                	lw	a5,36(a4)
     430:	1141                	addi	sp,sp,-16
     432:	c422                	sw	s0,8(sp)
     434:	c606                	sw	ra,12(sp)
     436:	0ff7f413          	andi	s0,a5,255
     43a:	8ba1                	andi	a5,a5,8
     43c:	cb89                	beqz	a5,44e <USB30_IRQHandler+0x24>
     43e:	47a1                	li	a5,8
     440:	d35c                	sw	a5,36(a4)
     442:	8371c783          	lbu	a5,-1993(gp) # 200000e7 <ISO_MODE_STATUS>
     446:	c781                	beqz	a5,44e <USB30_IRQHandler+0x24>
     448:	5b08                	lw	a0,48(a4)
     44a:	10f000ef          	jal	ra,d58 <USB30_ITP_Callback>
     44e:	00147793          	andi	a5,s0,1
     452:	12078663          	beqz	a5,57e <USB30_IRQHandler+0x154>
     456:	40008437          	lui	s0,0x40008
     45a:	505c                	lw	a5,36(s0)
     45c:	5054                	lw	a3,36(s0)
     45e:	83a1                	srli	a5,a5,0x8
     460:	82b1                	srli	a3,a3,0xc
     462:	8b9d                	andi	a5,a5,7
     464:	8a85                	andi	a3,a3,1
     466:	0e079f63          	bnez	a5,564 <USB30_IRQHandler+0x13a>
     46a:	cea9                	beqz	a3,4c4 <USB30_IRQHandler+0x9a>
     46c:	21fd                	jal	95a <EP0_IN_Callback>
     46e:	8361c683          	lbu	a3,-1994(gp) # 200000e6 <count_IN>
     472:	0685                	addi	a3,a3,1
     474:	0ff6f693          	andi	a3,a3,255
     478:	82d18b23          	sb	a3,-1994(gp) # 200000e6 <count_IN>
     47c:	8361c683          	lbu	a3,-1994(gp) # 200000e6 <count_IN>
     480:	8afd                	andi	a3,a3,31
     482:	82d18b23          	sb	a3,-1994(gp) # 200000e6 <count_IN>
     486:	e919                	bnez	a0,49c <USB30_IRQHandler+0x72>
     488:	82018b23          	sb	zero,-1994(gp) # 200000e6 <count_IN>
     48c:	040107b7          	lui	a5,0x4010
     490:	dc3c                	sw	a5,120(s0)
     492:	06042e23          	sw	zero,124(s0) # 4000807c <buffer0+0x1ffe6e7c>
     496:	04100793          	li	a5,65
     49a:	a0b1                	j	4e6 <USB30_IRQHandler+0xbc>
     49c:	06042c23          	sw	zero,120(s0)
     4a0:	5c7c                	lw	a5,124(s0)
     4a2:	ec2006b7          	lui	a3,0xec200
     4a6:	8361c703          	lbu	a4,-1994(gp) # 200000e6 <count_IN>
     4aa:	c0068693          	addi	a3,a3,-1024 # ec1ffc00 <buffer0+0xcc1dea00>
     4ae:	8ff5                	and	a5,a5,a3
     4b0:	8fc9                	or	a5,a5,a0
     4b2:	0756                	slli	a4,a4,0x15
     4b4:	8fd9                	or	a5,a5,a4
     4b6:	14010537          	lui	a0,0x14010
     4ba:	8fc9                	or	a5,a5,a0
     4bc:	dc7c                	sw	a5,124(s0)
     4be:	04300793          	li	a5,67
     4c2:	a015                	j	4e6 <USB30_IRQHandler+0xbc>
     4c4:	5c3c                	lw	a5,120(s0)
     4c6:	00179713          	slli	a4,a5,0x1
     4ca:	04075363          	bgez	a4,510 <USB30_IRQHandler+0xe6>
     4ce:	06042c23          	sw	zero,120(s0)
     4d2:	35e9                	jal	39c <stdreq>
     4d4:	2c45                	jal	784 <USB30_StandardReq>
     4d6:	67c1                	lui	a5,0x10
     4d8:	17fd                	addi	a5,a5,-1
     4da:	00f51f63          	bne	a0,a5,4f8 <USB30_IRQHandler+0xce>
     4de:	180007b7          	lui	a5,0x18000
     4e2:	dc7c                	sw	a5,124(s0)
     4e4:	478d                	li	a5,3
     4e6:	c07c                	sw	a5,68(s0)
     4e8:	400087b7          	lui	a5,0x40008
     4ec:	4705                	li	a4,1
     4ee:	d3d8                	sw	a4,36(a5)
     4f0:	40b2                	lw	ra,12(sp)
     4f2:	4422                	lw	s0,8(sp)
     4f4:	0141                	addi	sp,sp,16
     4f6:	8082                	ret
     4f8:	040107b7          	lui	a5,0x4010
     4fc:	c929                	beqz	a0,54e <USB30_IRQHandler+0x124>
     4fe:	20000793          	li	a5,512
     502:	fea7e3e3          	bltu	a5,a0,4e8 <USB30_IRQHandler+0xbe>
     506:	140107b7          	lui	a5,0x14010
     50a:	8d5d                	or	a0,a0,a5
     50c:	dc68                	sw	a0,124(s0)
     50e:	bf45                	j	4be <USB30_IRQHandler+0x94>
     510:	5c3c                	lw	a5,120(s0)
     512:	00279713          	slli	a4,a5,0x2
     516:	00075863          	bgez	a4,526 <USB30_IRQHandler+0xfc>
     51a:	295d                	jal	9d0 <USB30_Setup_Status>
     51c:	06042e23          	sw	zero,124(s0)
     520:	06042c23          	sw	zero,120(s0)
     524:	b7d1                	j	4e8 <USB30_IRQHandler+0xbe>
     526:	215d                	jal	9cc <EP0_OUT_Callback>
     528:	8351c703          	lbu	a4,-1995(gp) # 200000e5 <count_OUT>
     52c:	0705                	addi	a4,a4,1
     52e:	0ff77713          	andi	a4,a4,255
     532:	82e18aa3          	sb	a4,-1995(gp) # 200000e5 <count_OUT>
     536:	8351c703          	lbu	a4,-1995(gp) # 200000e5 <count_OUT>
     53a:	8b7d                	andi	a4,a4,31
     53c:	82e18aa3          	sb	a4,-1995(gp) # 200000e5 <count_OUT>
     540:	c909                	beqz	a0,552 <USB30_IRQHandler+0x128>
     542:	8351c783          	lbu	a5,-1995(gp) # 200000e5 <count_OUT>
     546:	04010737          	lui	a4,0x4010
     54a:	07d6                	slli	a5,a5,0x15
     54c:	8fd9                	or	a5,a5,a4
     54e:	dc3c                	sw	a5,120(s0)
     550:	b799                	j	496 <USB30_IRQHandler+0x6c>
     552:	04010737          	lui	a4,0x4010
     556:	dc38                	sw	a4,120(s0)
     558:	04100713          	li	a4,65
     55c:	c078                	sw	a4,68(s0)
     55e:	82018aa3          	sb	zero,-1995(gp) # 200000e5 <count_OUT>
     562:	b759                	j	4e8 <USB30_IRQHandler+0xbe>
     564:	17fd                	addi	a5,a5,-1
     566:	20000737          	lui	a4,0x20000
     56a:	01870713          	addi	a4,a4,24 # 20000018 <pEpInt_IN>
     56e:	078a                	slli	a5,a5,0x2
     570:	97ba                	add	a5,a5,a4
     572:	c681                	beqz	a3,57a <USB30_IRQHandler+0x150>
     574:	439c                	lw	a5,0(a5)
     576:	9782                	jalr	a5
     578:	bf85                	j	4e8 <USB30_IRQHandler+0xbe>
     57a:	4fdc                	lw	a5,28(a5)
     57c:	bfed                	j	576 <USB30_IRQHandler+0x14c>
     57e:	8809                	andi	s0,s0,2
     580:	d825                	beqz	s0,4f0 <USB30_IRQHandler+0xc6>
     582:	400087b7          	lui	a5,0x40008
     586:	4fb8                	lw	a4,88(a5)
     588:	0a000693          	li	a3,160
     58c:	1e077713          	andi	a4,a4,480
     590:	00d71963          	bne	a4,a3,5a2 <USB30_IRQHandler+0x178>
     594:	2c000713          	li	a4,704
     598:	c7b8                	sw	a4,72(a5)
     59a:	0407a623          	sw	zero,76(a5) # 4000804c <buffer0+0x1ffe6e4c>
     59e:	0407a823          	sw	zero,80(a5)
     5a2:	400087b7          	lui	a5,0x40008
     5a6:	4709                	li	a4,2
     5a8:	b799                	j	4ee <USB30_IRQHandler+0xc4>

000005aa <memset>:
memset():
     5aa:	433d                	li	t1,15
     5ac:	872a                	mv	a4,a0
     5ae:	02c37363          	bgeu	t1,a2,5d4 <memset+0x2a>
     5b2:	00f77793          	andi	a5,a4,15
     5b6:	efbd                	bnez	a5,634 <memset+0x8a>
     5b8:	e5ad                	bnez	a1,622 <memset+0x78>
     5ba:	ff067693          	andi	a3,a2,-16
     5be:	8a3d                	andi	a2,a2,15
     5c0:	96ba                	add	a3,a3,a4
     5c2:	c30c                	sw	a1,0(a4)
     5c4:	c34c                	sw	a1,4(a4)
     5c6:	c70c                	sw	a1,8(a4)
     5c8:	c74c                	sw	a1,12(a4)
     5ca:	0741                	addi	a4,a4,16
     5cc:	fed76be3          	bltu	a4,a3,5c2 <memset+0x18>
     5d0:	e211                	bnez	a2,5d4 <memset+0x2a>
     5d2:	8082                	ret
     5d4:	40c306b3          	sub	a3,t1,a2
     5d8:	068a                	slli	a3,a3,0x2
     5da:	00000297          	auipc	t0,0x0
     5de:	9696                	add	a3,a3,t0
     5e0:	00a68067          	jr	10(a3)
     5e4:	00b70723          	sb	a1,14(a4)
     5e8:	00b706a3          	sb	a1,13(a4)
     5ec:	00b70623          	sb	a1,12(a4)
     5f0:	00b705a3          	sb	a1,11(a4)
     5f4:	00b70523          	sb	a1,10(a4)
     5f8:	00b704a3          	sb	a1,9(a4)
     5fc:	00b70423          	sb	a1,8(a4)
     600:	00b703a3          	sb	a1,7(a4)
     604:	00b70323          	sb	a1,6(a4)
     608:	00b702a3          	sb	a1,5(a4)
     60c:	00b70223          	sb	a1,4(a4)
     610:	00b701a3          	sb	a1,3(a4)
     614:	00b70123          	sb	a1,2(a4)
     618:	00b700a3          	sb	a1,1(a4)
     61c:	00b70023          	sb	a1,0(a4)
     620:	8082                	ret
     622:	0ff5f593          	andi	a1,a1,255
     626:	00859693          	slli	a3,a1,0x8
     62a:	8dd5                	or	a1,a1,a3
     62c:	01059693          	slli	a3,a1,0x10
     630:	8dd5                	or	a1,a1,a3
     632:	b761                	j	5ba <memset+0x10>
     634:	00279693          	slli	a3,a5,0x2
     638:	00000297          	auipc	t0,0x0
     63c:	9696                	add	a3,a3,t0
     63e:	8286                	mv	t0,ra
     640:	fa8680e7          	jalr	-88(a3)
     644:	8096                	mv	ra,t0
     646:	17c1                	addi	a5,a5,-16
     648:	8f1d                	sub	a4,a4,a5
     64a:	963e                	add	a2,a2,a5
     64c:	f8c374e3          	bgeu	t1,a2,5d4 <memset+0x2a>
     650:	b7a5                	j	5b8 <memset+0xe>

00000652 <PFIC_DisableIRQ>:
PFIC_DisableIRQ():
c:/Users/rui/Desktop/iphone_screen/wch/code/hspi_usb3_ping_pong/hspi_usb3_ping_pong/RVMSIS/core_riscv.h:147
 */
RV_STATIC_INLINE void PFIC_DisableIRQ(IRQn_Type IRQn)
{
    UINT32 t;

    t = PFIC->ITHRESDR;
     652:	e000e7b7          	lui	a5,0xe000e
c:/Users/rui/Desktop/iphone_screen/wch/code/hspi_usb3_ping_pong/hspi_usb3_ping_pong/RVMSIS/core_riscv.h:148
    PFIC->ITHRESDR = 0x10;
     656:	4741                	li	a4,16
c:/Users/rui/Desktop/iphone_screen/wch/code/hspi_usb3_ping_pong/hspi_usb3_ping_pong/RVMSIS/core_riscv.h:147
    t = PFIC->ITHRESDR;
     658:	43b4                	lw	a3,64(a5)
c:/Users/rui/Desktop/iphone_screen/wch/code/hspi_usb3_ping_pong/hspi_usb3_ping_pong/RVMSIS/core_riscv.h:148
    PFIC->ITHRESDR = 0x10;
     65a:	c3b8                	sw	a4,64(a5)
c:/Users/rui/Desktop/iphone_screen/wch/code/hspi_usb3_ping_pong/hspi_usb3_ping_pong/RVMSIS/core_riscv.h:149
    PFIC->IRER[((UINT32)(IRQn) >> 5)] = (1 << ((UINT32)(IRQn) & 0x1F));
     65c:	4705                	li	a4,1
     65e:	00a71533          	sll	a0,a4,a0
     662:	18a7a023          	sw	a0,384(a5) # e000e180 <buffer0+0xbffecf80>
c:/Users/rui/Desktop/iphone_screen/wch/code/hspi_usb3_ping_pong/hspi_usb3_ping_pong/RVMSIS/core_riscv.h:150
    PFIC->ITHRESDR = t;
     666:	c3b4                	sw	a3,64(a5)
c:/Users/rui/Desktop/iphone_screen/wch/code/hspi_usb3_ping_pong/hspi_usb3_ping_pong/RVMSIS/core_riscv.h:151
}
     668:	8082                	ret

0000066a <USB30D_init.part.0>:
USB30D_init():
c:\Users\rui\Desktop\iphone_screen\wch\code\hspi_usb3_ping_pong\hspi_usb3_ping_pong\obj/../User/USB30/CH56x_usb30.c:301
{
        0x01, 0x00
};


void USB30D_init( FunctionalState sta )
     66a:	1141                	addi	sp,sp,-16
     66c:	c606                	sw	ra,12(sp)
c:\Users\rui\Desktop\iphone_screen\wch\code\hspi_usb3_ping_pong\hspi_usb3_ping_pong\obj/../User/USB30/CH56x_usb30.c:306
{
    UINT16 i, s;
    if( sta )
    {
        s = USB30_Device_Init( );
     66e:	3cb1                	jal	ca <USB30_Device_Init>
c:\Users\rui\Desktop\iphone_screen\wch\code\hspi_usb3_ping_pong\hspi_usb3_ping_pong\obj/../User/USB30/CH56x_usb30.c:307
        if( s )
     670:	c901                	beqz	a0,680 <USB30D_init.part.0+0x16>
c:\Users\rui\Desktop\iphone_screen\wch\code\hspi_usb3_ping_pong\hspi_usb3_ping_pong\obj/../User/USB30/CH56x_usb30.c:309
        {
            printf("Init err\n");
     672:	00002537          	lui	a0,0x2
     676:	74050513          	addi	a0,a0,1856 # 2740 <StringProduct+0x68>
     67a:	5ed000ef          	jal	ra,1466 <puts>
c:\Users\rui\Desktop\iphone_screen\wch\code\hspi_usb3_ping_pong\hspi_usb3_ping_pong\obj/../User/USB30/CH56x_usb30.c:310
            while( 1 );
     67e:	a001                	j	67e <USB30D_init.part.0+0x14>
c:\Users\rui\Desktop\iphone_screen\wch\code\hspi_usb3_ping_pong\hspi_usb3_ping_pong\obj/../User/USB30/CH56x_usb30.c:312
        }
        USBSS->UEP_CFG = EP0_R_EN | EP0_T_EN | EP1_R_EN | EP1_T_EN ; // set end point rx/tx enable
     680:	40008737          	lui	a4,0x40008
     684:	30300793          	li	a5,771
     688:	db3c                	sw	a5,112(a4)
c:\Users\rui\Desktop\iphone_screen\wch\code\hspi_usb3_ping_pong\hspi_usb3_ping_pong\obj/../User/USB30/CH56x_usb30.c:329
        USBSS->LINK_CFG = PIPE_RESET | LFPS_RX_PD;
        USBSS->LINK_CTRL = GO_DISABLED | POWER_MODE_3;
        USBSS->LINK_INT_CTRL = 0;
        USBSS->USB_CONTROL = USB_FORCE_RST | USB_ALL_CLR;
    }
}
     68a:	40b2                	lw	ra,12(sp)
c:\Users\rui\Desktop\iphone_screen\wch\code\hspi_usb3_ping_pong\hspi_usb3_ping_pong\obj/../User/USB30/CH56x_usb30.c:314
        USBSS->UEP0_DMA = (UINT32)(UINT8 *)endp0RTbuff;
     68c:	200207b7          	lui	a5,0x20020
     690:	00078793          	mv	a5,a5
     694:	db7c                	sw	a5,116(a4)
c:\Users\rui\Desktop\iphone_screen\wch\code\hspi_usb3_ping_pong\hspi_usb3_ping_pong\obj/../User/USB30/CH56x_usb30.c:329
}
     696:	0141                	addi	sp,sp,16
     698:	8082                	ret

0000069a <USB30D_init>:
c:\Users\rui\Desktop\iphone_screen\wch\code\hspi_usb3_ping_pong\hspi_usb3_ping_pong\obj/../User/USB30/CH56x_usb30.c:304
    if( sta )
     69a:	c111                	beqz	a0,69e <USB30D_init+0x4>
     69c:	b7f9                	j	66a <USB30D_init.part.0>
c:\Users\rui\Desktop\iphone_screen\wch\code\hspi_usb3_ping_pong\hspi_usb3_ping_pong\obj/../User/USB30/CH56x_usb30.c:302
{
     69e:	1141                	addi	sp,sp,-16
c:\Users\rui\Desktop\iphone_screen\wch\code\hspi_usb3_ping_pong\hspi_usb3_ping_pong\obj/../User/USB30/CH56x_usb30.c:323
        USB30_Switch_Powermode( POWER_MODE_2 );
     6a0:	4509                	li	a0,2
c:\Users\rui\Desktop\iphone_screen\wch\code\hspi_usb3_ping_pong\hspi_usb3_ping_pong\obj/../User/USB30/CH56x_usb30.c:302
{
     6a2:	c606                	sw	ra,12(sp)
c:\Users\rui\Desktop\iphone_screen\wch\code\hspi_usb3_ping_pong\hspi_usb3_ping_pong\obj/../User/USB30/CH56x_usb30.c:323
        USB30_Switch_Powermode( POWER_MODE_2 );
     6a4:	39e9                	jal	37e <USB30_Switch_Powermode>
c:\Users\rui\Desktop\iphone_screen\wch\code\hspi_usb3_ping_pong\hspi_usb3_ping_pong\obj/../User/USB30/CH56x_usb30.c:324
        USBSS->LINK_CFG = PIPE_RESET | LFPS_RX_PD;
     6a6:	400087b7          	lui	a5,0x40008
     6aa:	02800713          	li	a4,40
     6ae:	c398                	sw	a4,0(a5)
c:\Users\rui\Desktop\iphone_screen\wch\code\hspi_usb3_ping_pong\hspi_usb3_ping_pong\obj/../User/USB30/CH56x_usb30.c:325
        USBSS->LINK_CTRL = GO_DISABLED | POWER_MODE_3;
     6b0:	474d                	li	a4,19
     6b2:	c3d8                	sw	a4,4(a5)
c:\Users\rui\Desktop\iphone_screen\wch\code\hspi_usb3_ping_pong\hspi_usb3_ping_pong\obj/../User/USB30/CH56x_usb30.c:329
}
     6b4:	40b2                	lw	ra,12(sp)
c:\Users\rui\Desktop\iphone_screen\wch\code\hspi_usb3_ping_pong\hspi_usb3_ping_pong\obj/../User/USB30/CH56x_usb30.c:326
        USBSS->LINK_INT_CTRL = 0;
     6b6:	0007a423          	sw	zero,8(a5) # 40008008 <buffer0+0x1ffe6e08>
c:\Users\rui\Desktop\iphone_screen\wch\code\hspi_usb3_ping_pong\hspi_usb3_ping_pong\obj/../User/USB30/CH56x_usb30.c:327
        USBSS->USB_CONTROL = USB_FORCE_RST | USB_ALL_CLR;
     6ba:	4719                	li	a4,6
     6bc:	d398                	sw	a4,32(a5)
c:\Users\rui\Desktop\iphone_screen\wch\code\hspi_usb3_ping_pong\hspi_usb3_ping_pong\obj/../User/USB30/CH56x_usb30.c:329
}
     6be:	0141                	addi	sp,sp,16
     6c0:	8082                	ret

000006c2 <USB30_NonStandardReq>:
USB30_NonStandardReq():
c:\Users\rui\Desktop\iphone_screen\wch\code\hspi_usb3_ping_pong\hspi_usb3_ping_pong\obj/../User/USB30/CH56x_usb30.c:332

UINT16 USB30_NonStandardReq( void )
{
     6c2:	1101                	addi	sp,sp,-32
c:\Users\rui\Desktop\iphone_screen\wch\code\hspi_usb3_ping_pong\hspi_usb3_ping_pong\obj/../User/USB30/CH56x_usb30.c:335
    UINT8 endp_dir;

    SetupReqCode = UsbSetupBuf->bRequest;
     6c4:	20020537          	lui	a0,0x20020
c:\Users\rui\Desktop\iphone_screen\wch\code\hspi_usb3_ping_pong\hspi_usb3_ping_pong\obj/../User/USB30/CH56x_usb30.c:332
{
     6c8:	cc22                	sw	s0,24(sp)
c:\Users\rui\Desktop\iphone_screen\wch\code\hspi_usb3_ping_pong\hspi_usb3_ping_pong\obj/../User/USB30/CH56x_usb30.c:335
    SetupReqCode = UsbSetupBuf->bRequest;
     6ca:	00050713          	mv	a4,a0
c:\Users\rui\Desktop\iphone_screen\wch\code\hspi_usb3_ping_pong\hspi_usb3_ping_pong\obj/../User/USB30/CH56x_usb30.c:332
{
     6ce:	ce06                	sw	ra,28(sp)
     6d0:	ca26                	sw	s1,20(sp)
     6d2:	c84a                	sw	s2,16(sp)
     6d4:	c64e                	sw	s3,12(sp)
     6d6:	c452                	sw	s4,8(sp)
     6d8:	c256                	sw	s5,4(sp)
c:\Users\rui\Desktop\iphone_screen\wch\code\hspi_usb3_ping_pong\hspi_usb3_ping_pong\obj/../User/USB30/CH56x_usb30.c:335
    SetupReqCode = UsbSetupBuf->bRequest;
     6da:	00174603          	lbu	a2,1(a4) # 40008001 <buffer0+0x1ffe6e01>
c:\Users\rui\Desktop\iphone_screen\wch\code\hspi_usb3_ping_pong\hspi_usb3_ping_pong\obj/../User/USB30/CH56x_usb30.c:336
    SetupLen = UsbSetupBuf->wLength;
     6de:	00675583          	lhu	a1,6(a4)
c:\Users\rui\Desktop\iphone_screen\wch\code\hspi_usb3_ping_pong\hspi_usb3_ping_pong\obj/../User/USB30/CH56x_usb30.c:335
    SetupReqCode = UsbSetupBuf->bRequest;
     6e2:	82c18023          	sb	a2,-2016(gp) # 200000d0 <SetupReqCode>
c:\Users\rui\Desktop\iphone_screen\wch\code\hspi_usb3_ping_pong\hspi_usb3_ping_pong\obj/../User/USB30/CH56x_usb30.c:336
    SetupLen = UsbSetupBuf->wLength;
     6e6:	80b1ae23          	sw	a1,-2020(gp) # 200000cc <SetupLen>
c:\Users\rui\Desktop\iphone_screen\wch\code\hspi_usb3_ping_pong\hspi_usb3_ping_pong\obj/../User/USB30/CH56x_usb30.c:337
    endp_dir = UsbSetupBuf->bRequestType & 0x80;
     6ea:	4809                	li	a6,2
     6ec:	00074683          	lbu	a3,0(a4)
c:\Users\rui\Desktop\iphone_screen\wch\code\hspi_usb3_ping_pong\hspi_usb3_ping_pong\obj/../User/USB30/CH56x_usb30.c:344
#if 0
    printf("NS:%02x %02x %02x %02x %02x %02x %02x %02x\n", endp0RTbuff[0], endp0RTbuff[1],
            endp0RTbuff[2], endp0RTbuff[3], endp0RTbuff[4], endp0RTbuff[5],
            endp0RTbuff[6], endp0RTbuff[7]);
#endif
    switch( SetupReqCode )
     6f0:	82018793          	addi	a5,gp,-2016 # 200000d0 <SetupReqCode>
     6f4:	81c18413          	addi	s0,gp,-2020 # 200000cc <SetupLen>
     6f8:	03060563          	beq	a2,a6,722 <USB30_NonStandardReq+0x60>
     6fc:	0aa00713          	li	a4,170
     700:	04e60063          	beq	a2,a4,740 <USB30_NonStandardReq+0x7e>
c:\Users\rui\Desktop\iphone_screen\wch\code\hspi_usb3_ping_pong\hspi_usb3_ping_pong\obj/../User/USB30/CH56x_usb30.c:361
                        SetupLen = SIZE_PropertyHeader;
                    }
                    pDescr = (PUINT8)PropertyHeader;
                    break;
                default:
                    SetupReqCode = INVALID_REQ_CODE;
     704:	577d                	li	a4,-1
c:\Users\rui\Desktop\iphone_screen\wch\code\hspi_usb3_ping_pong\hspi_usb3_ping_pong\obj/../User/USB30/CH56x_usb30.c:362
                    return USB_DESCR_UNSUPPORTED;
     706:	69c1                	lui	s3,0x10
c:\Users\rui\Desktop\iphone_screen\wch\code\hspi_usb3_ping_pong\hspi_usb3_ping_pong\obj/../User/USB30/CH56x_usb30.c:361
                    SetupReqCode = INVALID_REQ_CODE;
     708:	00e78023          	sb	a4,0(a5)
c:\Users\rui\Desktop\iphone_screen\wch\code\hspi_usb3_ping_pong\hspi_usb3_ping_pong\obj/../User/USB30/CH56x_usb30.c:362
                    return USB_DESCR_UNSUPPORTED;
     70c:	19fd                	addi	s3,s3,-1
c:\Users\rui\Desktop\iphone_screen\wch\code\hspi_usb3_ping_pong\hspi_usb3_ping_pong\obj/../User/USB30/CH56x_usb30.c:379
        memcpy( endp0RTbuff, pDescr, len );                           // Load upload data
        pDescr += len;
    }
    SetupLen -= len;
    return len;
}
     70e:	40f2                	lw	ra,28(sp)
     710:	4462                	lw	s0,24(sp)
     712:	854e                	mv	a0,s3
     714:	44d2                	lw	s1,20(sp)
     716:	4942                	lw	s2,16(sp)
     718:	49b2                	lw	s3,12(sp)
     71a:	4a22                	lw	s4,8(sp)
     71c:	4a92                	lw	s5,4(sp)
     71e:	6105                	addi	sp,sp,32
     720:	8082                	ret
c:\Users\rui\Desktop\iphone_screen\wch\code\hspi_usb3_ping_pong\hspi_usb3_ping_pong\obj/../User/USB30/CH56x_usb30.c:351
            switch( UsbSetupBuf->wIndexL )
     722:	00474603          	lbu	a2,4(a4)
     726:	4715                	li	a4,5
     728:	fce61ee3          	bne	a2,a4,704 <USB30_NonStandardReq+0x42>
c:\Users\rui\Desktop\iphone_screen\wch\code\hspi_usb3_ping_pong\hspi_usb3_ping_pong\obj/../User/USB30/CH56x_usb30.c:354
                    if( SetupLen > SIZE_PropertyHeader )
     72c:	08e00793          	li	a5,142
     730:	00b7f363          	bgeu	a5,a1,736 <USB30_NonStandardReq+0x74>
c:\Users\rui\Desktop\iphone_screen\wch\code\hspi_usb3_ping_pong\hspi_usb3_ping_pong\obj/../User/USB30/CH56x_usb30.c:356
                        SetupLen = SIZE_PropertyHeader;
     734:	c01c                	sw	a5,0(s0)
c:\Users\rui\Desktop\iphone_screen\wch\code\hspi_usb3_ping_pong\hspi_usb3_ping_pong\obj/../User/USB30/CH56x_usb30.c:358
                    pDescr = (PUINT8)PropertyHeader;
     736:	6789                	lui	a5,0x2
     738:	60878793          	addi	a5,a5,1544 # 2608 <PropertyHeader>
     73c:	82f1a223          	sw	a5,-2012(gp) # 200000d4 <pDescr>
c:\Users\rui\Desktop\iphone_screen\wch\code\hspi_usb3_ping_pong\hspi_usb3_ping_pong\obj/../User/USB30/CH56x_usb30.c:371
    len = SetupLen >= ENDP0_MAXPACK ? ENDP0_MAXPACK : SetupLen;     // Current transmission length
     740:	4004                	lw	s1,0(s0)
     742:	20000793          	li	a5,512
     746:	8926                	mv	s2,s1
     748:	0097f463          	bgeu	a5,s1,750 <USB30_NonStandardReq+0x8e>
     74c:	20000913          	li	s2,512
c:\Users\rui\Desktop\iphone_screen\wch\code\hspi_usb3_ping_pong\hspi_usb3_ping_pong\obj/../User/USB30/CH56x_usb30.c:372
    if( endp_dir )
     750:	01869793          	slli	a5,a3,0x18
c:\Users\rui\Desktop\iphone_screen\wch\code\hspi_usb3_ping_pong\hspi_usb3_ping_pong\obj/../User/USB30/CH56x_usb30.c:371
    len = SetupLen >= ENDP0_MAXPACK ? ENDP0_MAXPACK : SetupLen;     // Current transmission length
     754:	01091993          	slli	s3,s2,0x10
c:\Users\rui\Desktop\iphone_screen\wch\code\hspi_usb3_ping_pong\hspi_usb3_ping_pong\obj/../User/USB30/CH56x_usb30.c:372
    if( endp_dir )
     758:	87e1                	srai	a5,a5,0x18
c:\Users\rui\Desktop\iphone_screen\wch\code\hspi_usb3_ping_pong\hspi_usb3_ping_pong\obj/../User/USB30/CH56x_usb30.c:371
    len = SetupLen >= ENDP0_MAXPACK ? ENDP0_MAXPACK : SetupLen;     // Current transmission length
     75a:	0109d993          	srli	s3,s3,0x10
c:\Users\rui\Desktop\iphone_screen\wch\code\hspi_usb3_ping_pong\hspi_usb3_ping_pong\obj/../User/USB30/CH56x_usb30.c:372
    if( endp_dir )
     75e:	0007df63          	bgez	a5,77c <USB30_NonStandardReq+0xba>
c:\Users\rui\Desktop\iphone_screen\wch\code\hspi_usb3_ping_pong\hspi_usb3_ping_pong\obj/../User/USB30/CH56x_usb30.c:374
        memcpy( endp0RTbuff, pDescr, len );                           // Load upload data
     762:	82418a13          	addi	s4,gp,-2012 # 200000d4 <pDescr>
     766:	000a2a83          	lw	s5,0(s4)
     76a:	864a                	mv	a2,s2
     76c:	00050513          	mv	a0,a0
     770:	85d6                	mv	a1,s5
c:\Users\rui\Desktop\iphone_screen\wch\code\hspi_usb3_ping_pong\hspi_usb3_ping_pong\obj/../User/USB30/CH56x_usb30.c:375
        pDescr += len;
     772:	9aca                	add	s5,s5,s2
c:\Users\rui\Desktop\iphone_screen\wch\code\hspi_usb3_ping_pong\hspi_usb3_ping_pong\obj/../User/USB30/CH56x_usb30.c:374
        memcpy( endp0RTbuff, pDescr, len );                           // Load upload data
     774:	31f000ef          	jal	ra,1292 <memcpy>
c:\Users\rui\Desktop\iphone_screen\wch\code\hspi_usb3_ping_pong\hspi_usb3_ping_pong\obj/../User/USB30/CH56x_usb30.c:375
        pDescr += len;
     778:	015a2023          	sw	s5,0(s4)
c:\Users\rui\Desktop\iphone_screen\wch\code\hspi_usb3_ping_pong\hspi_usb3_ping_pong\obj/../User/USB30/CH56x_usb30.c:377
    SetupLen -= len;
     77c:	412484b3          	sub	s1,s1,s2
     780:	c004                	sw	s1,0(s0)
c:\Users\rui\Desktop\iphone_screen\wch\code\hspi_usb3_ping_pong\hspi_usb3_ping_pong\obj/../User/USB30/CH56x_usb30.c:378
    return len;
     782:	b771                	j	70e <USB30_NonStandardReq+0x4c>

00000784 <USB30_StandardReq>:
USB30_StandardReq():
c:\Users\rui\Desktop\iphone_screen\wch\code\hspi_usb3_ping_pong\hspi_usb3_ping_pong\obj/../User/USB30/CH56x_usb30.c:382

UINT16 USB30_StandardReq( void )
{
     784:	1101                	addi	sp,sp,-32
c:\Users\rui\Desktop\iphone_screen\wch\code\hspi_usb3_ping_pong\hspi_usb3_ping_pong\obj/../User/USB30/CH56x_usb30.c:383
    SetupReqCode = UsbSetupBuf->bRequest;
     786:	20020537          	lui	a0,0x20020
c:\Users\rui\Desktop\iphone_screen\wch\code\hspi_usb3_ping_pong\hspi_usb3_ping_pong\obj/../User/USB30/CH56x_usb30.c:382
{
     78a:	cc22                	sw	s0,24(sp)
     78c:	ce06                	sw	ra,28(sp)
     78e:	ca26                	sw	s1,20(sp)
     790:	c84a                	sw	s2,16(sp)
     792:	c64e                	sw	s3,12(sp)
     794:	c452                	sw	s4,8(sp)
     796:	c256                	sw	s5,4(sp)
c:\Users\rui\Desktop\iphone_screen\wch\code\hspi_usb3_ping_pong\hspi_usb3_ping_pong\obj/../User/USB30/CH56x_usb30.c:383
    SetupReqCode = UsbSetupBuf->bRequest;
     798:	00050693          	mv	a3,a0
     79c:	0016c783          	lbu	a5,1(a3)
c:\Users\rui\Desktop\iphone_screen\wch\code\hspi_usb3_ping_pong\hspi_usb3_ping_pong\obj/../User/USB30/CH56x_usb30.c:384
    SetupLen = UsbSetupBuf->wLength;
     7a0:	0066d703          	lhu	a4,6(a3)
c:\Users\rui\Desktop\iphone_screen\wch\code\hspi_usb3_ping_pong\hspi_usb3_ping_pong\obj/../User/USB30/CH56x_usb30.c:392
    printf("S:%02x %02x %02x %02x %02x %02x %02x %02x\n", endp0RTbuff[0], endp0RTbuff[1],
            endp0RTbuff[2], endp0RTbuff[3], endp0RTbuff[4], endp0RTbuff[5],
            endp0RTbuff[6], endp0RTbuff[7]);
#endif

    if( (UsbSetupBuf->bRequestType & USB_REQ_TYP_MASK) != USB_REQ_TYP_STANDARD )
     7a4:	0006c603          	lbu	a2,0(a3)
c:\Users\rui\Desktop\iphone_screen\wch\code\hspi_usb3_ping_pong\hspi_usb3_ping_pong\obj/../User/USB30/CH56x_usb30.c:384
    SetupLen = UsbSetupBuf->wLength;
     7a8:	81c18813          	addi	a6,gp,-2020 # 200000cc <SetupLen>
c:\Users\rui\Desktop\iphone_screen\wch\code\hspi_usb3_ping_pong\hspi_usb3_ping_pong\obj/../User/USB30/CH56x_usb30.c:383
    SetupReqCode = UsbSetupBuf->bRequest;
     7ac:	82f18023          	sb	a5,-2016(gp) # 200000d0 <SetupReqCode>
c:\Users\rui\Desktop\iphone_screen\wch\code\hspi_usb3_ping_pong\hspi_usb3_ping_pong\obj/../User/USB30/CH56x_usb30.c:384
    SetupLen = UsbSetupBuf->wLength;
     7b0:	00e82023          	sw	a4,0(a6) # 3e00000 <_data_lma+0x3dfd7c4>
c:\Users\rui\Desktop\iphone_screen\wch\code\hspi_usb3_ping_pong\hspi_usb3_ping_pong\obj/../User/USB30/CH56x_usb30.c:392
    if( (UsbSetupBuf->bRequestType & USB_REQ_TYP_MASK) != USB_REQ_TYP_STANDARD )
     7b4:	06067613          	andi	a2,a2,96
     7b8:	ca11                	beqz	a2,7cc <USB30_StandardReq+0x48>
c:\Users\rui\Desktop\iphone_screen\wch\code\hspi_usb3_ping_pong\hspi_usb3_ping_pong\obj/../User/USB30/CH56x_usb30.c:491
                SetupReqCode = INVALID_REQ_CODE;
                break;
        }
    }
    return len;
}
     7ba:	4462                	lw	s0,24(sp)
     7bc:	40f2                	lw	ra,28(sp)
     7be:	44d2                	lw	s1,20(sp)
     7c0:	4942                	lw	s2,16(sp)
     7c2:	49b2                	lw	s3,12(sp)
     7c4:	4a22                	lw	s4,8(sp)
     7c6:	4a92                	lw	s5,4(sp)
     7c8:	6105                	addi	sp,sp,32
c:\Users\rui\Desktop\iphone_screen\wch\code\hspi_usb3_ping_pong\hspi_usb3_ping_pong\obj/../User/USB30/CH56x_usb30.c:394
        len = USB30_NonStandardReq( );
     7ca:	bde5                	j	6c2 <USB30_NonStandardReq>
     7cc:	4619                	li	a2,6
     7ce:	82018593          	addi	a1,gp,-2016 # 200000d0 <SetupReqCode>
     7d2:	81c18413          	addi	s0,gp,-2020 # 200000cc <SetupLen>
c:\Users\rui\Desktop\iphone_screen\wch\code\hspi_usb3_ping_pong\hspi_usb3_ping_pong\obj/../User/USB30/CH56x_usb30.c:398
        switch( SetupReqCode )
     7d6:	06c78363          	beq	a5,a2,83c <__stack_size+0x3c>
     7da:	00050893          	mv	a7,a0
     7de:	02f66463          	bltu	a2,a5,806 <__stack_size+0x6>
     7e2:	4705                	li	a4,1
c:\Users\rui\Desktop\iphone_screen\wch\code\hspi_usb3_ping_pong\hspi_usb3_ping_pong\obj/../User/USB30/CH56x_usb30.c:385
    UINT16 len = 0;
     7e4:	4901                	li	s2,0
     7e6:	02e78963          	beq	a5,a4,818 <__stack_size+0x18>
     7ea:	16078263          	beqz	a5,94e <__stack_size+0x14e>
     7ee:	470d                	li	a4,3
     7f0:	02e78463          	beq	a5,a4,818 <__stack_size+0x18>
     7f4:	4715                	li	a4,5
     7f6:	14e78763          	beq	a5,a4,944 <__stack_size+0x144>
c:\Users\rui\Desktop\iphone_screen\wch\code\hspi_usb3_ping_pong\hspi_usb3_ping_pong\obj/../User/USB30/CH56x_usb30.c:486
                SetupReqCode = INVALID_REQ_CODE;
     7fa:	57fd                	li	a5,-1
c:\Users\rui\Desktop\iphone_screen\wch\code\hspi_usb3_ping_pong\hspi_usb3_ping_pong\obj/../User/USB30/CH56x_usb30.c:485
                len = USB_DESCR_UNSUPPORTED;  //return stallunsupported command
     7fc:	6941                	lui	s2,0x10
c:\Users\rui\Desktop\iphone_screen\wch\code\hspi_usb3_ping_pong\hspi_usb3_ping_pong\obj/../User/USB30/CH56x_usb30.c:486
                SetupReqCode = INVALID_REQ_CODE;
     7fe:	00f58023          	sb	a5,0(a1)
c:\Users\rui\Desktop\iphone_screen\wch\code\hspi_usb3_ping_pong\hspi_usb3_ping_pong\obj/../User/USB30/CH56x_usb30.c:485
                len = USB_DESCR_UNSUPPORTED;  //return stallunsupported command
     802:	197d                	addi	s2,s2,-1
c:\Users\rui\Desktop\iphone_screen\wch\code\hspi_usb3_ping_pong\hspi_usb3_ping_pong\obj/../User/USB30/CH56x_usb30.c:487
                break;
     804:	a811                	j	818 <__stack_size+0x18>
     806:	472d                	li	a4,11
c:\Users\rui\Desktop\iphone_screen\wch\code\hspi_usb3_ping_pong\hspi_usb3_ping_pong\obj/../User/USB30/CH56x_usb30.c:385
    UINT16 len = 0;
     808:	4901                	li	s2,0
     80a:	00e78763          	beq	a5,a4,818 <__stack_size+0x18>
     80e:	00f76f63          	bltu	a4,a5,82c <__stack_size+0x2c>
     812:	4725                	li	a4,9
     814:	fee793e3          	bne	a5,a4,7fa <USB30_StandardReq+0x76>
c:\Users\rui\Desktop\iphone_screen\wch\code\hspi_usb3_ping_pong\hspi_usb3_ping_pong\obj/../User/USB30/CH56x_usb30.c:491
}
     818:	40f2                	lw	ra,28(sp)
     81a:	4462                	lw	s0,24(sp)
     81c:	854a                	mv	a0,s2
     81e:	44d2                	lw	s1,20(sp)
     820:	4942                	lw	s2,16(sp)
     822:	49b2                	lw	s3,12(sp)
     824:	4a22                	lw	s4,8(sp)
     826:	4a92                	lw	s5,4(sp)
     828:	6105                	addi	sp,sp,32
     82a:	8082                	ret
     82c:	03000713          	li	a4,48
c:\Users\rui\Desktop\iphone_screen\wch\code\hspi_usb3_ping_pong\hspi_usb3_ping_pong\obj/../User/USB30/CH56x_usb30.c:385
    UINT16 len = 0;
     830:	4901                	li	s2,0
     832:	fee783e3          	beq	a5,a4,818 <__stack_size+0x18>
     836:	03100713          	li	a4,49
     83a:	bf75                	j	7f6 <USB30_StandardReq+0x72>
c:\Users\rui\Desktop\iphone_screen\wch\code\hspi_usb3_ping_pong\hspi_usb3_ping_pong\obj/../User/USB30/CH56x_usb30.c:401
                switch( UsbSetupBuf->wValueH )
     83c:	0036c603          	lbu	a2,3(a3)
     840:	4809                	li	a6,2
     842:	82418493          	addi	s1,gp,-2012 # 200000d4 <pDescr>
     846:	07060e63          	beq	a2,a6,8c2 <__stack_size+0xc2>
     84a:	00c86963          	bltu	a6,a2,85c <__stack_size+0x5c>
     84e:	4785                	li	a5,1
     850:	02f60463          	beq	a2,a5,878 <__stack_size+0x78>
c:\Users\rui\Desktop\iphone_screen\wch\code\hspi_usb3_ping_pong\hspi_usb3_ping_pong\obj/../User/USB30/CH56x_usb30.c:448
                                SetupReqCode = INVALID_REQ_CODE; //Invalid request code
     854:	57fd                	li	a5,-1
     856:	00f58023          	sb	a5,0(a1)
c:\Users\rui\Desktop\iphone_screen\wch\code\hspi_usb3_ping_pong\hspi_usb3_ping_pong\obj/../User/USB30/CH56x_usb30.c:449
                                break;
     85a:	a03d                	j	888 <__stack_size+0x88>
     85c:	478d                	li	a5,3
     85e:	06f60b63          	beq	a2,a5,8d4 <__stack_size+0xd4>
     862:	47bd                	li	a5,15
     864:	fef618e3          	bne	a2,a5,854 <__stack_size+0x54>
c:\Users\rui\Desktop\iphone_screen\wch\code\hspi_usb3_ping_pong\hspi_usb3_ping_pong\obj/../User/USB30/CH56x_usb30.c:414
                        if( SetupLen > SIZE_BOS_DESC )
     868:	47d9                	li	a5,22
     86a:	00e7f363          	bgeu	a5,a4,870 <__stack_size+0x70>
c:\Users\rui\Desktop\iphone_screen\wch\code\hspi_usb3_ping_pong\hspi_usb3_ping_pong\obj/../User/USB30/CH56x_usb30.c:415
                            SetupLen = SIZE_BOS_DESC;
     86e:	c01c                	sw	a5,0(s0)
c:\Users\rui\Desktop\iphone_screen\wch\code\hspi_usb3_ping_pong\hspi_usb3_ping_pong\obj/../User/USB30/CH56x_usb30.c:416
                        pDescr = (PUINT8)BOSDescriptor;
     870:	6789                	lui	a5,0x2
     872:	59478793          	addi	a5,a5,1428 # 2594 <BOSDescriptor>
     876:	a801                	j	886 <__stack_size+0x86>
c:\Users\rui\Desktop\iphone_screen\wch\code\hspi_usb3_ping_pong\hspi_usb3_ping_pong\obj/../User/USB30/CH56x_usb30.c:404
                        if( SetupLen > SIZE_DEVICE_DESC )
     878:	47c9                	li	a5,18
     87a:	00e7f363          	bgeu	a5,a4,880 <__stack_size+0x80>
c:\Users\rui\Desktop\iphone_screen\wch\code\hspi_usb3_ping_pong\hspi_usb3_ping_pong\obj/../User/USB30/CH56x_usb30.c:405
                            SetupLen = SIZE_DEVICE_DESC;
     87e:	c01c                	sw	a5,0(s0)
c:\Users\rui\Desktop\iphone_screen\wch\code\hspi_usb3_ping_pong\hspi_usb3_ping_pong\obj/../User/USB30/CH56x_usb30.c:406
                        pDescr = (PUINT8)SS_DeviceDescriptor;
     880:	6789                	lui	a5,0x2
     882:	6c478793          	addi	a5,a5,1732 # 26c4 <SS_DeviceDescriptor>
c:\Users\rui\Desktop\iphone_screen\wch\code\hspi_usb3_ping_pong\hspi_usb3_ping_pong\obj/../User/USB30/CH56x_usb30.c:439
                                pDescr = (PUINT8)StringSerial;
     886:	c09c                	sw	a5,0(s1)
c:\Users\rui\Desktop\iphone_screen\wch\code\hspi_usb3_ping_pong\hspi_usb3_ping_pong\obj/../User/USB30/CH56x_usb30.c:457
                len = SetupLen >= ENDP0_MAXPACK ? ENDP0_MAXPACK : SetupLen; //Current transmission length
     888:	00042a03          	lw	s4,0(s0)
     88c:	20000793          	li	a5,512
     890:	89d2                	mv	s3,s4
     892:	0147f463          	bgeu	a5,s4,89a <__stack_size+0x9a>
     896:	20000993          	li	s3,512
c:\Users\rui\Desktop\iphone_screen\wch\code\hspi_usb3_ping_pong\hspi_usb3_ping_pong\obj/../User/USB30/CH56x_usb30.c:458
                memcpy( endp0RTbuff, pDescr, len );                           //Load upload data
     89a:	0004aa83          	lw	s5,0(s1)
c:\Users\rui\Desktop\iphone_screen\wch\code\hspi_usb3_ping_pong\hspi_usb3_ping_pong\obj/../User/USB30/CH56x_usb30.c:457
                len = SetupLen >= ENDP0_MAXPACK ? ENDP0_MAXPACK : SetupLen; //Current transmission length
     89e:	01099913          	slli	s2,s3,0x10
c:\Users\rui\Desktop\iphone_screen\wch\code\hspi_usb3_ping_pong\hspi_usb3_ping_pong\obj/../User/USB30/CH56x_usb30.c:458
                memcpy( endp0RTbuff, pDescr, len );                           //Load upload data
     8a2:	864e                	mv	a2,s3
c:\Users\rui\Desktop\iphone_screen\wch\code\hspi_usb3_ping_pong\hspi_usb3_ping_pong\obj/../User/USB30/CH56x_usb30.c:459
                SetupLen -= len;
     8a4:	413a0a33          	sub	s4,s4,s3
c:\Users\rui\Desktop\iphone_screen\wch\code\hspi_usb3_ping_pong\hspi_usb3_ping_pong\obj/../User/USB30/CH56x_usb30.c:458
                memcpy( endp0RTbuff, pDescr, len );                           //Load upload data
     8a8:	85d6                	mv	a1,s5
     8aa:	00050513          	mv	a0,a0
c:\Users\rui\Desktop\iphone_screen\wch\code\hspi_usb3_ping_pong\hspi_usb3_ping_pong\obj/../User/USB30/CH56x_usb30.c:460
                pDescr += len;
     8ae:	99d6                	add	s3,s3,s5
c:\Users\rui\Desktop\iphone_screen\wch\code\hspi_usb3_ping_pong\hspi_usb3_ping_pong\obj/../User/USB30/CH56x_usb30.c:458
                memcpy( endp0RTbuff, pDescr, len );                           //Load upload data
     8b0:	1e3000ef          	jal	ra,1292 <memcpy>
c:\Users\rui\Desktop\iphone_screen\wch\code\hspi_usb3_ping_pong\hspi_usb3_ping_pong\obj/../User/USB30/CH56x_usb30.c:457
                len = SetupLen >= ENDP0_MAXPACK ? ENDP0_MAXPACK : SetupLen; //Current transmission length
     8b4:	01095913          	srli	s2,s2,0x10
c:\Users\rui\Desktop\iphone_screen\wch\code\hspi_usb3_ping_pong\hspi_usb3_ping_pong\obj/../User/USB30/CH56x_usb30.c:459
                SetupLen -= len;
     8b8:	01442023          	sw	s4,0(s0)
c:\Users\rui\Desktop\iphone_screen\wch\code\hspi_usb3_ping_pong\hspi_usb3_ping_pong\obj/../User/USB30/CH56x_usb30.c:460
                pDescr += len;
     8bc:	0134a023          	sw	s3,0(s1)
c:\Users\rui\Desktop\iphone_screen\wch\code\hspi_usb3_ping_pong\hspi_usb3_ping_pong\obj/../User/USB30/CH56x_usb30.c:461
                break;
     8c0:	bfa1                	j	818 <__stack_size+0x18>
c:\Users\rui\Desktop\iphone_screen\wch\code\hspi_usb3_ping_pong\hspi_usb3_ping_pong\obj/../User/USB30/CH56x_usb30.c:409
                        if( SetupLen > SIZE_CONFIG_DESC )
     8c2:	02c00793          	li	a5,44
     8c6:	00e7f363          	bgeu	a5,a4,8cc <__stack_size+0xcc>
c:\Users\rui\Desktop\iphone_screen\wch\code\hspi_usb3_ping_pong\hspi_usb3_ping_pong\obj/../User/USB30/CH56x_usb30.c:410
                            SetupLen = SIZE_CONFIG_DESC;
     8ca:	c01c                	sw	a5,0(s0)
c:\Users\rui\Desktop\iphone_screen\wch\code\hspi_usb3_ping_pong\hspi_usb3_ping_pong\obj/../User/USB30/CH56x_usb30.c:411
                        pDescr = (PUINT8)SS_ConfigDescriptor;
     8cc:	6789                	lui	a5,0x2
     8ce:	69878793          	addi	a5,a5,1688 # 2698 <SS_ConfigDescriptor>
     8d2:	bf55                	j	886 <__stack_size+0x86>
c:\Users\rui\Desktop\iphone_screen\wch\code\hspi_usb3_ping_pong\hspi_usb3_ping_pong\obj/../User/USB30/CH56x_usb30.c:419 (discriminator 1)
                        switch(UsbSetupBuf->wValueL)
     8d4:	0026c783          	lbu	a5,2(a3)
     8d8:	05078463          	beq	a5,a6,920 <__stack_size+0x120>
     8dc:	00f86d63          	bltu	a6,a5,8f6 <__stack_size+0xf6>
     8e0:	cb8d                	beqz	a5,912 <__stack_size+0x112>
     8e2:	4685                	li	a3,1
     8e4:	f6d798e3          	bne	a5,a3,854 <__stack_size+0x54>
c:\Users\rui\Desktop\iphone_screen\wch\code\hspi_usb3_ping_pong\hspi_usb3_ping_pong\obj/../User/USB30/CH56x_usb30.c:427
                                if(SetupLen > SIZE_STRING_VENDOR)
     8e8:	47a1                	li	a5,8
     8ea:	00e7f363          	bgeu	a5,a4,8f0 <__stack_size+0xf0>
c:\Users\rui\Desktop\iphone_screen\wch\code\hspi_usb3_ping_pong\hspi_usb3_ping_pong\obj/../User/USB30/CH56x_usb30.c:428
                                    SetupLen = SIZE_STRING_VENDOR;
     8ee:	c01c                	sw	a5,0(s0)
c:\Users\rui\Desktop\iphone_screen\wch\code\hspi_usb3_ping_pong\hspi_usb3_ping_pong\obj/../User/USB30/CH56x_usb30.c:429
                                pDescr = (PUINT8)StringVendor;
     8f0:	80c18793          	addi	a5,gp,-2036 # 200000bc <StringVendor>
     8f4:	bf49                	j	886 <__stack_size+0x86>
     8f6:	02c78e63          	beq	a5,a2,932 <__stack_size+0x132>
     8fa:	0ee00693          	li	a3,238
     8fe:	f4d79be3          	bne	a5,a3,854 <__stack_size+0x54>
c:\Users\rui\Desktop\iphone_screen\wch\code\hspi_usb3_ping_pong\hspi_usb3_ping_pong\obj/../User/USB30/CH56x_usb30.c:442
                                if(SetupLen > SIZE_STRING_OS)
     902:	47c9                	li	a5,18
     904:	00e7f363          	bgeu	a5,a4,90a <__stack_size+0x10a>
c:\Users\rui\Desktop\iphone_screen\wch\code\hspi_usb3_ping_pong\hspi_usb3_ping_pong\obj/../User/USB30/CH56x_usb30.c:443
                                    SetupLen = SIZE_STRING_OS;
     908:	c01c                	sw	a5,0(s0)
c:\Users\rui\Desktop\iphone_screen\wch\code\hspi_usb3_ping_pong\hspi_usb3_ping_pong\obj/../User/USB30/CH56x_usb30.c:444
                                pDescr = (PUINT8)OSStringDescriptor;
     90a:	6789                	lui	a5,0x2
     90c:	5f478793          	addi	a5,a5,1524 # 25f4 <OSStringDescriptor>
     910:	bf9d                	j	886 <__stack_size+0x86>
c:\Users\rui\Desktop\iphone_screen\wch\code\hspi_usb3_ping_pong\hspi_usb3_ping_pong\obj/../User/USB30/CH56x_usb30.c:422
                                if(SetupLen > SIZE_STRING_LANGID)
     912:	4791                	li	a5,4
     914:	00e7f363          	bgeu	a5,a4,91a <__stack_size+0x11a>
c:\Users\rui\Desktop\iphone_screen\wch\code\hspi_usb3_ping_pong\hspi_usb3_ping_pong\obj/../User/USB30/CH56x_usb30.c:423
                                    SetupLen = SIZE_STRING_LANGID;
     918:	c01c                	sw	a5,0(s0)
c:\Users\rui\Desktop\iphone_screen\wch\code\hspi_usb3_ping_pong\hspi_usb3_ping_pong\obj/../User/USB30/CH56x_usb30.c:424
                                pDescr = (PUINT8)StringLangID;
     91a:	80818793          	addi	a5,gp,-2040 # 200000b8 <StringLangID>
     91e:	b7a5                	j	886 <__stack_size+0x86>
c:\Users\rui\Desktop\iphone_screen\wch\code\hspi_usb3_ping_pong\hspi_usb3_ping_pong\obj/../User/USB30/CH56x_usb30.c:432
                                if(SetupLen > SIZE_STRING_PRODUCT)
     920:	02600793          	li	a5,38
     924:	00e7f363          	bgeu	a5,a4,92a <__stack_size+0x12a>
c:\Users\rui\Desktop\iphone_screen\wch\code\hspi_usb3_ping_pong\hspi_usb3_ping_pong\obj/../User/USB30/CH56x_usb30.c:433
                                    SetupLen = SIZE_STRING_PRODUCT;
     928:	c01c                	sw	a5,0(s0)
c:\Users\rui\Desktop\iphone_screen\wch\code\hspi_usb3_ping_pong\hspi_usb3_ping_pong\obj/../User/USB30/CH56x_usb30.c:434
                                pDescr = (PUINT8)StringProduct;
     92a:	6789                	lui	a5,0x2
     92c:	6d878793          	addi	a5,a5,1752 # 26d8 <StringProduct>
     930:	bf99                	j	886 <__stack_size+0x86>
c:\Users\rui\Desktop\iphone_screen\wch\code\hspi_usb3_ping_pong\hspi_usb3_ping_pong\obj/../User/USB30/CH56x_usb30.c:437
                                if(SetupLen > SIZE_STRING_SERIAL)
     932:	47d9                	li	a5,22
     934:	00e7f363          	bgeu	a5,a4,93a <__stack_size+0x13a>
c:\Users\rui\Desktop\iphone_screen\wch\code\hspi_usb3_ping_pong\hspi_usb3_ping_pong\obj/../User/USB30/CH56x_usb30.c:438
                                    SetupLen = SIZE_STRING_SERIAL;
     938:	c01c                	sw	a5,0(s0)
c:\Users\rui\Desktop\iphone_screen\wch\code\hspi_usb3_ping_pong\hspi_usb3_ping_pong\obj/../User/USB30/CH56x_usb30.c:439
                                pDescr = (PUINT8)StringSerial;
     93a:	200007b7          	lui	a5,0x20000
     93e:	00078793          	mv	a5,a5
     942:	b791                	j	886 <__stack_size+0x86>
c:\Users\rui\Desktop\iphone_screen\wch\code\hspi_usb3_ping_pong\hspi_usb3_ping_pong\obj/../User/USB30/CH56x_usb30.c:463
                SetupLen = UsbSetupBuf->wValueL; // Temporary USB device address
     944:	0028c783          	lbu	a5,2(a7)
c:\Users\rui\Desktop\iphone_screen\wch\code\hspi_usb3_ping_pong\hspi_usb3_ping_pong\obj/../User/USB30/CH56x_usb30.c:385
    UINT16 len = 0;
     948:	4901                	li	s2,0
c:\Users\rui\Desktop\iphone_screen\wch\code\hspi_usb3_ping_pong\hspi_usb3_ping_pong\obj/../User/USB30/CH56x_usb30.c:463
                SetupLen = UsbSetupBuf->wValueL; // Temporary USB device address
     94a:	c01c                	sw	a5,0(s0)
c:\Users\rui\Desktop\iphone_screen\wch\code\hspi_usb3_ping_pong\hspi_usb3_ping_pong\obj/../User/USB30/CH56x_usb30.c:464
                break;
     94c:	b5f1                	j	818 <__stack_size+0x18>
c:\Users\rui\Desktop\iphone_screen\wch\code\hspi_usb3_ping_pong\hspi_usb3_ping_pong\obj/../User/USB30/CH56x_usb30.c:474
                endp0RTbuff[0] = 0x01;
     94e:	00e69023          	sh	a4,0(a3)
c:\Users\rui\Desktop\iphone_screen\wch\code\hspi_usb3_ping_pong\hspi_usb3_ping_pong\obj/../User/USB30/CH56x_usb30.c:476
                SetupLen = 0;
     952:	00082023          	sw	zero,0(a6)
c:\Users\rui\Desktop\iphone_screen\wch\code\hspi_usb3_ping_pong\hspi_usb3_ping_pong\obj/../User/USB30/CH56x_usb30.c:473
                len = 2;
     956:	4909                	li	s2,2
c:\Users\rui\Desktop\iphone_screen\wch\code\hspi_usb3_ping_pong\hspi_usb3_ping_pong\obj/../User/USB30/CH56x_usb30.c:477
                break;
     958:	b5c1                	j	818 <__stack_size+0x18>

0000095a <EP0_IN_Callback>:
EP0_IN_Callback():
c:\Users\rui\Desktop\iphone_screen\wch\code\hspi_usb3_ping_pong\hspi_usb3_ping_pong\obj/../User/USB30/CH56x_usb30.c:496

UINT16 EP0_IN_Callback( void )
{
    UINT16 len = 0;
    switch( SetupReqCode )
     95a:	8201c703          	lbu	a4,-2016(gp) # 200000d0 <SetupReqCode>
c:\Users\rui\Desktop\iphone_screen\wch\code\hspi_usb3_ping_pong\hspi_usb3_ping_pong\obj/../User/USB30/CH56x_usb30.c:494
{
     95e:	1101                	addi	sp,sp,-32
     960:	c256                	sw	s5,4(sp)
     962:	ce06                	sw	ra,28(sp)
     964:	cc22                	sw	s0,24(sp)
     966:	ca26                	sw	s1,20(sp)
     968:	c84a                	sw	s2,16(sp)
     96a:	c64e                	sw	s3,12(sp)
     96c:	c452                	sw	s4,8(sp)
c:\Users\rui\Desktop\iphone_screen\wch\code\hspi_usb3_ping_pong\hspi_usb3_ping_pong\obj/../User/USB30/CH56x_usb30.c:496
    switch( SetupReqCode )
     96e:	4799                	li	a5,6
     970:	4a81                	li	s5,0
     972:	04f71363          	bne	a4,a5,9b8 <EP0_IN_Callback+0x5e>
c:\Users\rui\Desktop\iphone_screen\wch\code\hspi_usb3_ping_pong\hspi_usb3_ping_pong\obj/../User/USB30/CH56x_usb30.c:499
    {
        case USB_GET_DESCRIPTOR:
            len = SetupLen >= ENDP0_MAXPACK ? ENDP0_MAXPACK : SetupLen;
     976:	81c1a483          	lw	s1,-2020(gp) # 200000cc <SetupLen>
     97a:	20000713          	li	a4,512
     97e:	81c18a13          	addi	s4,gp,-2020 # 200000cc <SetupLen>
     982:	8426                	mv	s0,s1
     984:	00977463          	bgeu	a4,s1,98c <EP0_IN_Callback+0x32>
     988:	20000413          	li	s0,512
c:\Users\rui\Desktop\iphone_screen\wch\code\hspi_usb3_ping_pong\hspi_usb3_ping_pong\obj/../User/USB30/CH56x_usb30.c:500
            memcpy( endp0RTbuff, pDescr, len );
     98c:	82418913          	addi	s2,gp,-2012 # 200000d4 <pDescr>
     990:	00092983          	lw	s3,0(s2) # 10000 <_data_lma+0xd7c4>
     994:	20020537          	lui	a0,0x20020
c:\Users\rui\Desktop\iphone_screen\wch\code\hspi_usb3_ping_pong\hspi_usb3_ping_pong\obj/../User/USB30/CH56x_usb30.c:499
            len = SetupLen >= ENDP0_MAXPACK ? ENDP0_MAXPACK : SetupLen;
     998:	01041a93          	slli	s5,s0,0x10
c:\Users\rui\Desktop\iphone_screen\wch\code\hspi_usb3_ping_pong\hspi_usb3_ping_pong\obj/../User/USB30/CH56x_usb30.c:500
            memcpy( endp0RTbuff, pDescr, len );
     99c:	8622                	mv	a2,s0
c:\Users\rui\Desktop\iphone_screen\wch\code\hspi_usb3_ping_pong\hspi_usb3_ping_pong\obj/../User/USB30/CH56x_usb30.c:501
            SetupLen -= len;
     99e:	8c81                	sub	s1,s1,s0
c:\Users\rui\Desktop\iphone_screen\wch\code\hspi_usb3_ping_pong\hspi_usb3_ping_pong\obj/../User/USB30/CH56x_usb30.c:500
            memcpy( endp0RTbuff, pDescr, len );
     9a0:	85ce                	mv	a1,s3
     9a2:	00050513          	mv	a0,a0
c:\Users\rui\Desktop\iphone_screen\wch\code\hspi_usb3_ping_pong\hspi_usb3_ping_pong\obj/../User/USB30/CH56x_usb30.c:502
            pDescr += len;
     9a6:	944e                	add	s0,s0,s3
c:\Users\rui\Desktop\iphone_screen\wch\code\hspi_usb3_ping_pong\hspi_usb3_ping_pong\obj/../User/USB30/CH56x_usb30.c:500
            memcpy( endp0RTbuff, pDescr, len );
     9a8:	0eb000ef          	jal	ra,1292 <memcpy>
c:\Users\rui\Desktop\iphone_screen\wch\code\hspi_usb3_ping_pong\hspi_usb3_ping_pong\obj/../User/USB30/CH56x_usb30.c:499
            len = SetupLen >= ENDP0_MAXPACK ? ENDP0_MAXPACK : SetupLen;
     9ac:	010ada93          	srli	s5,s5,0x10
c:\Users\rui\Desktop\iphone_screen\wch\code\hspi_usb3_ping_pong\hspi_usb3_ping_pong\obj/../User/USB30/CH56x_usb30.c:501
            SetupLen -= len;
     9b0:	009a2023          	sw	s1,0(s4)
c:\Users\rui\Desktop\iphone_screen\wch\code\hspi_usb3_ping_pong\hspi_usb3_ping_pong\obj/../User/USB30/CH56x_usb30.c:502
            pDescr += len;
     9b4:	00892023          	sw	s0,0(s2)
c:\Users\rui\Desktop\iphone_screen\wch\code\hspi_usb3_ping_pong\hspi_usb3_ping_pong\obj/../User/USB30/CH56x_usb30.c:506
            break;
    }
    return len;
}
     9b8:	40f2                	lw	ra,28(sp)
     9ba:	4462                	lw	s0,24(sp)
     9bc:	8556                	mv	a0,s5
     9be:	44d2                	lw	s1,20(sp)
     9c0:	4942                	lw	s2,16(sp)
     9c2:	49b2                	lw	s3,12(sp)
     9c4:	4a22                	lw	s4,8(sp)
     9c6:	4a92                	lw	s5,4(sp)
     9c8:	6105                	addi	sp,sp,32
     9ca:	8082                	ret

000009cc <EP0_OUT_Callback>:
EP0_OUT_Callback():
c:\Users\rui\Desktop\iphone_screen\wch\code\hspi_usb3_ping_pong\hspi_usb3_ping_pong\obj/../User/USB30/CH56x_usb30.c:512

UINT16 EP0_OUT_Callback( void )
{
    UINT16 len;
    return len;
}
     9cc:	4501                	li	a0,0
     9ce:	8082                	ret

000009d0 <USB30_Setup_Status>:
USB30_Setup_Status():
c:\Users\rui\Desktop\iphone_screen\wch\code\hspi_usb3_ping_pong\hspi_usb3_ping_pong\obj/../User/USB30/CH56x_usb30.c:516

void USB30_Setup_Status( void )
{
    switch( SetupReqCode )
     9d0:	8201c703          	lbu	a4,-2016(gp) # 200000d0 <SetupReqCode>
     9d4:	4795                	li	a5,5
     9d6:	00f71563          	bne	a4,a5,9e0 <USB30_Setup_Status+0x10>
c:\Users\rui\Desktop\iphone_screen\wch\code\hspi_usb3_ping_pong\hspi_usb3_ping_pong\obj/../User/USB30/CH56x_usb30.c:519
    {
        case USB_SET_ADDRESS:
            USB30_Device_Setaddress( SetupLen ); // SET ADDRESS
     9da:	81c1a503          	lw	a0,-2020(gp) # 200000cc <SetupLen>
     9de:	b269                	j	368 <USB30_Device_Setaddress>
c:\Users\rui\Desktop\iphone_screen\wch\code\hspi_usb3_ping_pong\hspi_usb3_ping_pong\obj/../User/USB30/CH56x_usb30.c:524
            break;
        case 0x31:
            break;
    }
}
     9e0:	8082                	ret

000009e2 <USBSS_IRQHandler>:
USBSS_IRQHandler():
c:\Users\rui\Desktop\iphone_screen\wch\code\hspi_usb3_ping_pong\hspi_usb3_ping_pong\obj/../User/USB30/CH56x_usb30.c:528

void USBSS_IRQHandler( void ) //USBSS interrupt service
{
    USB30_IRQHandler( );
     9e2:	34a1                	jal	42a <USB30_IRQHandler>
c:\Users\rui\Desktop\iphone_screen\wch\code\hspi_usb3_ping_pong\hspi_usb3_ping_pong\obj/../User/USB30/CH56x_usb30.c:529
}
     9e4:	30200073          	mret

000009e8 <TMR0_IRQHandler>:
TMR0_IRQHandler():
c:\Users\rui\Desktop\iphone_screen\wch\code\hspi_usb3_ping_pong\hspi_usb3_ping_pong\obj/../User/USB30/CH56x_usb30.c:532

void TMR0_IRQHandler( void )
{
     9e8:	1141                	addi	sp,sp,-16
     9ea:	c622                	sw	s0,12(sp)
c:\Users\rui\Desktop\iphone_screen\wch\code\hspi_usb3_ping_pong\hspi_usb3_ping_pong\obj/../User/USB30/CH56x_usb30.c:533
    R8_TMR0_INT_FLAG = RB_TMR_IF_CYC_END;
     9ec:	400027b7          	lui	a5,0x40002
     9f0:	4705                	li	a4,1
     9f2:	00e78323          	sb	a4,6(a5) # 40002006 <buffer0+0x1ffe0e06>
c:\Users\rui\Desktop\iphone_screen\wch\code\hspi_usb3_ping_pong\hspi_usb3_ping_pong\obj/../User/USB30/CH56x_usb30.c:535

    if( Link_Sta == LINK_STA_1 )
     9f6:	81818793          	addi	a5,gp,-2024 # 200000c8 <_edata>
     9fa:	0007c703          	lbu	a4,0(a5)
     9fe:	4685                	li	a3,1
     a00:	02e69463          	bne	a3,a4,a28 <TMR0_IRQHandler+0x40>
c:\Users\rui\Desktop\iphone_screen\wch\code\hspi_usb3_ping_pong\hspi_usb3_ping_pong\obj/../User/USB30/CH56x_usb30.c:538
    {
        Link_Sta = 0;
        PFIC_DisableIRQ(USBSS_IRQn);
     a04:	4551                	li	a0,20
c:\Users\rui\Desktop\iphone_screen\wch\code\hspi_usb3_ping_pong\hspi_usb3_ping_pong\obj/../User/USB30/CH56x_usb30.c:537
        Link_Sta = 0;
     a06:	00078023          	sb	zero,0(a5)
c:\Users\rui\Desktop\iphone_screen\wch\code\hspi_usb3_ping_pong\hspi_usb3_ping_pong\obj/../User/USB30/CH56x_usb30.c:538
        PFIC_DisableIRQ(USBSS_IRQn);
     a0a:	31a1                	jal	652 <PFIC_DisableIRQ>
c:\Users\rui\Desktop\iphone_screen\wch\code\hspi_usb3_ping_pong\hspi_usb3_ping_pong\obj/../User/USB30/CH56x_usb30.c:539
        PFIC_DisableIRQ(LINK_IRQn);
     a0c:	4555                	li	a0,21
     a0e:	3191                	jal	652 <PFIC_DisableIRQ>
c:\Users\rui\Desktop\iphone_screen\wch\code\hspi_usb3_ping_pong\hspi_usb3_ping_pong\obj/../User/USB30/CH56x_usb30.c:540
        USB30D_init(DISABLE);
     a10:	4501                	li	a0,0
     a12:	3161                	jal	69a <USB30D_init>
c:\Users\rui\Desktop\iphone_screen\wch\code\hspi_usb3_ping_pong\hspi_usb3_ping_pong\obj/../User/USB30/CH56x_usb30.c:541
        PRINT("USB3.0 disable\n");
     a14:	00002537          	lui	a0,0x2
     a18:	70050513          	addi	a0,a0,1792 # 2700 <StringProduct+0x28>
     a1c:	24b000ef          	jal	ra,1466 <puts>
c:\Users\rui\Desktop\iphone_screen\wch\code\hspi_usb3_ping_pong\hspi_usb3_ping_pong\obj/../User/USB30/CH56x_usb30.c:559
    }
    Link_Sta = LINK_STA_1;
    R8_TMR0_INTER_EN = 0;
    PFIC_DisableIRQ(TMR0_IRQn);
    R8_TMR0_CTRL_MOD = RB_TMR_ALL_CLEAR;
}
     a20:	4432                	lw	s0,12(sp)
     a22:	0141                	addi	sp,sp,16
     a24:	30200073          	mret
     a28:	81818413          	addi	s0,gp,-2024 # 200000c8 <_edata>
c:\Users\rui\Desktop\iphone_screen\wch\code\hspi_usb3_ping_pong\hspi_usb3_ping_pong\obj/../User/USB30/CH56x_usb30.c:544
    if( Link_Sta != LINK_STA_3 )
     a2c:	00044783          	lbu	a5,0(s0)
     a30:	4711                	li	a4,4
     a32:	02f70863          	beq	a4,a5,a62 <TMR0_IRQHandler+0x7a>
c:\Users\rui\Desktop\iphone_screen\wch\code\hspi_usb3_ping_pong\hspi_usb3_ping_pong\obj/../User/USB30/CH56x_usb30.c:546
        PFIC_DisableIRQ(USBSS_IRQn);
     a36:	4551                	li	a0,20
     a38:	3929                	jal	652 <PFIC_DisableIRQ>
c:\Users\rui\Desktop\iphone_screen\wch\code\hspi_usb3_ping_pong\hspi_usb3_ping_pong\obj/../User/USB30/CH56x_usb30.c:547
        PFIC_DisableIRQ(LINK_IRQn);
     a3a:	4555                	li	a0,21
     a3c:	3919                	jal	652 <PFIC_DisableIRQ>
c:\Users\rui\Desktop\iphone_screen\wch\code\hspi_usb3_ping_pong\hspi_usb3_ping_pong\obj/../User/USB30/CH56x_usb30.c:548
        USB30D_init(DISABLE);
     a3e:	4501                	li	a0,0
     a40:	39a9                	jal	69a <USB30D_init>
c:\Users\rui\Desktop\iphone_screen\wch\code\hspi_usb3_ping_pong\hspi_usb3_ping_pong\obj/../User/USB30/CH56x_usb30.c:550
        R32_USB_CONTROL = 0;
     a42:	400097b7          	lui	a5,0x40009
     a46:	0007a023          	sw	zero,0(a5) # 40009000 <buffer0+0x1ffe7e00>
PFIC_EnableIRQ():
c:/Users/rui/Desktop/iphone_screen/wch/code/hspi_usb3_ping_pong/hspi_usb3_ping_pong/RVMSIS/core_riscv.h:131
    PFIC->IENR[((UINT32)(IRQn) >> 5)] = (1 << ((UINT32)(IRQn) & 0x1F));
     a4a:	02000737          	lui	a4,0x2000
     a4e:	e000e7b7          	lui	a5,0xe000e
TMR0_IRQHandler():
c:\Users\rui\Desktop\iphone_screen\wch\code\hspi_usb3_ping_pong\hspi_usb3_ping_pong\obj/../User/USB30/CH56x_usb30.c:553
        PRINT("Link_Sta != LINK_STA_3 , USB30D_init(DISABLE)");
     a52:	00002537          	lui	a0,0x2
PFIC_EnableIRQ():
c:/Users/rui/Desktop/iphone_screen/wch/code/hspi_usb3_ping_pong/hspi_usb3_ping_pong/RVMSIS/core_riscv.h:131
     a56:	10e7a023          	sw	a4,256(a5) # e000e100 <buffer0+0xbffecf00>
TMR0_IRQHandler():
c:\Users\rui\Desktop\iphone_screen\wch\code\hspi_usb3_ping_pong\hspi_usb3_ping_pong\obj/../User/USB30/CH56x_usb30.c:553
     a5a:	71050513          	addi	a0,a0,1808 # 2710 <StringProduct+0x38>
     a5e:	0eb000ef          	jal	ra,1348 <iprintf>
c:\Users\rui\Desktop\iphone_screen\wch\code\hspi_usb3_ping_pong\hspi_usb3_ping_pong\obj/../User/USB30/CH56x_usb30.c:555
    Link_Sta = LINK_STA_1;
     a62:	4785                	li	a5,1
     a64:	00f40023          	sb	a5,0(s0)
c:\Users\rui\Desktop\iphone_screen\wch\code\hspi_usb3_ping_pong\hspi_usb3_ping_pong\obj/../User/USB30/CH56x_usb30.c:556
    R8_TMR0_INTER_EN = 0;
     a68:	40002437          	lui	s0,0x40002
     a6c:	00040123          	sb	zero,2(s0) # 40002002 <buffer0+0x1ffe0e02>
c:\Users\rui\Desktop\iphone_screen\wch\code\hspi_usb3_ping_pong\hspi_usb3_ping_pong\obj/../User/USB30/CH56x_usb30.c:557
    PFIC_DisableIRQ(TMR0_IRQn);
     a70:	4545                	li	a0,17
     a72:	36c5                	jal	652 <PFIC_DisableIRQ>
c:\Users\rui\Desktop\iphone_screen\wch\code\hspi_usb3_ping_pong\hspi_usb3_ping_pong\obj/../User/USB30/CH56x_usb30.c:558
    R8_TMR0_CTRL_MOD = RB_TMR_ALL_CLEAR;
     a74:	4789                	li	a5,2
     a76:	00f40023          	sb	a5,0(s0)
     a7a:	b75d                	j	a20 <TMR0_IRQHandler+0x38>

00000a7c <LINK_IRQHandler>:
LINK_IRQHandler():
c:\Users\rui\Desktop\iphone_screen\wch\code\hspi_usb3_ping_pong\hspi_usb3_ping_pong\obj/../User/USB30/CH56x_usb30.c:562

void LINK_IRQHandler( void ) //USBSS link interrupt service
{
     a7c:	1141                	addi	sp,sp,-16
     a7e:	c622                	sw	s0,12(sp)
c:\Users\rui\Desktop\iphone_screen\wch\code\hspi_usb3_ping_pong\hspi_usb3_ping_pong\obj/../User/USB30/CH56x_usb30.c:563
    if( USBSS->LINK_INT_FLAG & LINK_Ux_EXIT_FLAG ) // device enter U2
     a80:	40008437          	lui	s0,0x40008
     a84:	445c                	lw	a5,12(s0)
     a86:	01379713          	slli	a4,a5,0x13
     a8a:	00075a63          	bgez	a4,a9e <LINK_IRQHandler+0x22>
c:\Users\rui\Desktop\iphone_screen\wch\code\hspi_usb3_ping_pong\hspi_usb3_ping_pong\obj/../User/USB30/CH56x_usb30.c:565
    {
        USBSS->LINK_CFG = CFG_EQ_EN | TX_SWING | DEEMPH_CFG | TERM_EN;
     a8e:	1c200793          	li	a5,450
     a92:	c01c                	sw	a5,0(s0)
c:\Users\rui\Desktop\iphone_screen\wch\code\hspi_usb3_ping_pong\hspi_usb3_ping_pong\obj/../User/USB30/CH56x_usb30.c:566
        USB30_Switch_Powermode(POWER_MODE_0);
     a94:	4501                	li	a0,0
     a96:	8e9ff0ef          	jal	ra,37e <USB30_Switch_Powermode>
c:\Users\rui\Desktop\iphone_screen\wch\code\hspi_usb3_ping_pong\hspi_usb3_ping_pong\obj/../User/USB30/CH56x_usb30.c:567
        USBSS->LINK_INT_FLAG = LINK_Ux_EXIT_FLAG;
     a9a:	6785                	lui	a5,0x1
     a9c:	c45c                	sw	a5,12(s0)
c:\Users\rui\Desktop\iphone_screen\wch\code\hspi_usb3_ping_pong\hspi_usb3_ping_pong\obj/../User/USB30/CH56x_usb30.c:569
    }
    if( USBSS->LINK_INT_FLAG & LINK_RDY_FLAG ) // POLLING SHAKE DONE
     a9e:	400087b7          	lui	a5,0x40008
     aa2:	47d8                	lw	a4,12(a5)
     aa4:	8b05                	andi	a4,a4,1
     aa6:	c339                	beqz	a4,aec <LINK_IRQHandler+0x70>
c:\Users\rui\Desktop\iphone_screen\wch\code\hspi_usb3_ping_pong\hspi_usb3_ping_pong\obj/../User/USB30/CH56x_usb30.c:571
    {
        USBSS->LINK_INT_FLAG = LINK_RDY_FLAG;
     aa8:	4705                	li	a4,1
     aaa:	c7d8                	sw	a4,12(a5)
c:\Users\rui\Desktop\iphone_screen\wch\code\hspi_usb3_ping_pong\hspi_usb3_ping_pong\obj/../User/USB30/CH56x_usb30.c:572
        if( Tx_Lmp_Port ) // LMP, TX PORT_CAP & RX PORT_CAP
     aac:	82118713          	addi	a4,gp,-2015 # 200000d1 <Tx_Lmp_Port>
     ab0:	00074683          	lbu	a3,0(a4) # 2000000 <_data_lma+0x1ffd7c4>
     ab4:	0ff6f693          	andi	a3,a3,255
     ab8:	ce81                	beqz	a3,ad0 <LINK_IRQHandler+0x54>
c:\Users\rui\Desktop\iphone_screen\wch\code\hspi_usb3_ping_pong\hspi_usb3_ping_pong\obj/../User/USB30/CH56x_usb30.c:574
        {
            USBSS->LMP_TX_DATA0 = LINK_SPEED | PORT_CAP | LMP_HP;
     aba:	28000693          	li	a3,640
     abe:	c7b4                	sw	a3,72(a5)
c:\Users\rui\Desktop\iphone_screen\wch\code\hspi_usb3_ping_pong\hspi_usb3_ping_pong\obj/../User/USB30/CH56x_usb30.c:575
            USBSS->LMP_TX_DATA1 = UP_STREAM | NUM_HP_BUF;
     ac0:	000206b7          	lui	a3,0x20
     ac4:	0691                	addi	a3,a3,4
     ac6:	c7f4                	sw	a3,76(a5)
c:\Users\rui\Desktop\iphone_screen\wch\code\hspi_usb3_ping_pong\hspi_usb3_ping_pong\obj/../User/USB30/CH56x_usb30.c:576
            USBSS->LMP_TX_DATA2 = 0x0;
     ac8:	0407a823          	sw	zero,80(a5) # 40008050 <buffer0+0x1ffe6e50>
c:\Users\rui\Desktop\iphone_screen\wch\code\hspi_usb3_ping_pong\hspi_usb3_ping_pong\obj/../User/USB30/CH56x_usb30.c:577
            Tx_Lmp_Port = 0;
     acc:	00070023          	sb	zero,0(a4)
c:\Users\rui\Desktop\iphone_screen\wch\code\hspi_usb3_ping_pong\hspi_usb3_ping_pong\obj/../User/USB30/CH56x_usb30.c:580
        }
        /*Successful USB3.0 communication*/
        Link_Sta = LINK_STA_3;
     ad0:	4711                	li	a4,4
c:\Users\rui\Desktop\iphone_screen\wch\code\hspi_usb3_ping_pong\hspi_usb3_ping_pong\obj/../User/USB30/CH56x_usb30.c:581
        PFIC_DisableIRQ(TMR0_IRQn);
     ad2:	4545                	li	a0,17
c:\Users\rui\Desktop\iphone_screen\wch\code\hspi_usb3_ping_pong\hspi_usb3_ping_pong\obj/../User/USB30/CH56x_usb30.c:580
        Link_Sta = LINK_STA_3;
     ad4:	80e18c23          	sb	a4,-2024(gp) # 200000c8 <_edata>
c:\Users\rui\Desktop\iphone_screen\wch\code\hspi_usb3_ping_pong\hspi_usb3_ping_pong\obj/../User/USB30/CH56x_usb30.c:581
        PFIC_DisableIRQ(TMR0_IRQn);
     ad8:	3ead                	jal	652 <PFIC_DisableIRQ>
c:\Users\rui\Desktop\iphone_screen\wch\code\hspi_usb3_ping_pong\hspi_usb3_ping_pong\obj/../User/USB30/CH56x_usb30.c:582
        R8_TMR0_CTRL_MOD = RB_TMR_ALL_CLEAR;
     ada:	400027b7          	lui	a5,0x40002
     ade:	4709                	li	a4,2
     ae0:	00e78023          	sb	a4,0(a5) # 40002000 <buffer0+0x1ffe0e00>
c:\Users\rui\Desktop\iphone_screen\wch\code\hspi_usb3_ping_pong\hspi_usb3_ping_pong\obj/../User/USB30/CH56x_usb30.c:583
        R8_TMR0_INTER_EN = 0;
     ae4:	00078123          	sb	zero,2(a5)
c:\Users\rui\Desktop\iphone_screen\wch\code\hspi_usb3_ping_pong\hspi_usb3_ping_pong\obj/../User/USB30/CH56x_usb30.c:584
        PFIC_DisableIRQ(USBHS_IRQn);
     ae8:	4565                	li	a0,25
     aea:	36a5                	jal	652 <PFIC_DisableIRQ>
c:\Users\rui\Desktop\iphone_screen\wch\code\hspi_usb3_ping_pong\hspi_usb3_ping_pong\obj/../User/USB30/CH56x_usb30.c:588
        // USB20_Device_Init(DISABLE);
    }

    if( USBSS->LINK_INT_FLAG & LINK_INACT_FLAG )
     aec:	40008437          	lui	s0,0x40008
     af0:	445c                	lw	a5,12(s0)
     af2:	8b91                	andi	a5,a5,4
     af4:	c3b1                	beqz	a5,b38 <LINK_IRQHandler+0xbc>
c:\Users\rui\Desktop\iphone_screen\wch\code\hspi_usb3_ping_pong\hspi_usb3_ping_pong\obj/../User/USB30/CH56x_usb30.c:590
    {
        Link_Sta = 0;
     af6:	80018c23          	sb	zero,-2024(gp) # 200000c8 <_edata>
PFIC_EnableIRQ():
c:/Users/rui/Desktop/iphone_screen/wch/code/hspi_usb3_ping_pong/hspi_usb3_ping_pong/RVMSIS/core_riscv.h:131
     afa:	00100737          	lui	a4,0x100
     afe:	e000e7b7          	lui	a5,0xe000e
     b02:	10e7a023          	sw	a4,256(a5) # e000e100 <buffer0+0xbffecf00>
     b06:	00200737          	lui	a4,0x200
     b0a:	10e7a023          	sw	a4,256(a5)
     b0e:	00020737          	lui	a4,0x20
     b12:	10e7a023          	sw	a4,256(a5)
LINK_IRQHandler():
c:\Users\rui\Desktop\iphone_screen\wch\code\hspi_usb3_ping_pong\hspi_usb3_ping_pong\obj/../User/USB30/CH56x_usb30.c:595
        PFIC_EnableIRQ(USBSS_IRQn);
        PFIC_EnableIRQ(LINK_IRQn);
        PFIC_EnableIRQ(TMR0_IRQn);
        R8_TMR0_INTER_EN = RB_TMR_IE_CYC_END;
        TMR0_TimerInit( 67000000 );
     b16:	03fe5537          	lui	a0,0x3fe5
c:\Users\rui\Desktop\iphone_screen\wch\code\hspi_usb3_ping_pong\hspi_usb3_ping_pong\obj/../User/USB30/CH56x_usb30.c:594
        R8_TMR0_INTER_EN = RB_TMR_IE_CYC_END;
     b1a:	400027b7          	lui	a5,0x40002
     b1e:	4705                	li	a4,1
     b20:	00e78123          	sb	a4,2(a5) # 40002002 <buffer0+0x1ffe0e02>
c:\Users\rui\Desktop\iphone_screen\wch\code\hspi_usb3_ping_pong\hspi_usb3_ping_pong\obj/../User/USB30/CH56x_usb30.c:595
        TMR0_TimerInit( 67000000 );
     b24:	6c050513          	addi	a0,a0,1728 # 3fe56c0 <_data_lma+0x3fe2e84>
     b28:	756000ef          	jal	ra,127e <TMR0_TimerInit>
USB30D_init():
c:\Users\rui\Desktop\iphone_screen\wch\code\hspi_usb3_ping_pong\hspi_usb3_ping_pong\obj/../User/USB30/CH56x_usb30.c:304
    if( sta )
     b2c:	3e3d                	jal	66a <USB30D_init.part.0>
LINK_IRQHandler():
c:\Users\rui\Desktop\iphone_screen\wch\code\hspi_usb3_ping_pong\hspi_usb3_ping_pong\obj/../User/USB30/CH56x_usb30.c:597
        USB30D_init(ENABLE);
        USBSS->LINK_INT_FLAG = LINK_INACT_FLAG;
     b2e:	4791                	li	a5,4
     b30:	c45c                	sw	a5,12(s0)
c:\Users\rui\Desktop\iphone_screen\wch\code\hspi_usb3_ping_pong\hspi_usb3_ping_pong\obj/../User/USB30/CH56x_usb30.c:598
        USB30_Switch_Powermode(POWER_MODE_2);
     b32:	4509                	li	a0,2
     b34:	84bff0ef          	jal	ra,37e <USB30_Switch_Powermode>
c:\Users\rui\Desktop\iphone_screen\wch\code\hspi_usb3_ping_pong\hspi_usb3_ping_pong\obj/../User/USB30/CH56x_usb30.c:600
    }
    if( USBSS->LINK_INT_FLAG & LINK_DISABLE_FLAG ) // GO DISABLED
     b38:	40008737          	lui	a4,0x40008
     b3c:	475c                	lw	a5,12(a4)
     b3e:	8ba1                	andi	a5,a5,8
     b40:	cf9d                	beqz	a5,b7e <LINK_IRQHandler+0x102>
c:\Users\rui\Desktop\iphone_screen\wch\code\hspi_usb3_ping_pong\hspi_usb3_ping_pong\obj/../User/USB30/CH56x_usb30.c:602
    {
        USBSS->LINK_INT_FLAG = LINK_DISABLE_FLAG;
     b42:	47a1                	li	a5,8
     b44:	c75c                	sw	a5,12(a4)
c:\Users\rui\Desktop\iphone_screen\wch\code\hspi_usb3_ping_pong\hspi_usb3_ping_pong\obj/../User/USB30/CH56x_usb30.c:604
        Link_Sta = LINK_STA_1;
        USB30D_init(DISABLE);
     b46:	4501                	li	a0,0
c:\Users\rui\Desktop\iphone_screen\wch\code\hspi_usb3_ping_pong\hspi_usb3_ping_pong\obj/../User/USB30/CH56x_usb30.c:603
        Link_Sta = LINK_STA_1;
     b48:	4705                	li	a4,1
     b4a:	80e18c23          	sb	a4,-2024(gp) # 200000c8 <_edata>
c:\Users\rui\Desktop\iphone_screen\wch\code\hspi_usb3_ping_pong\hspi_usb3_ping_pong\obj/../User/USB30/CH56x_usb30.c:604
        USB30D_init(DISABLE);
     b4e:	36b1                	jal	69a <USB30D_init>
c:\Users\rui\Desktop\iphone_screen\wch\code\hspi_usb3_ping_pong\hspi_usb3_ping_pong\obj/../User/USB30/CH56x_usb30.c:605
        PFIC_DisableIRQ(USBSS_IRQn);
     b50:	4551                	li	a0,20
     b52:	3601                	jal	652 <PFIC_DisableIRQ>
c:\Users\rui\Desktop\iphone_screen\wch\code\hspi_usb3_ping_pong\hspi_usb3_ping_pong\obj/../User/USB30/CH56x_usb30.c:606
        R8_TMR0_CTRL_MOD = RB_TMR_ALL_CLEAR;
     b54:	400027b7          	lui	a5,0x40002
     b58:	4709                	li	a4,2
     b5a:	00e78023          	sb	a4,0(a5) # 40002000 <buffer0+0x1ffe0e00>
c:\Users\rui\Desktop\iphone_screen\wch\code\hspi_usb3_ping_pong\hspi_usb3_ping_pong\obj/../User/USB30/CH56x_usb30.c:607
        R8_TMR0_INTER_EN = 0;
     b5e:	00078123          	sb	zero,2(a5)
c:\Users\rui\Desktop\iphone_screen\wch\code\hspi_usb3_ping_pong\hspi_usb3_ping_pong\obj/../User/USB30/CH56x_usb30.c:608
        PFIC_DisableIRQ(TMR0_IRQn);
     b62:	4545                	li	a0,17
     b64:	34fd                	jal	652 <PFIC_DisableIRQ>
PFIC_EnableIRQ():
c:/Users/rui/Desktop/iphone_screen/wch/code/hspi_usb3_ping_pong/hspi_usb3_ping_pong/RVMSIS/core_riscv.h:131
     b66:	e000e7b7          	lui	a5,0xe000e
     b6a:	02000737          	lui	a4,0x2000
LINK_IRQHandler():
c:\Users\rui\Desktop\iphone_screen\wch\code\hspi_usb3_ping_pong\hspi_usb3_ping_pong\obj/../User/USB30/CH56x_usb30.c:611
        PFIC_EnableIRQ(USBHS_IRQn);
        // USB20_Device_Init(ENABLE);
        PRINT("USBSS->LINK_INT_FLAG & LINK_DISABLE_FLAG , USB30D_init(DISABLE)");
     b6e:	00002537          	lui	a0,0x2
PFIC_EnableIRQ():
c:/Users/rui/Desktop/iphone_screen/wch/code/hspi_usb3_ping_pong/hspi_usb3_ping_pong/RVMSIS/core_riscv.h:131
     b72:	10e7a023          	sw	a4,256(a5) # e000e100 <buffer0+0xbffecf00>
LINK_IRQHandler():
c:\Users\rui\Desktop\iphone_screen\wch\code\hspi_usb3_ping_pong\hspi_usb3_ping_pong\obj/../User/USB30/CH56x_usb30.c:611
     b76:	5b450513          	addi	a0,a0,1460 # 25b4 <BOSDescriptor+0x20>
     b7a:	7ce000ef          	jal	ra,1348 <iprintf>
c:\Users\rui\Desktop\iphone_screen\wch\code\hspi_usb3_ping_pong\hspi_usb3_ping_pong\obj/../User/USB30/CH56x_usb30.c:613
    }
    if( USBSS->LINK_INT_FLAG & LINK_RX_DET_FLAG )
     b7e:	400087b7          	lui	a5,0x40008
     b82:	47d8                	lw	a4,12(a5)
     b84:	00b71693          	slli	a3,a4,0xb
     b88:	0006d863          	bgez	a3,b98 <LINK_IRQHandler+0x11c>
c:\Users\rui\Desktop\iphone_screen\wch\code\hspi_usb3_ping_pong\hspi_usb3_ping_pong\obj/../User/USB30/CH56x_usb30.c:615
    {
        USBSS->LINK_INT_FLAG = LINK_RX_DET_FLAG;
     b8c:	00100737          	lui	a4,0x100
     b90:	c7d8                	sw	a4,12(a5)
c:\Users\rui\Desktop\iphone_screen\wch\code\hspi_usb3_ping_pong\hspi_usb3_ping_pong\obj/../User/USB30/CH56x_usb30.c:616
        USB30_Switch_Powermode(POWER_MODE_2);
     b92:	4509                	li	a0,2
     b94:	feaff0ef          	jal	ra,37e <USB30_Switch_Powermode>
c:\Users\rui\Desktop\iphone_screen\wch\code\hspi_usb3_ping_pong\hspi_usb3_ping_pong\obj/../User/USB30/CH56x_usb30.c:618
    }
    if( USBSS->LINK_INT_FLAG & TERM_PRESENT_FLAG ) // term present , begin POLLING
     b98:	40008437          	lui	s0,0x40008
     b9c:	445c                	lw	a5,12(s0)
     b9e:	4007f793          	andi	a5,a5,1024
     ba2:	cf99                	beqz	a5,bc0 <LINK_IRQHandler+0x144>
c:\Users\rui\Desktop\iphone_screen\wch\code\hspi_usb3_ping_pong\hspi_usb3_ping_pong\obj/../User/USB30/CH56x_usb30.c:620
    {
        USBSS->LINK_INT_FLAG = TERM_PRESENT_FLAG;
     ba4:	40000793          	li	a5,1024
     ba8:	c45c                	sw	a5,12(s0)
c:\Users\rui\Desktop\iphone_screen\wch\code\hspi_usb3_ping_pong\hspi_usb3_ping_pong\obj/../User/USB30/CH56x_usb30.c:621
        if( USBSS->LINK_STATUS & LINK_PRESENT )
     baa:	481c                	lw	a5,16(s0)
     bac:	8b85                	andi	a5,a5,1
     bae:	0e078e63          	beqz	a5,caa <LINK_IRQHandler+0x22e>
c:\Users\rui\Desktop\iphone_screen\wch\code\hspi_usb3_ping_pong\hspi_usb3_ping_pong\obj/../User/USB30/CH56x_usb30.c:623
        {
            USB30_Switch_Powermode(POWER_MODE_2);
     bb2:	4509                	li	a0,2
     bb4:	fcaff0ef          	jal	ra,37e <USB30_Switch_Powermode>
c:\Users\rui\Desktop\iphone_screen\wch\code\hspi_usb3_ping_pong\hspi_usb3_ping_pong\obj/../User/USB30/CH56x_usb30.c:624
            USBSS->LINK_CTRL |= POLLING_EN;
     bb8:	405c                	lw	a5,4(s0)
     bba:	6705                	lui	a4,0x1
     bbc:	8fd9                	or	a5,a5,a4
     bbe:	c05c                	sw	a5,4(s0)
c:\Users\rui\Desktop\iphone_screen\wch\code\hspi_usb3_ping_pong\hspi_usb3_ping_pong\obj/../User/USB30/CH56x_usb30.c:631
        else
        {
            USBSS->LINK_INT_CTRL = 0;
        }
    }
    if( USBSS->LINK_INT_FLAG & LINK_TXEQ_FLAG ) // POLLING SHAKE DONE
     bc0:	400086b7          	lui	a3,0x40008
     bc4:	46d8                	lw	a4,12(a3)
     bc6:	6785                	lui	a5,0x1
     bc8:	80078793          	addi	a5,a5,-2048 # 800 <__stack_size>
     bcc:	8f7d                	and	a4,a4,a5
     bce:	cb01                	beqz	a4,bde <LINK_IRQHandler+0x162>
c:\Users\rui\Desktop\iphone_screen\wch\code\hspi_usb3_ping_pong\hspi_usb3_ping_pong\obj/../User/USB30/CH56x_usb30.c:633
    {
        Tx_Lmp_Port = 1;
     bd0:	4605                	li	a2,1
     bd2:	82c180a3          	sb	a2,-2015(gp) # 200000d1 <Tx_Lmp_Port>
c:\Users\rui\Desktop\iphone_screen\wch\code\hspi_usb3_ping_pong\hspi_usb3_ping_pong\obj/../User/USB30/CH56x_usb30.c:634
        USBSS->LINK_INT_FLAG = LINK_TXEQ_FLAG;
     bd6:	c6dc                	sw	a5,12(a3)
c:\Users\rui\Desktop\iphone_screen\wch\code\hspi_usb3_ping_pong\hspi_usb3_ping_pong\obj/../User/USB30/CH56x_usb30.c:635
        USB30_Switch_Powermode(POWER_MODE_0);
     bd8:	4501                	li	a0,0
     bda:	fa4ff0ef          	jal	ra,37e <USB30_Switch_Powermode>
c:\Users\rui\Desktop\iphone_screen\wch\code\hspi_usb3_ping_pong\hspi_usb3_ping_pong\obj/../User/USB30/CH56x_usb30.c:637
    }
    if( USBSS->LINK_INT_FLAG & WARM_RESET_FLAG )
     bde:	40008437          	lui	s0,0x40008
     be2:	445c                	lw	a5,12(s0)
     be4:	01279713          	slli	a4,a5,0x12
     be8:	02075763          	bgez	a4,c16 <LINK_IRQHandler+0x19a>
c:\Users\rui\Desktop\iphone_screen\wch\code\hspi_usb3_ping_pong\hspi_usb3_ping_pong\obj/../User/USB30/CH56x_usb30.c:639
    {
        USBSS->LINK_INT_FLAG = WARM_RESET_FLAG;
     bec:	6789                	lui	a5,0x2
     bee:	c45c                	sw	a5,12(s0)
c:\Users\rui\Desktop\iphone_screen\wch\code\hspi_usb3_ping_pong\hspi_usb3_ping_pong\obj/../User/USB30/CH56x_usb30.c:640
        USB30_Switch_Powermode(POWER_MODE_2);
     bf0:	4509                	li	a0,2
     bf2:	f8cff0ef          	jal	ra,37e <USB30_Switch_Powermode>
c:\Users\rui\Desktop\iphone_screen\wch\code\hspi_usb3_ping_pong\hspi_usb3_ping_pong\obj/../User/USB30/CH56x_usb30.c:641
        USBSS->LINK_CTRL |= TX_WARM_RESET;
     bf6:	405c                	lw	a5,4(s0)
     bf8:	1007e793          	ori	a5,a5,256
     bfc:	c05c                	sw	a5,4(s0)
c:\Users\rui\Desktop\iphone_screen\wch\code\hspi_usb3_ping_pong\hspi_usb3_ping_pong\obj/../User/USB30/CH56x_usb30.c:642
        while(USBSS->LINK_STATUS & RX_WARM_RESET);
     bfe:	400087b7          	lui	a5,0x40008
c:\Users\rui\Desktop\iphone_screen\wch\code\hspi_usb3_ping_pong\hspi_usb3_ping_pong\obj/../User/USB30/CH56x_usb30.c:642 (discriminator 1)
     c02:	4b98                	lw	a4,16(a5)
     c04:	8b09                	andi	a4,a4,2
     c06:	ff75                	bnez	a4,c02 <LINK_IRQHandler+0x186>
c:\Users\rui\Desktop\iphone_screen\wch\code\hspi_usb3_ping_pong\hspi_usb3_ping_pong\obj/../User/USB30/CH56x_usb30.c:643
        USBSS->LINK_CTRL &= ~TX_WARM_RESET;
     c08:	43d8                	lw	a4,4(a5)
c:\Users\rui\Desktop\iphone_screen\wch\code\hspi_usb3_ping_pong\hspi_usb3_ping_pong\obj/../User/USB30/CH56x_usb30.c:644
        USB30_Device_Setaddress(0);
     c0a:	4501                	li	a0,0
c:\Users\rui\Desktop\iphone_screen\wch\code\hspi_usb3_ping_pong\hspi_usb3_ping_pong\obj/../User/USB30/CH56x_usb30.c:643
        USBSS->LINK_CTRL &= ~TX_WARM_RESET;
     c0c:	eff77713          	andi	a4,a4,-257
     c10:	c3d8                	sw	a4,4(a5)
c:\Users\rui\Desktop\iphone_screen\wch\code\hspi_usb3_ping_pong\hspi_usb3_ping_pong\obj/../User/USB30/CH56x_usb30.c:644
        USB30_Device_Setaddress(0);
     c12:	f56ff0ef          	jal	ra,368 <USB30_Device_Setaddress>
c:\Users\rui\Desktop\iphone_screen\wch\code\hspi_usb3_ping_pong\hspi_usb3_ping_pong\obj/../User/USB30/CH56x_usb30.c:647

    }
    if( USBSS->LINK_INT_FLAG & HOT_RESET_FLAG ) //The host may send hot reset,Note the configuration of the endpoint
     c16:	40008437          	lui	s0,0x40008
     c1a:	445c                	lw	a5,12(s0)
     c1c:	01079713          	slli	a4,a5,0x10
     c20:	02075f63          	bgez	a4,c5e <LINK_IRQHandler+0x1e2>
c:\Users\rui\Desktop\iphone_screen\wch\code\hspi_usb3_ping_pong\hspi_usb3_ping_pong\obj/../User/USB30/CH56x_usb30.c:649
    {
        USBSS->USB_CONTROL |= 1 << 31;
     c24:	501c                	lw	a5,32(s0)
     c26:	80000737          	lui	a4,0x80000
c:\Users\rui\Desktop\iphone_screen\wch\code\hspi_usb3_ping_pong\hspi_usb3_ping_pong\obj/../User/USB30/CH56x_usb30.c:652
        USBSS->LINK_INT_FLAG = HOT_RESET_FLAG; // HOT RESET begin
        USBSS->UEP0_TX_CTRL = 0;
        USB30_IN_Set(ENDP_1, DISABLE, NRDY, 0, 0);
     c2a:	4681                	li	a3,0
c:\Users\rui\Desktop\iphone_screen\wch\code\hspi_usb3_ping_pong\hspi_usb3_ping_pong\obj/../User/USB30/CH56x_usb30.c:649
        USBSS->USB_CONTROL |= 1 << 31;
     c2c:	8fd9                	or	a5,a5,a4
     c2e:	d01c                	sw	a5,32(s0)
c:\Users\rui\Desktop\iphone_screen\wch\code\hspi_usb3_ping_pong\hspi_usb3_ping_pong\obj/../User/USB30/CH56x_usb30.c:650
        USBSS->LINK_INT_FLAG = HOT_RESET_FLAG; // HOT RESET begin
     c30:	67a1                	lui	a5,0x8
     c32:	c45c                	sw	a5,12(s0)
c:\Users\rui\Desktop\iphone_screen\wch\code\hspi_usb3_ping_pong\hspi_usb3_ping_pong\obj/../User/USB30/CH56x_usb30.c:652
        USB30_IN_Set(ENDP_1, DISABLE, NRDY, 0, 0);
     c34:	4701                	li	a4,0
     c36:	4601                	li	a2,0
     c38:	4581                	li	a1,0
     c3a:	4505                	li	a0,1
c:\Users\rui\Desktop\iphone_screen\wch\code\hspi_usb3_ping_pong\hspi_usb3_ping_pong\obj/../User/USB30/CH56x_usb30.c:651
        USBSS->UEP0_TX_CTRL = 0;
     c3c:	06042e23          	sw	zero,124(s0) # 4000807c <buffer0+0x1ffe6e7c>
c:\Users\rui\Desktop\iphone_screen\wch\code\hspi_usb3_ping_pong\hspi_usb3_ping_pong\obj/../User/USB30/CH56x_usb30.c:652
        USB30_IN_Set(ENDP_1, DISABLE, NRDY, 0, 0);
     c40:	e46ff0ef          	jal	ra,286 <USB30_IN_Set>
c:\Users\rui\Desktop\iphone_screen\wch\code\hspi_usb3_ping_pong\hspi_usb3_ping_pong\obj/../User/USB30/CH56x_usb30.c:653
        USB30_OUT_Set(ENDP_1, NRDY, 0);
     c44:	4601                	li	a2,0
     c46:	4581                	li	a1,0
     c48:	4505                	li	a0,1
     c4a:	db2ff0ef          	jal	ra,1fc <USB30_OUT_Set>
c:\Users\rui\Desktop\iphone_screen\wch\code\hspi_usb3_ping_pong\hspi_usb3_ping_pong\obj/../User/USB30/CH56x_usb30.c:654
        USB30_Device_Setaddress(0);
     c4e:	4501                	li	a0,0
     c50:	f18ff0ef          	jal	ra,368 <USB30_Device_Setaddress>
c:\Users\rui\Desktop\iphone_screen\wch\code\hspi_usb3_ping_pong\hspi_usb3_ping_pong\obj/../User/USB30/CH56x_usb30.c:655
        USBSS->LINK_CTRL &= ~TX_HOT_RESET;     // HOT RESET end
     c54:	405c                	lw	a5,4(s0)
     c56:	7741                	lui	a4,0xffff0
     c58:	177d                	addi	a4,a4,-1
     c5a:	8ff9                	and	a5,a5,a4
     c5c:	c05c                	sw	a5,4(s0)
c:\Users\rui\Desktop\iphone_screen\wch\code\hspi_usb3_ping_pong\hspi_usb3_ping_pong\obj/../User/USB30/CH56x_usb30.c:657
    }
    if( USBSS->LINK_INT_FLAG & LINK_GO_U1_FLAG ) // device enter U1
     c5e:	40008437          	lui	s0,0x40008
     c62:	445c                	lw	a5,12(s0)
     c64:	0407f793          	andi	a5,a5,64
     c68:	c799                	beqz	a5,c76 <LINK_IRQHandler+0x1fa>
c:\Users\rui\Desktop\iphone_screen\wch\code\hspi_usb3_ping_pong\hspi_usb3_ping_pong\obj/../User/USB30/CH56x_usb30.c:659
    {
        USB30_Switch_Powermode(POWER_MODE_1);
     c6a:	4505                	li	a0,1
     c6c:	f12ff0ef          	jal	ra,37e <USB30_Switch_Powermode>
c:\Users\rui\Desktop\iphone_screen\wch\code\hspi_usb3_ping_pong\hspi_usb3_ping_pong\obj/../User/USB30/CH56x_usb30.c:660
        USBSS->LINK_INT_FLAG = LINK_GO_U1_FLAG;
     c70:	04000793          	li	a5,64
     c74:	c45c                	sw	a5,12(s0)
c:\Users\rui\Desktop\iphone_screen\wch\code\hspi_usb3_ping_pong\hspi_usb3_ping_pong\obj/../User/USB30/CH56x_usb30.c:662
    }
    if( USBSS->LINK_INT_FLAG & LINK_GO_U2_FLAG ) // device enter U2
     c76:	40008437          	lui	s0,0x40008
     c7a:	445c                	lw	a5,12(s0)
     c7c:	0207f793          	andi	a5,a5,32
     c80:	c799                	beqz	a5,c8e <LINK_IRQHandler+0x212>
c:\Users\rui\Desktop\iphone_screen\wch\code\hspi_usb3_ping_pong\hspi_usb3_ping_pong\obj/../User/USB30/CH56x_usb30.c:664
    {
        USB30_Switch_Powermode(POWER_MODE_2);
     c82:	4509                	li	a0,2
     c84:	efaff0ef          	jal	ra,37e <USB30_Switch_Powermode>
c:\Users\rui\Desktop\iphone_screen\wch\code\hspi_usb3_ping_pong\hspi_usb3_ping_pong\obj/../User/USB30/CH56x_usb30.c:665
        USBSS->LINK_INT_FLAG = LINK_GO_U2_FLAG;
     c88:	02000793          	li	a5,32
     c8c:	c45c                	sw	a5,12(s0)
c:\Users\rui\Desktop\iphone_screen\wch\code\hspi_usb3_ping_pong\hspi_usb3_ping_pong\obj/../User/USB30/CH56x_usb30.c:667
    }
    if( USBSS->LINK_INT_FLAG & LINK_GO_U3_FLAG ) // device enter U2
     c8e:	40008437          	lui	s0,0x40008
     c92:	445c                	lw	a5,12(s0)
     c94:	8bc1                	andi	a5,a5,16
     c96:	c791                	beqz	a5,ca2 <LINK_IRQHandler+0x226>
c:\Users\rui\Desktop\iphone_screen\wch\code\hspi_usb3_ping_pong\hspi_usb3_ping_pong\obj/../User/USB30/CH56x_usb30.c:669
    {
        USB30_Switch_Powermode(POWER_MODE_2);
     c98:	4509                	li	a0,2
     c9a:	ee4ff0ef          	jal	ra,37e <USB30_Switch_Powermode>
c:\Users\rui\Desktop\iphone_screen\wch\code\hspi_usb3_ping_pong\hspi_usb3_ping_pong\obj/../User/USB30/CH56x_usb30.c:670
        USBSS->LINK_INT_FLAG = LINK_GO_U3_FLAG;
     c9e:	47c1                	li	a5,16
     ca0:	c45c                	sw	a5,12(s0)
c:\Users\rui\Desktop\iphone_screen\wch\code\hspi_usb3_ping_pong\hspi_usb3_ping_pong\obj/../User/USB30/CH56x_usb30.c:672
    }
}
     ca2:	4432                	lw	s0,12(sp)
     ca4:	0141                	addi	sp,sp,16
     ca6:	30200073          	mret
c:\Users\rui\Desktop\iphone_screen\wch\code\hspi_usb3_ping_pong\hspi_usb3_ping_pong\obj/../User/USB30/CH56x_usb30.c:628
            USBSS->LINK_INT_CTRL = 0;
     caa:	00042423          	sw	zero,8(s0) # 40008008 <buffer0+0x1ffe6e08>
     cae:	bf09                	j	bc0 <LINK_IRQHandler+0x144>

00000cb0 <EP1_IN_Callback>:
EP1_IN_Callback():
c:\Users\rui\Desktop\iphone_screen\wch\code\hspi_usb3_ping_pong\hspi_usb3_ping_pong\obj/../User/USB30/CH56x_usb30.c:675

void EP1_IN_Callback( void )
{
     cb0:	1141                	addi	sp,sp,-16
c:\Users\rui\Desktop\iphone_screen\wch\code\hspi_usb3_ping_pong\hspi_usb3_ping_pong\obj/../User/USB30/CH56x_usb30.c:686
    // // usb_ep1_upload_done_flag = 1;
    // return;
    
    
    UINT8 nump;
    nump = USB30_IN_Nump(ENDP_1); //nump: Number of remaining packets to be sent
     cb2:	4505                	li	a0,1
c:\Users\rui\Desktop\iphone_screen\wch\code\hspi_usb3_ping_pong\hspi_usb3_ping_pong\obj/../User/USB30/CH56x_usb30.c:675
{
     cb4:	c606                	sw	ra,12(sp)
     cb6:	c422                	sw	s0,8(sp)
c:\Users\rui\Desktop\iphone_screen\wch\code\hspi_usb3_ping_pong\hspi_usb3_ping_pong\obj/../User/USB30/CH56x_usb30.c:686
    nump = USB30_IN_Nump(ENDP_1); //nump: Number of remaining packets to be sent
     cb8:	e36ff0ef          	jal	ra,2ee <USB30_IN_Nump>
c:\Users\rui\Desktop\iphone_screen\wch\code\hspi_usb3_ping_pong\hspi_usb3_ping_pong\obj/../User/USB30/CH56x_usb30.c:687
    if (nump==0){
     cbc:	ed01                	bnez	a0,cd4 <EP1_IN_Callback+0x24>
c:\Users\rui\Desktop\iphone_screen\wch\code\hspi_usb3_ping_pong\hspi_usb3_ping_pong\obj/../User/USB30/CH56x_usb30.c:706
    else{
        // usb_ep1_upload_done_flag = 1;
        USB30_IN_ClearIT(ENDP_1);
        PRINT("tx ERR\n");
    }
}
     cbe:	4422                	lw	s0,8(sp)
     cc0:	40b2                	lw	ra,12(sp)
c:\Users\rui\Desktop\iphone_screen\wch\code\hspi_usb3_ping_pong\hspi_usb3_ping_pong\obj/../User/USB30/CH56x_usb30.c:688
        usb_ep1_upload_done_flag = 1;
     cc2:	200007b7          	lui	a5,0x20000
     cc6:	4705                	li	a4,1
     cc8:	0ae78823          	sb	a4,176(a5) # 200000b0 <usb_ep1_upload_done_flag>
c:\Users\rui\Desktop\iphone_screen\wch\code\hspi_usb3_ping_pong\hspi_usb3_ping_pong\obj/../User/USB30/CH56x_usb30.c:689
        USB30_IN_ClearIT(ENDP_1);
     ccc:	4505                	li	a0,1
c:\Users\rui\Desktop\iphone_screen\wch\code\hspi_usb3_ping_pong\hspi_usb3_ping_pong\obj/../User/USB30/CH56x_usb30.c:706
}
     cce:	0141                	addi	sp,sp,16
c:\Users\rui\Desktop\iphone_screen\wch\code\hspi_usb3_ping_pong\hspi_usb3_ping_pong\obj/../User/USB30/CH56x_usb30.c:689
        USB30_IN_ClearIT(ENDP_1);
     cd0:	df0ff06f          	j	2c0 <USB30_IN_ClearIT>
c:\Users\rui\Desktop\iphone_screen\wch\code\hspi_usb3_ping_pong\hspi_usb3_ping_pong\obj/../User/USB30/CH56x_usb30.c:693
    else if(nump <= 4){
     cd4:	4791                	li	a5,4
     cd6:	842a                	mv	s0,a0
     cd8:	04a7e863          	bltu	a5,a0,d28 <EP1_IN_Callback+0x78>
c:\Users\rui\Desktop\iphone_screen\wch\code\hspi_usb3_ping_pong\hspi_usb3_ping_pong\obj/../User/USB30/CH56x_usb30.c:694
        tx_addr_ptr += (last_send_packet-nump)*1024;
     cdc:	82218713          	addi	a4,gp,-2014 # 200000d2 <last_send_packet>
     ce0:	00074783          	lbu	a5,0(a4) # ffff0000 <buffer0+0xdffcee00>
     ce4:	8481a603          	lw	a2,-1976(gp) # 200000f8 <tx_addr_ptr>
     ce8:	8f89                	sub	a5,a5,a0
     cea:	07aa                	slli	a5,a5,0xa
     cec:	97b2                	add	a5,a5,a2
     cee:	84f1a423          	sw	a5,-1976(gp) # 200000f8 <tx_addr_ptr>
c:\Users\rui\Desktop\iphone_screen\wch\code\hspi_usb3_ping_pong\hspi_usb3_ping_pong\obj/../User/USB30/CH56x_usb30.c:695
        USBSS->UEP1_TX_DMA = tx_addr_ptr;
     cf2:	8481a683          	lw	a3,-1976(gp) # 200000f8 <tx_addr_ptr>
     cf6:	400087b7          	lui	a5,0x40008
     cfa:	08d7a023          	sw	a3,128(a5) # 40008080 <buffer0+0x1ffe6e80>
c:\Users\rui\Desktop\iphone_screen\wch\code\hspi_usb3_ping_pong\hspi_usb3_ping_pong\obj/../User/USB30/CH56x_usb30.c:696
        last_send_packet = nump;
     cfe:	00a70023          	sb	a0,0(a4)
c:\Users\rui\Desktop\iphone_screen\wch\code\hspi_usb3_ping_pong\hspi_usb3_ping_pong\obj/../User/USB30/CH56x_usb30.c:697
        USB30_IN_ClearIT(ENDP_1);
     d02:	4505                	li	a0,1
     d04:	dbcff0ef          	jal	ra,2c0 <USB30_IN_ClearIT>
c:\Users\rui\Desktop\iphone_screen\wch\code\hspi_usb3_ping_pong\hspi_usb3_ping_pong\obj/../User/USB30/CH56x_usb30.c:698
        USB30_IN_Set(ENDP_1, ENABLE, ACK, nump, 1024);
     d08:	86a2                	mv	a3,s0
     d0a:	4585                	li	a1,1
     d0c:	4505                	li	a0,1
     d0e:	40000713          	li	a4,1024
     d12:	4605                	li	a2,1
     d14:	d72ff0ef          	jal	ra,286 <USB30_IN_Set>
c:\Users\rui\Desktop\iphone_screen\wch\code\hspi_usb3_ping_pong\hspi_usb3_ping_pong\obj/../User/USB30/CH56x_usb30.c:699
        USB30_Send_ERDY(ENDP_1 | IN, nump);
     d18:	85a2                	mv	a1,s0
c:\Users\rui\Desktop\iphone_screen\wch\code\hspi_usb3_ping_pong\hspi_usb3_ping_pong\obj/../User/USB30/CH56x_usb30.c:706
}
     d1a:	4422                	lw	s0,8(sp)
     d1c:	40b2                	lw	ra,12(sp)
c:\Users\rui\Desktop\iphone_screen\wch\code\hspi_usb3_ping_pong\hspi_usb3_ping_pong\obj/../User/USB30/CH56x_usb30.c:699
        USB30_Send_ERDY(ENDP_1 | IN, nump);
     d1e:	08100513          	li	a0,129
c:\Users\rui\Desktop\iphone_screen\wch\code\hspi_usb3_ping_pong\hspi_usb3_ping_pong\obj/../User/USB30/CH56x_usb30.c:706
}
     d22:	0141                	addi	sp,sp,16
c:\Users\rui\Desktop\iphone_screen\wch\code\hspi_usb3_ping_pong\hspi_usb3_ping_pong\obj/../User/USB30/CH56x_usb30.c:699
        USB30_Send_ERDY(ENDP_1 | IN, nump);
     d24:	e20ff06f          	j	344 <USB30_Send_ERDY>
c:\Users\rui\Desktop\iphone_screen\wch\code\hspi_usb3_ping_pong\hspi_usb3_ping_pong\obj/../User/USB30/CH56x_usb30.c:703
        USB30_IN_ClearIT(ENDP_1);
     d28:	4505                	li	a0,1
     d2a:	d96ff0ef          	jal	ra,2c0 <USB30_IN_ClearIT>
c:\Users\rui\Desktop\iphone_screen\wch\code\hspi_usb3_ping_pong\hspi_usb3_ping_pong\obj/../User/USB30/CH56x_usb30.c:706
}
     d2e:	4422                	lw	s0,8(sp)
     d30:	40b2                	lw	ra,12(sp)
c:\Users\rui\Desktop\iphone_screen\wch\code\hspi_usb3_ping_pong\hspi_usb3_ping_pong\obj/../User/USB30/CH56x_usb30.c:704
        PRINT("tx ERR\n");
     d32:	00002537          	lui	a0,0x2
     d36:	5ac50513          	addi	a0,a0,1452 # 25ac <BOSDescriptor+0x18>
c:\Users\rui\Desktop\iphone_screen\wch\code\hspi_usb3_ping_pong\hspi_usb3_ping_pong\obj/../User/USB30/CH56x_usb30.c:706
}
     d3a:	0141                	addi	sp,sp,16
c:\Users\rui\Desktop\iphone_screen\wch\code\hspi_usb3_ping_pong\hspi_usb3_ping_pong\obj/../User/USB30/CH56x_usb30.c:704
        PRINT("tx ERR\n");
     d3c:	a72d                	j	1466 <puts>

00000d3e <EP1_OUT_Callback>:
EP1_OUT_Callback():
     d3e:	8082                	ret

00000d40 <EP2_IN_Callback>:
EP2_IN_Callback():
c:\Users\rui\Desktop\iphone_screen\wch\code\hspi_usb3_ping_pong\hspi_usb3_ping_pong\obj/../User/USB30/CH56x_usb30.c:710

void EP1_OUT_Callback( void ){}

void EP2_IN_Callback( void ){}
     d40:	8082                	ret

00000d42 <EP3_IN_Callback>:
EP3_IN_Callback():
     d42:	8082                	ret

00000d44 <EP4_IN_Callback>:
EP4_IN_Callback():
     d44:	8082                	ret

00000d46 <EP5_IN_Callback>:
EP5_IN_Callback():
     d46:	8082                	ret

00000d48 <EP6_IN_Callback>:
EP6_IN_Callback():
     d48:	8082                	ret

00000d4a <EP7_IN_Callback>:
EP7_IN_Callback():
     d4a:	8082                	ret

00000d4c <EP2_OUT_Callback>:
EP2_OUT_Callback():
     d4c:	8082                	ret

00000d4e <EP3_OUT_Callback>:
EP3_OUT_Callback():
     d4e:	8082                	ret

00000d50 <EP4_OUT_Callback>:
EP4_OUT_Callback():
     d50:	8082                	ret

00000d52 <EP5_OUT_Callback>:
EP5_OUT_Callback():
     d52:	8082                	ret

00000d54 <EP6_OUT_Callback>:
EP6_OUT_Callback():
     d54:	8082                	ret

00000d56 <EP7_OUT_Callback>:
EP7_OUT_Callback():
     d56:	8082                	ret

00000d58 <USB30_ITP_Callback>:
USB30_ITP_Callback():
c:\Users\rui\Desktop\iphone_screen\wch\code\hspi_usb3_ping_pong\hspi_usb3_ping_pong\obj/../User/USB30/CH56x_usb30.c:734

void EP6_OUT_Callback( void ){}

void EP7_OUT_Callback( void ){}

void USB30_ITP_Callback( UINT32 ITPCounter ){}
     d58:	8082                	ret

00000d5a <hspi_init>:
hspi_init():
c:\Users\rui\Desktop\iphone_screen\wch\code\hspi_usb3_ping_pong\hspi_usb3_ping_pong\obj/../User/HSPI/hspi.c:12
UINT8V hspi_receive_done = 0;

void hspi_init(){
    // ++++++++++++++++++++++ HSPI GPIO initialization +++++++++++++++++++++
    //TX GPIO PA9 11 21 push-pull output
	R32_PA_DIR |= (1<<9) | (1<<11) | (1<<21);
     d5a:	400017b7          	lui	a5,0x40001
     d5e:	43b8                	lw	a4,64(a5)
     d60:	002016b7          	lui	a3,0x201
     d64:	a0068693          	addi	a3,a3,-1536 # 200a00 <_data_lma+0x1fe1c4>
     d68:	8f55                	or	a4,a4,a3
     d6a:	c3b8                	sw	a4,64(a5)
c:\Users\rui\Desktop\iphone_screen\wch\code\hspi_usb3_ping_pong\hspi_usb3_ping_pong\obj/../User/HSPI/hspi.c:14
	//clk 16mA
	R32_PA_DRV |= (1<<11);
     d6c:	4fb8                	lw	a4,88(a5)
     d6e:	6685                	lui	a3,0x1
     d70:	80068693          	addi	a3,a3,-2048 # 800 <__stack_size>
     d74:	8f55                	or	a4,a4,a3
     d76:	cfb8                	sw	a4,88(a5)
c:\Users\rui\Desktop\iphone_screen\wch\code\hspi_usb3_ping_pong\hspi_usb3_ping_pong\obj/../User/HSPI/hspi.c:16
	//Rx GPIO PA10 push-pull output
	R32_PA_DIR |= (1<<10);
     d78:	43b8                	lw	a4,64(a5)
c:\Users\rui\Desktop\iphone_screen\wch\code\hspi_usb3_ping_pong\hspi_usb3_ping_pong\obj/../User/HSPI/hspi.c:19

	//configure HRTS(PB13,hd31) Push-pull output,16mA
	PIN_HRTS_HIGH( );
     d7a:	008006b7          	lui	a3,0x800
c:\Users\rui\Desktop\iphone_screen\wch\code\hspi_usb3_ping_pong\hspi_usb3_ping_pong\obj/../User/HSPI/hspi.c:16
	R32_PA_DIR |= (1<<10);
     d7e:	40076713          	ori	a4,a4,1024
     d82:	c3b8                	sw	a4,64(a5)
c:\Users\rui\Desktop\iphone_screen\wch\code\hspi_usb3_ping_pong\hspi_usb3_ping_pong\obj/../User/HSPI/hspi.c:19
	PIN_HRTS_HIGH( );
     d84:	57b8                	lw	a4,104(a5)
     d86:	8f55                	or	a4,a4,a3
     d88:	d7b8                	sw	a4,104(a5)
c:\Users\rui\Desktop\iphone_screen\wch\code\hspi_usb3_ping_pong\hspi_usb3_ping_pong\obj/../User/HSPI/hspi.c:20
    R32_PB_DIR |= (  1 << 23  );
     d8a:	53b8                	lw	a4,96(a5)
     d8c:	8f55                	or	a4,a4,a3
     d8e:	d3b8                	sw	a4,96(a5)
c:\Users\rui\Desktop\iphone_screen\wch\code\hspi_usb3_ping_pong\hspi_usb3_ping_pong\obj/../User/HSPI/hspi.c:21
    R32_PB_DRV |= (  1 << 23  );
     d90:	5fb8                	lw	a4,120(a5)
     d92:	8f55                	or	a4,a4,a3
     d94:	dfb8                	sw	a4,120(a5)
c:\Users\rui\Desktop\iphone_screen\wch\code\hspi_usb3_ping_pong\hspi_usb3_ping_pong\obj/../User/HSPI/hspi.c:22
    R32_PB_PU &= ~(  1 << 23  );
     d96:	5bb4                	lw	a3,112(a5)
     d98:	ff800737          	lui	a4,0xff800
     d9c:	177d                	addi	a4,a4,-1
     d9e:	8ef9                	and	a3,a3,a4
     da0:	dbb4                	sw	a3,112(a5)
c:\Users\rui\Desktop\iphone_screen\wch\code\hspi_usb3_ping_pong\hspi_usb3_ping_pong\obj/../User/HSPI/hspi.c:23
    R32_PB_PD &= ~(  1 << 23  );
     da2:	5bf4                	lw	a3,116(a5)
     da4:	8f75                	and	a4,a4,a3
     da6:	dbf8                	sw	a4,116(a5)
c:\Users\rui\Desktop\iphone_screen\wch\code\hspi_usb3_ping_pong\hspi_usb3_ping_pong\obj/../User/HSPI/hspi.c:27

    // ++++++++++++++++++++++ HSPI initialization +++++++++++++++++++++

	R8_HSPI_CFG &= ~(RB_HSPI_HW_ACK); // no ack
     da8:	400067b7          	lui	a5,0x40006
     dac:	0007c703          	lbu	a4,0(a5) # 40006000 <buffer0+0x1ffe4e00>
     db0:	07f77713          	andi	a4,a4,127
     db4:	00e78023          	sb	a4,0(a5)
c:\Users\rui\Desktop\iphone_screen\wch\code\hspi_usb3_ping_pong\hspi_usb3_ping_pong\obj/../User/HSPI/hspi.c:29
	// R8_HSPI_CFG |= RB_HSPI_DAT16_MOD; // 16bit data
	R8_HSPI_CFG |= RB_HSPI_DAT32_MOD; // 32bit data
     db8:	0007c703          	lbu	a4,0(a5)
     dbc:	00876713          	ori	a4,a4,8
     dc0:	00e78023          	sb	a4,0(a5)
c:\Users\rui\Desktop\iphone_screen\wch\code\hspi_usb3_ping_pong\hspi_usb3_ping_pong\obj/../User/HSPI/hspi.c:32
	// R8_HSPI_CFG |= RB_HSPI_RX_TOG_EN;
	
    R8_HSPI_CFG &= ~RB_HSPI_HW_ACK; //ACk mode  0   ( )
     dc4:	0007c703          	lbu	a4,0(a5)
     dc8:	07f77713          	andi	a4,a4,127
     dcc:	00e78023          	sb	a4,0(a5)
c:\Users\rui\Desktop\iphone_screen\wch\code\hspi_usb3_ping_pong\hspi_usb3_ping_pong\obj/../User/HSPI/hspi.c:33
    R8_HSPI_CFG &= ~RB_HSPI_RX_TOG_EN; //Rx ToG En  0
     dd0:	0007c703          	lbu	a4,0(a5)
     dd4:	0bf77713          	andi	a4,a4,191
     dd8:	00e78023          	sb	a4,0(a5)
c:\Users\rui\Desktop\iphone_screen\wch\code\hspi_usb3_ping_pong\hspi_usb3_ping_pong\obj/../User/HSPI/hspi.c:34
    R8_HSPI_CFG &= ~RB_HSPI_TX_TOG_EN; //Tx ToG En  0  ///+++++
     ddc:	0007c703          	lbu	a4,0(a5)
     de0:	0df77713          	andi	a4,a4,223
     de4:	00e78023          	sb	a4,0(a5)
c:\Users\rui\Desktop\iphone_screen\wch\code\hspi_usb3_ping_pong\hspi_usb3_ping_pong\obj/../User/HSPI/hspi.c:36

    R8_HSPI_AUX |= RB_HSPI_REQ_FT; 	//Enable fast DMA request // ?? not in datasheet
     de8:	0037c703          	lbu	a4,3(a5)
     dec:	02076713          	ori	a4,a4,32
     df0:	00e781a3          	sb	a4,3(a5)
c:\Users\rui\Desktop\iphone_screen\wch\code\hspi_usb3_ping_pong\hspi_usb3_ping_pong\obj/../User/HSPI/hspi.c:37
	R8_HSPI_AUX |= (RB_HSPI_TCK_MOD | RB_HSPI_RCK_MOD);  //
     df4:	0037c703          	lbu	a4,3(a5)
     df8:	00376713          	ori	a4,a4,3
     dfc:	00e781a3          	sb	a4,3(a5)
c:\Users\rui\Desktop\iphone_screen\wch\code\hspi_usb3_ping_pong\hspi_usb3_ping_pong\obj/../User/HSPI/hspi.c:40

	// R8_HSPI_INT_EN |= RB_HSPI_IE_T_DONE;  // Tx packet Interupt
	R8_HSPI_INT_EN |= RB_HSPI_IE_R_DONE;  // Rx packet Interupt
     e00:	0027c703          	lbu	a4,2(a5)
     e04:	00276713          	ori	a4,a4,2
     e08:	00e78123          	sb	a4,2(a5)
c:\Users\rui\Desktop\iphone_screen\wch\code\hspi_usb3_ping_pong\hspi_usb3_ping_pong\obj/../User/HSPI/hspi.c:41
	R8_HSPI_INT_EN |= RB_HSPI_IE_FIFO_OV;
     e0c:	0027c703          	lbu	a4,2(a5)
     e10:	00476713          	ori	a4,a4,4
     e14:	00e78123          	sb	a4,2(a5)
c:\Users\rui\Desktop\iphone_screen\wch\code\hspi_usb3_ping_pong\hspi_usb3_ping_pong\obj/../User/HSPI/hspi.c:44

	// fifo write address 
	R32_HSPI_RX_ADDR0 = BUFFER0_BASE_ADDR;
     e18:	20020737          	lui	a4,0x20020
     e1c:	c7d8                	sw	a4,12(a5)
c:\Users\rui\Desktop\iphone_screen\wch\code\hspi_usb3_ping_pong\hspi_usb3_ping_pong\obj/../User/HSPI/hspi.c:45
	R32_HSPI_RX_ADDR1 = BUFFER1_BASE_ADDR;
     e1e:	20021737          	lui	a4,0x20021
     e22:	cb98                	sw	a4,16(a5)
c:\Users\rui\Desktop\iphone_screen\wch\code\hspi_usb3_ping_pong\hspi_usb3_ping_pong\obj/../User/HSPI/hspi.c:50

	// R32_HSPI_RX_ADDR0 = (UINT32)(UINT8*)buffer0;


	R8_HSPI_CTRL &= ~(RB_HSPI_ALL_CLR|RB_HSPI_TRX_RST);  //Clear reset
     e24:	0017c703          	lbu	a4,1(a5)
     e28:	0e777713          	andi	a4,a4,231
     e2c:	00e780a3          	sb	a4,1(a5)
c:\Users\rui\Desktop\iphone_screen\wch\code\hspi_usb3_ping_pong\hspi_usb3_ping_pong\obj/../User/HSPI/hspi.c:51
	R8_HSPI_CTRL |= RB_HSPI_ENABLE | RB_HSPI_DMA_EN;
     e30:	0017c703          	lbu	a4,1(a5)
     e34:	00376713          	ori	a4,a4,3
     e38:	00e780a3          	sb	a4,1(a5)
c:\Users\rui\Desktop\iphone_screen\wch\code\hspi_usb3_ping_pong\hspi_usb3_ping_pong\obj/../User/HSPI/hspi.c:53

	R8_HSPI_INT_FLAG = 0xF;
     e3c:	473d                	li	a4,15
     e3e:	02e78423          	sb	a4,40(a5)
PFIC_EnableIRQ():
c:/Users/rui/Desktop/iphone_screen/wch/code/hspi_usb3_ping_pong/hspi_usb3_ping_pong/RVMSIS/core_riscv.h:131
     e42:	e000e7b7          	lui	a5,0xe000e
     e46:	10000737          	lui	a4,0x10000
     e4a:	10e7a023          	sw	a4,256(a5) # e000e100 <buffer0+0xbffecf00>
hspi_init():
c:\Users\rui\Desktop\iphone_screen\wch\code\hspi_usb3_ping_pong\hspi_usb3_ping_pong\obj/../User/HSPI/hspi.c:56
	PFIC_EnableIRQ(HSPI_IRQn);
	// PIN_HRTS_LOW( );
}
     e4e:	8082                	ret

00000e50 <HSPI_IRQHandler>:
HSPI_IRQHandler():
c:\Users\rui\Desktop\iphone_screen\wch\code\hspi_usb3_ping_pong\hspi_usb3_ping_pong\obj/../User/HSPI/hspi.c:62


void HSPI_IRQHandler(void){
	static UINT32 Rx_Cnt = 0;

 	PIN_HRTS_HIGH();    
     e50:	40001737          	lui	a4,0x40001
     e54:	573c                	lw	a5,104(a4)
     e56:	008006b7          	lui	a3,0x800
     e5a:	8fd5                	or	a5,a5,a3
     e5c:	d73c                	sw	a5,104(a4)
c:\Users\rui\Desktop\iphone_screen\wch\code\hspi_usb3_ping_pong\hspi_usb3_ping_pong\obj/../User/HSPI/hspi.c:65

 	// PIN_HRTS_HIGH();    
	if(R8_HSPI_INT_FLAG & RB_HSPI_IF_R_DONE){  //Single packet received completed
     e5e:	40006737          	lui	a4,0x40006
     e62:	02874783          	lbu	a5,40(a4) # 40006028 <buffer0+0x1ffe4e28>
     e66:	8b89                	andi	a5,a5,2
     e68:	cbb1                	beqz	a5,ebc <HSPI_IRQHandler+0x6c>
c:\Users\rui\Desktop\iphone_screen\wch\code\hspi_usb3_ping_pong\hspi_usb3_ping_pong\obj/../User/HSPI/hspi.c:66
		R8_HSPI_INT_FLAG = RB_HSPI_IF_R_DONE;  //Clear Interrupt
     e6a:	4789                	li	a5,2
     e6c:	02f70423          	sb	a5,40(a4)
c:\Users\rui\Desktop\iphone_screen\wch\code\hspi_usb3_ping_pong\hspi_usb3_ping_pong\obj/../User/HSPI/hspi.c:67
		Rx_Cnt++;
     e70:	82c18793          	addi	a5,gp,-2004 # 200000dc <Rx_Cnt.4026>
     e74:	4394                	lw	a3,0(a5)
     e76:	0685                	addi	a3,a3,1
     e78:	c394                	sw	a3,0(a5)
c:\Users\rui\Desktop\iphone_screen\wch\code\hspi_usb3_ping_pong\hspi_usb3_ping_pong\obj/../User/HSPI/hspi.c:70
		// printf("serid: %d\n"  , (R8_HSPI_RX_SC & RB_HSPI_RX_NUM) );

        if(R8_HSPI_RTX_STATUS & RB_HSPI_CRC_ERR){  //CRC check err
     e7a:	02974783          	lbu	a5,41(a4)
     e7e:	8b89                	andi	a5,a5,2
     e80:	c791                	beqz	a5,e8c <HSPI_IRQHandler+0x3c>
c:\Users\rui\Desktop\iphone_screen\wch\code\hspi_usb3_ping_pong\hspi_usb3_ping_pong\obj/../User/HSPI/hspi.c:72
        	// R8_HSPI_CTRL &= ~RB_HSPI_ENABLE;
        	PRINT("CR err\n");
     e82:	00002537          	lui	a0,0x2
     e86:	74c50513          	addi	a0,a0,1868 # 274c <StringProduct+0x74>
     e8a:	2bf1                	jal	1466 <puts>
c:\Users\rui\Desktop\iphone_screen\wch\code\hspi_usb3_ping_pong\hspi_usb3_ping_pong\obj/../User/HSPI/hspi.c:75
        }

        if(R8_HSPI_RTX_STATUS & RB_HSPI_NUM_MIS){  // serial do not match
     e8c:	400067b7          	lui	a5,0x40006
     e90:	0297c703          	lbu	a4,41(a5) # 40006029 <buffer0+0x1ffe4e29>
     e94:	8b11                	andi	a4,a4,4
     e96:	cf01                	beqz	a4,eae <HSPI_IRQHandler+0x5e>
c:\Users\rui\Desktop\iphone_screen\wch\code\hspi_usb3_ping_pong\hspi_usb3_ping_pong\obj/../User/HSPI/hspi.c:76
			R8_HSPI_RX_SC &= ~RB_HSPI_RX_NUM;
     e98:	02b7c703          	lbu	a4,43(a5)
c:\Users\rui\Desktop\iphone_screen\wch\code\hspi_usb3_ping_pong\hspi_usb3_ping_pong\obj/../User/HSPI/hspi.c:77
        	PRINT("NU err\n");
     e9c:	00002537          	lui	a0,0x2
     ea0:	75450513          	addi	a0,a0,1876 # 2754 <StringProduct+0x7c>
c:\Users\rui\Desktop\iphone_screen\wch\code\hspi_usb3_ping_pong\hspi_usb3_ping_pong\obj/../User/HSPI/hspi.c:76
			R8_HSPI_RX_SC &= ~RB_HSPI_RX_NUM;
     ea4:	0f077713          	andi	a4,a4,240
     ea8:	02e785a3          	sb	a4,43(a5)
c:\Users\rui\Desktop\iphone_screen\wch\code\hspi_usb3_ping_pong\hspi_usb3_ping_pong\obj/../User/HSPI/hspi.c:77
        	PRINT("NU err\n");
     eac:	2b6d                	jal	1466 <puts>
c:\Users\rui\Desktop\iphone_screen\wch\code\hspi_usb3_ping_pong\hspi_usb3_ping_pong\obj/../User/HSPI/hspi.c:80
        }

		if((R8_HSPI_RTX_STATUS & (RB_HSPI_CRC_ERR|RB_HSPI_NUM_MIS))==0){ // data received successfully
     eae:	400067b7          	lui	a5,0x40006
     eb2:	0297c783          	lbu	a5,41(a5) # 40006029 <buffer0+0x1ffe4e29>
c:\Users\rui\Desktop\iphone_screen\wch\code\hspi_usb3_ping_pong\hspi_usb3_ping_pong\obj/../User/HSPI/hspi.c:94
		// if (R32_HSPI_RX_ADDR0 == (UINT32)(UINT8*)buffer0){
		// 	R32_HSPI_RX_ADDR0 = (UINT32)(UINT8*)buffer1;
		// } else {
		// 	R32_HSPI_RX_ADDR0 = (UINT32)(UINT8*)buffer0;
		// }
		hspi_receive_done = 1;
     eb6:	4705                	li	a4,1
     eb8:	82e18823          	sb	a4,-2000(gp) # 200000e0 <hspi_receive_done>
c:\Users\rui\Desktop\iphone_screen\wch\code\hspi_usb3_ping_pong\hspi_usb3_ping_pong\obj/../User/HSPI/hspi.c:97
	}

	if(R8_HSPI_INT_FLAG & RB_HSPI_IF_FIFO_OV){   //FIFO OV
     ebc:	40006737          	lui	a4,0x40006
     ec0:	02874783          	lbu	a5,40(a4) # 40006028 <buffer0+0x1ffe4e28>
     ec4:	8b91                	andi	a5,a5,4
     ec6:	cb89                	beqz	a5,ed8 <HSPI_IRQHandler+0x88>
c:\Users\rui\Desktop\iphone_screen\wch\code\hspi_usb3_ping_pong\hspi_usb3_ping_pong\obj/../User/HSPI/hspi.c:98
		R8_HSPI_INT_FLAG = RB_HSPI_IF_FIFO_OV;  //Clear Interrupt
     ec8:	4791                	li	a5,4
c:\Users\rui\Desktop\iphone_screen\wch\code\hspi_usb3_ping_pong\hspi_usb3_ping_pong\obj/../User/HSPI/hspi.c:99
		PRINT("FIFO OV\r\n");
     eca:	00002537          	lui	a0,0x2
c:\Users\rui\Desktop\iphone_screen\wch\code\hspi_usb3_ping_pong\hspi_usb3_ping_pong\obj/../User/HSPI/hspi.c:98
		R8_HSPI_INT_FLAG = RB_HSPI_IF_FIFO_OV;  //Clear Interrupt
     ece:	02f70423          	sb	a5,40(a4)
c:\Users\rui\Desktop\iphone_screen\wch\code\hspi_usb3_ping_pong\hspi_usb3_ping_pong\obj/../User/HSPI/hspi.c:99
		PRINT("FIFO OV\r\n");
     ed2:	75c50513          	addi	a0,a0,1884 # 275c <StringProduct+0x84>
     ed6:	2b41                	jal	1466 <puts>
c:\Users\rui\Desktop\iphone_screen\wch\code\hspi_usb3_ping_pong\hspi_usb3_ping_pong\obj/../User/HSPI/hspi.c:102
	}
	// PIN_HRTS_LOW();   
}
     ed8:	30200073          	mret

00000edc <DebugInit>:
DebugInit():
c:\Users\rui\Desktop\iphone_screen\wch\code\hspi_usb3_ping_pong\hspi_usb3_ping_pong\obj/../User/Main.c:15
#include "hspi.h"

void DebugInit(UINT32 baudrate){ //uart1
	UINT32 x;
	UINT32 t = 120000000;
	x = 10 * t * 2 / 16 / baudrate;
     edc:	08f0d7b7          	lui	a5,0x8f0d
     ee0:	18078793          	addi	a5,a5,384 # 8f0d180 <_data_lma+0x8f0a944>
     ee4:	02a7d7b3          	divu	a5,a5,a0
c:\Users\rui\Desktop\iphone_screen\wch\code\hspi_usb3_ping_pong\hspi_usb3_ping_pong\obj/../User/Main.c:16
	x = ( x + 5 ) / 10;
     ee8:	4529                	li	a0,10
c:\Users\rui\Desktop\iphone_screen\wch\code\hspi_usb3_ping_pong\hspi_usb3_ping_pong\obj/../User/Main.c:17
	R8_UART1_DIV = 1;
     eea:	40003737          	lui	a4,0x40003
     eee:	4685                	li	a3,1
     ef0:	40d70723          	sb	a3,1038(a4) # 4000340e <buffer0+0x1ffe220e>
c:\Users\rui\Desktop\iphone_screen\wch\code\hspi_usb3_ping_pong\hspi_usb3_ping_pong\obj/../User/Main.c:16
	x = ( x + 5 ) / 10;
     ef4:	0795                	addi	a5,a5,5
     ef6:	02a7d7b3          	divu	a5,a5,a0
c:\Users\rui\Desktop\iphone_screen\wch\code\hspi_usb3_ping_pong\hspi_usb3_ping_pong\obj/../User/Main.c:18
	R16_UART1_DL = x;
     efa:	07c2                	slli	a5,a5,0x10
     efc:	83c1                	srli	a5,a5,0x10
     efe:	40f71623          	sh	a5,1036(a4)
c:\Users\rui\Desktop\iphone_screen\wch\code\hspi_usb3_ping_pong\hspi_usb3_ping_pong\obj/../User/Main.c:19
	R8_UART1_FCR = RB_FCR_FIFO_TRIG | RB_FCR_TX_FIFO_CLR | RB_FCR_RX_FIFO_CLR | RB_FCR_FIFO_EN;
     f02:	fc700793          	li	a5,-57
     f06:	40f70123          	sb	a5,1026(a4)
c:\Users\rui\Desktop\iphone_screen\wch\code\hspi_usb3_ping_pong\hspi_usb3_ping_pong\obj/../User/Main.c:20
	R8_UART1_LCR = RB_LCR_WORD_SZ;
     f0a:	478d                	li	a5,3
     f0c:	40f701a3          	sb	a5,1027(a4)
c:\Users\rui\Desktop\iphone_screen\wch\code\hspi_usb3_ping_pong\hspi_usb3_ping_pong\obj/../User/Main.c:21
	R8_UART1_IER = RB_IER_TXD_EN;
     f10:	04000793          	li	a5,64
     f14:	40f700a3          	sb	a5,1025(a4)
c:\Users\rui\Desktop\iphone_screen\wch\code\hspi_usb3_ping_pong\hspi_usb3_ping_pong\obj/../User/Main.c:22
	R32_PA_SMT |= (1<<8) |(1<<7);
     f18:	400017b7          	lui	a5,0x40001
     f1c:	4ff8                	lw	a4,92(a5)
     f1e:	18076713          	ori	a4,a4,384
     f22:	cff8                	sw	a4,92(a5)
c:\Users\rui\Desktop\iphone_screen\wch\code\hspi_usb3_ping_pong\hspi_usb3_ping_pong\obj/../User/Main.c:23
	R32_PA_DIR |= (1<<8);
     f24:	43b8                	lw	a4,64(a5)
     f26:	10076713          	ori	a4,a4,256
     f2a:	c3b8                	sw	a4,64(a5)
c:\Users\rui\Desktop\iphone_screen\wch\code\hspi_usb3_ping_pong\hspi_usb3_ping_pong\obj/../User/Main.c:24
}
     f2c:	8082                	ret

00000f2e <main>:
main():
c:\Users\rui\Desktop\iphone_screen\wch\code\hspi_usb3_ping_pong\hspi_usb3_ping_pong\obj/../User/Main.c:28

// UINT8V ping_pong_state = 0;

int main( void ){
     f2e:	7179                	addi	sp,sp,-48
     f30:	d422                	sw	s0,40(sp)
c:\Users\rui\Desktop\iphone_screen\wch\code\hspi_usb3_ping_pong\hspi_usb3_ping_pong\obj/../User/Main.c:29
	SystemInit(120000000);
     f32:	07271437          	lui	s0,0x7271
     f36:	e0040513          	addi	a0,s0,-512 # 7270e00 <_data_lma+0x726e5c4>
c:\Users\rui\Desktop\iphone_screen\wch\code\hspi_usb3_ping_pong\hspi_usb3_ping_pong\obj/../User/Main.c:28
int main( void ){
     f3a:	d606                	sw	ra,44(sp)
     f3c:	d226                	sw	s1,36(sp)
     f3e:	d04a                	sw	s2,32(sp)
     f40:	ce4e                	sw	s3,28(sp)
     f42:	cc52                	sw	s4,24(sp)
     f44:	ca56                	sw	s5,20(sp)
     f46:	c85a                	sw	s6,16(sp)
     f48:	c65e                	sw	s7,12(sp)
c:\Users\rui\Desktop\iphone_screen\wch\code\hspi_usb3_ping_pong\hspi_usb3_ping_pong\obj/../User/Main.c:29
	SystemInit(120000000);
     f4a:	2ac5                	jal	113a <SystemInit>
c:\Users\rui\Desktop\iphone_screen\wch\code\hspi_usb3_ping_pong\hspi_usb3_ping_pong\obj/../User/Main.c:30
	Delay_Init(120000000);
     f4c:	e0040513          	addi	a0,s0,-512
     f50:	24d5                	jal	1234 <Delay_Init>
c:\Users\rui\Desktop\iphone_screen\wch\code\hspi_usb3_ping_pong\hspi_usb3_ping_pong\obj/../User/Main.c:31
	DebugInit(1000000);
     f52:	000f4537          	lui	a0,0xf4
     f56:	24050513          	addi	a0,a0,576 # f4240 <_data_lma+0xf1a04>
     f5a:	3749                	jal	edc <DebugInit>
c:\Users\rui\Desktop\iphone_screen\wch\code\hspi_usb3_ping_pong\hspi_usb3_ping_pong\obj/../User/Main.c:32
	PRINT("\n\n\n\n\n\n\n++++++++++++++++\n");
     f5c:	00002537          	lui	a0,0x2
     f60:	76850513          	addi	a0,a0,1896 # 2768 <StringProduct+0x90>
     f64:	2309                	jal	1466 <puts>
c:\Users\rui\Desktop\iphone_screen\wch\code\hspi_usb3_ping_pong\hspi_usb3_ping_pong\obj/../User/Main.c:33
	PRINT("Start @ChipID=%08X\r\n", R8_CHIP_ID );
     f66:	40001937          	lui	s2,0x40001
     f6a:	00194583          	lbu	a1,1(s2) # 40001001 <buffer0+0x1ffdfe01>
     f6e:	00002537          	lui	a0,0x2
     f72:	78050513          	addi	a0,a0,1920 # 2780 <StringProduct+0xa8>
     f76:	2ec9                	jal	1348 <iprintf>
c:\Users\rui\Desktop\iphone_screen\wch\code\hspi_usb3_ping_pong\hspi_usb3_ping_pong\obj/../User/Main.c:34
	PRINT("hello\n");
     f78:	00002537          	lui	a0,0x2
     f7c:	79850513          	addi	a0,a0,1944 # 2798 <StringProduct+0xc0>
     f80:	21dd                	jal	1466 <puts>
c:\Users\rui\Desktop\iphone_screen\wch\code\hspi_usb3_ping_pong\hspi_usb3_ping_pong\obj/../User/Main.c:36

    R32_USB_CONTROL = 0;
     f82:	400097b7          	lui	a5,0x40009
     f86:	0007a023          	sw	zero,0(a5) # 40009000 <buffer0+0x1ffe7e00>
PFIC_EnableIRQ():
c:/Users/rui/Desktop/iphone_screen/wch/code/hspi_usb3_ping_pong/hspi_usb3_ping_pong/RVMSIS/core_riscv.h:131
     f8a:	00100737          	lui	a4,0x100
     f8e:	e000e7b7          	lui	a5,0xe000e
     f92:	10e7a023          	sw	a4,256(a5) # e000e100 <buffer0+0xbffecf00>
     f96:	00200737          	lui	a4,0x200
     f9a:	10e7a023          	sw	a4,256(a5)
     f9e:	00020737          	lui	a4,0x20
     fa2:	10e7a023          	sw	a4,256(a5)
main():
c:\Users\rui\Desktop\iphone_screen\wch\code\hspi_usb3_ping_pong\hspi_usb3_ping_pong\obj/../User/Main.c:42
    PFIC_EnableIRQ(USBSS_IRQn);
    PFIC_EnableIRQ(LINK_IRQn);
	
    PFIC_EnableIRQ(TMR0_IRQn);
	R8_TMR0_INTER_EN = RB_TMR_IE_CYC_END;
    TMR0_TimerInit( 67000000 );
     fa6:	03fe5537          	lui	a0,0x3fe5
c:\Users\rui\Desktop\iphone_screen\wch\code\hspi_usb3_ping_pong\hspi_usb3_ping_pong\obj/../User/Main.c:41
	R8_TMR0_INTER_EN = RB_TMR_IE_CYC_END;
     faa:	400027b7          	lui	a5,0x40002
     fae:	4705                	li	a4,1
     fb0:	00e78123          	sb	a4,2(a5) # 40002002 <buffer0+0x1ffe0e02>
c:\Users\rui\Desktop\iphone_screen\wch\code\hspi_usb3_ping_pong\hspi_usb3_ping_pong\obj/../User/Main.c:42
    TMR0_TimerInit( 67000000 );
     fb4:	6c050513          	addi	a0,a0,1728 # 3fe56c0 <_data_lma+0x3fe2e84>
     fb8:	24d9                	jal	127e <TMR0_TimerInit>
c:\Users\rui\Desktop\iphone_screen\wch\code\hspi_usb3_ping_pong\hspi_usb3_ping_pong\obj/../User/Main.c:43
	USB30D_init(ENABLE);
     fba:	4505                	li	a0,1
     fbc:	edeff0ef          	jal	ra,69a <USB30D_init>
c:\Users\rui\Desktop\iphone_screen\wch\code\hspi_usb3_ping_pong\hspi_usb3_ping_pong\obj/../User/Main.c:52
	// ping pong state :
	// 0: hspi rx buffer0 , usb tx buffer1
	// 1: hspi rx buffer1 , usb tx buffer0
	// R32_HSPI_RX_ADDR0 = BUFFER0_BASE_ADDR;
	// R32_HSPI_RX_ADDR1 = BUFFER1_BASE_ADDR;
	R32_HSPI_RX_ADDR0 = (UINT32)(UINT8*)buffer0;
     fc0:	20021437          	lui	s0,0x20021
c:\Users\rui\Desktop\iphone_screen\wch\code\hspi_usb3_ping_pong\hspi_usb3_ping_pong\obj/../User/Main.c:45
	hspi_init();
     fc4:	3b59                	jal	d5a <hspi_init>
c:\Users\rui\Desktop\iphone_screen\wch\code\hspi_usb3_ping_pong\hspi_usb3_ping_pong\obj/../User/Main.c:52
	R32_HSPI_RX_ADDR0 = (UINT32)(UINT8*)buffer0;
     fc6:	400067b7          	lui	a5,0x40006
     fca:	20040413          	addi	s0,s0,512 # 20021200 <buffer0>
c:\Users\rui\Desktop\iphone_screen\wch\code\hspi_usb3_ping_pong\hspi_usb3_ping_pong\obj/../User/Main.c:53
	R32_HSPI_RX_ADDR1 = (UINT32)(UINT8*)buffer1;
     fce:	200204b7          	lui	s1,0x20020
c:\Users\rui\Desktop\iphone_screen\wch\code\hspi_usb3_ping_pong\hspi_usb3_ping_pong\obj/../User/Main.c:52
	R32_HSPI_RX_ADDR0 = (UINT32)(UINT8*)buffer0;
     fd2:	c7c0                	sw	s0,12(a5)
c:\Users\rui\Desktop\iphone_screen\wch\code\hspi_usb3_ping_pong\hspi_usb3_ping_pong\obj/../User/Main.c:53
	R32_HSPI_RX_ADDR1 = (UINT32)(UINT8*)buffer1;
     fd4:	20048493          	addi	s1,s1,512 # 20020200 <buffer1>
     fd8:	cb84                	sw	s1,16(a5)
c:\Users\rui\Desktop\iphone_screen\wch\code\hspi_usb3_ping_pong\hspi_usb3_ping_pong\obj/../User/Main.c:55

	PIN_HRTS_LOW(); // start recv
     fda:	06c92783          	lw	a5,108(s2)
     fde:	00800737          	lui	a4,0x800
c:\Users\rui\Desktop\iphone_screen\wch\code\hspi_usb3_ping_pong\hspi_usb3_ping_pong\obj/../User/Main.c:66
		// 	PIN_HRTS_LOW(); // start recv
		// }
		

		// 2 buffer
		if(usb_ep1_upload_done_flag && hspi_receive_done){ // buffer can swap
     fe2:	200009b7          	lui	s3,0x20000
c:\Users\rui\Desktop\iphone_screen\wch\code\hspi_usb3_ping_pong\hspi_usb3_ping_pong\obj/../User/Main.c:55
	PIN_HRTS_LOW(); // start recv
     fe6:	8fd9                	or	a5,a5,a4
     fe8:	06f92623          	sw	a5,108(s2)
c:\Users\rui\Desktop\iphone_screen\wch\code\hspi_usb3_ping_pong\hspi_usb3_ping_pong\obj/../User/Main.c:94
				// tx_addr_ptr = BUFFER1_BASE_ADDR;
				// USBSS->UEP1_TX_DMA = BUFFER1_BASE_ADDR;
				tx_addr_ptr = (UINT32)(UINT8*)buffer1;
				USBSS->UEP1_TX_DMA = (UINT32)(UINT8*)buffer1;

				last_send_packet = 4;
     fec:	4b11                	li	s6,4
c:\Users\rui\Desktop\iphone_screen\wch\code\hspi_usb3_ping_pong\hspi_usb3_ping_pong\obj/../User/Main.c:73
				ping_pong_state = 1;
     fee:	4b85                	li	s7,1
c:\Users\rui\Desktop\iphone_screen\wch\code\hspi_usb3_ping_pong\hspi_usb3_ping_pong\obj/../User/Main.c:66
		if(usb_ep1_upload_done_flag && hspi_receive_done){ // buffer can swap
     ff0:	0b09c783          	lbu	a5,176(s3) # 200000b0 <usb_ep1_upload_done_flag>
     ff4:	0ff7f793          	andi	a5,a5,255
     ff8:	dfe5                	beqz	a5,ff0 <main+0xc2>
c:\Users\rui\Desktop\iphone_screen\wch\code\hspi_usb3_ping_pong\hspi_usb3_ping_pong\obj/../User/Main.c:66 (discriminator 1)
     ffa:	8301c783          	lbu	a5,-2000(gp) # 200000e0 <hspi_receive_done>
     ffe:	0ff7f793          	andi	a5,a5,255
    1002:	d7fd                	beqz	a5,ff0 <main+0xc2>
PFIC_DisableIRQ():
c:/Users/rui/Desktop/iphone_screen/wch/code/hspi_usb3_ping_pong/hspi_usb3_ping_pong/RVMSIS/core_riscv.h:147
    t = PFIC->ITHRESDR;
    1004:	e000e7b7          	lui	a5,0xe000e
    1008:	43b4                	lw	a3,64(a5)
c:/Users/rui/Desktop/iphone_screen/wch/code/hspi_usb3_ping_pong/hspi_usb3_ping_pong/RVMSIS/core_riscv.h:148
    PFIC->ITHRESDR = 0x10;
    100a:	4741                	li	a4,16
    100c:	c3b8                	sw	a4,64(a5)
c:/Users/rui/Desktop/iphone_screen/wch/code/hspi_usb3_ping_pong/hspi_usb3_ping_pong/RVMSIS/core_riscv.h:149
    PFIC->IRER[((UINT32)(IRQn) >> 5)] = (1 << ((UINT32)(IRQn) & 0x1F));
    100e:	00100637          	lui	a2,0x100
    1012:	18c7a023          	sw	a2,384(a5) # e000e180 <buffer0+0xbffecf80>
c:/Users/rui/Desktop/iphone_screen/wch/code/hspi_usb3_ping_pong/hspi_usb3_ping_pong/RVMSIS/core_riscv.h:150
    PFIC->ITHRESDR = t;
    1016:	c3b4                	sw	a3,64(a5)
c:/Users/rui/Desktop/iphone_screen/wch/code/hspi_usb3_ping_pong/hspi_usb3_ping_pong/RVMSIS/core_riscv.h:147
    t = PFIC->ITHRESDR;
    1018:	43b4                	lw	a3,64(a5)
c:/Users/rui/Desktop/iphone_screen/wch/code/hspi_usb3_ping_pong/hspi_usb3_ping_pong/RVMSIS/core_riscv.h:148
    PFIC->ITHRESDR = 0x10;
    101a:	c3b8                	sw	a4,64(a5)
c:/Users/rui/Desktop/iphone_screen/wch/code/hspi_usb3_ping_pong/hspi_usb3_ping_pong/RVMSIS/core_riscv.h:149
    PFIC->IRER[((UINT32)(IRQn) >> 5)] = (1 << ((UINT32)(IRQn) & 0x1F));
    101c:	10000737          	lui	a4,0x10000
    1020:	18e7a023          	sw	a4,384(a5)
c:/Users/rui/Desktop/iphone_screen/wch/code/hspi_usb3_ping_pong/hspi_usb3_ping_pong/RVMSIS/core_riscv.h:150
    PFIC->ITHRESDR = t;
    1024:	c3b4                	sw	a3,64(a5)
main():
c:\Users\rui\Desktop\iphone_screen\wch\code\hspi_usb3_ping_pong\hspi_usb3_ping_pong\obj/../User/Main.c:70
			usb_ep1_upload_done_flag = 0;
    1026:	0a098823          	sb	zero,176(s3)
c:\Users\rui\Desktop\iphone_screen\wch\code\hspi_usb3_ping_pong\hspi_usb3_ping_pong\obj/../User/Main.c:71
			hspi_receive_done = 0;
    102a:	82018823          	sb	zero,-2000(gp) # 200000e0 <hspi_receive_done>
c:\Users\rui\Desktop\iphone_screen\wch\code\hspi_usb3_ping_pong\hspi_usb3_ping_pong\obj/../User/Main.c:72
			if (ping_pong_state == 0){
    102e:	8281c783          	lbu	a5,-2008(gp) # 200000d8 <ping_pong_state>
    1032:	400066b7          	lui	a3,0x40006
    1036:	0ff7f793          	andi	a5,a5,255
    103a:	ebb9                	bnez	a5,1090 <main+0x162>
c:\Users\rui\Desktop\iphone_screen\wch\code\hspi_usb3_ping_pong\hspi_usb3_ping_pong\obj/../User/Main.c:73
				ping_pong_state = 1;
    103c:	83718423          	sb	s7,-2008(gp) # 200000d8 <ping_pong_state>
c:\Users\rui\Desktop\iphone_screen\wch\code\hspi_usb3_ping_pong\hspi_usb3_ping_pong\obj/../User/Main.c:74
				R32_HSPI_RX_ADDR0 = (UINT32)(UINT8*)buffer1;
    1040:	c6c4                	sw	s1,12(a3)
c:\Users\rui\Desktop\iphone_screen\wch\code\hspi_usb3_ping_pong\hspi_usb3_ping_pong\obj/../User/Main.c:77
				tx_addr_ptr = (UINT32)(UINT8*)buffer0;
    1042:	8481a423          	sw	s0,-1976(gp) # 200000f8 <tx_addr_ptr>
c:\Users\rui\Desktop\iphone_screen\wch\code\hspi_usb3_ping_pong\hspi_usb3_ping_pong\obj/../User/Main.c:78
				USBSS->UEP1_TX_DMA = (UINT32)(UINT8*)buffer0;
    1046:	400087b7          	lui	a5,0x40008
    104a:	0887a023          	sw	s0,128(a5) # 40008080 <buffer0+0x1ffe6e80>
c:\Users\rui\Desktop\iphone_screen\wch\code\hspi_usb3_ping_pong\hspi_usb3_ping_pong\obj/../User/Main.c:95
				USB30_IN_Set(ENDP_1, ENABLE, ACK, 4, 1024);
    104e:	40000713          	li	a4,1024
    1052:	4691                	li	a3,4
    1054:	4605                	li	a2,1
    1056:	4585                	li	a1,1
    1058:	4505                	li	a0,1
c:\Users\rui\Desktop\iphone_screen\wch\code\hspi_usb3_ping_pong\hspi_usb3_ping_pong\obj/../User/Main.c:94
				last_send_packet = 4;
    105a:	83618123          	sb	s6,-2014(gp) # 200000d2 <last_send_packet>
c:\Users\rui\Desktop\iphone_screen\wch\code\hspi_usb3_ping_pong\hspi_usb3_ping_pong\obj/../User/Main.c:95
				USB30_IN_Set(ENDP_1, ENABLE, ACK, 4, 1024);
    105e:	a28ff0ef          	jal	ra,286 <USB30_IN_Set>
c:\Users\rui\Desktop\iphone_screen\wch\code\hspi_usb3_ping_pong\hspi_usb3_ping_pong\obj/../User/Main.c:96
				USB30_Send_ERDY(ENDP_1 | IN, 4);
    1062:	4591                	li	a1,4
    1064:	08100513          	li	a0,129
    1068:	adcff0ef          	jal	ra,344 <USB30_Send_ERDY>
c:\Users\rui\Desktop\iphone_screen\wch\code\hspi_usb3_ping_pong\hspi_usb3_ping_pong\obj/../User/Main.c:97
				PIN_HRTS_LOW(); // start recv
    106c:	40001737          	lui	a4,0x40001
    1070:	577c                	lw	a5,108(a4)
    1072:	008006b7          	lui	a3,0x800
    1076:	8fd5                	or	a5,a5,a3
    1078:	d77c                	sw	a5,108(a4)
PFIC_EnableIRQ():
c:/Users/rui/Desktop/iphone_screen/wch/code/hspi_usb3_ping_pong/hspi_usb3_ping_pong/RVMSIS/core_riscv.h:131
    PFIC->IENR[((UINT32)(IRQn) >> 5)] = (1 << ((UINT32)(IRQn) & 0x1F));
    107a:	e000e7b7          	lui	a5,0xe000e
    107e:	00100737          	lui	a4,0x100
    1082:	10e7a023          	sw	a4,256(a5) # e000e100 <buffer0+0xbffecf00>
    1086:	10000737          	lui	a4,0x10000
    108a:	10e7a023          	sw	a4,256(a5)
    108e:	b78d                	j	ff0 <main+0xc2>
main():
c:\Users\rui\Desktop\iphone_screen\wch\code\hspi_usb3_ping_pong\hspi_usb3_ping_pong\obj/../User/Main.c:87
				ping_pong_state = 0;
    1090:	82018423          	sb	zero,-2008(gp) # 200000d8 <ping_pong_state>
c:\Users\rui\Desktop\iphone_screen\wch\code\hspi_usb3_ping_pong\hspi_usb3_ping_pong\obj/../User/Main.c:88
				R32_HSPI_RX_ADDR0 = (UINT32)(UINT8*)buffer0;
    1094:	c6c0                	sw	s0,12(a3)
c:\Users\rui\Desktop\iphone_screen\wch\code\hspi_usb3_ping_pong\hspi_usb3_ping_pong\obj/../User/Main.c:91
				tx_addr_ptr = (UINT32)(UINT8*)buffer1;
    1096:	8491a423          	sw	s1,-1976(gp) # 200000f8 <tx_addr_ptr>
c:\Users\rui\Desktop\iphone_screen\wch\code\hspi_usb3_ping_pong\hspi_usb3_ping_pong\obj/../User/Main.c:92
				USBSS->UEP1_TX_DMA = (UINT32)(UINT8*)buffer1;
    109a:	400087b7          	lui	a5,0x40008
    109e:	0897a023          	sw	s1,128(a5) # 40008080 <buffer0+0x1ffe6e80>
    10a2:	b775                	j	104e <main+0x120>

000010a4 <DVP_IRQHandler>:
GPIO_IRQHandler():
c:\Users\rui\Desktop\iphone_screen\wch\code\hspi_usb3_ping_pong\hspi_usb3_ping_pong\obj/../Startup/startup_CH56x.S:116
SERDES_IRQHandler:
ETH_IRQHandler:
PMT_IRQHandler:
ECDC_IRQHandler:
1:
	j 1b
    10a4:	a001                	j	10a4 <DVP_IRQHandler>

000010a6 <handle_reset>:
handle_reset():
c:\Users\rui\Desktop\iphone_screen\wch\code\hspi_usb3_ping_pong\hspi_usb3_ping_pong\obj/../Startup/startup_CH56x.S:124
	.weak	handle_reset
	.align	1
handle_reset:
.option push 
.option	norelax 
	la gp, __global_pointer$
    10a6:	20000197          	auipc	gp,0x20000
    10aa:	80a18193          	addi	gp,gp,-2038 # 200008b0 <__global_pointer$>
c:\Users\rui\Desktop\iphone_screen\wch\code\hspi_usb3_ping_pong\hspi_usb3_ping_pong\obj/../Startup/startup_CH56x.S:127
.option	pop 
1:
	la sp, _eusrstack 
    10ae:	20003117          	auipc	sp,0x20003
    10b2:	f5210113          	addi	sp,sp,-174 # 20004000 <_eusrstack>
c:\Users\rui\Desktop\iphone_screen\wch\code\hspi_usb3_ping_pong\hspi_usb3_ping_pong\obj/../Startup/startup_CH56x.S:130
2:	
/* Load data section from flash to RAM */
	la a0, _data_lma
    10b6:	00001517          	auipc	a0,0x1
    10ba:	78650513          	addi	a0,a0,1926 # 283c <_data_lma>
c:\Users\rui\Desktop\iphone_screen\wch\code\hspi_usb3_ping_pong\hspi_usb3_ping_pong\obj/../Startup/startup_CH56x.S:131
	la a1, _data_vma
    10be:	1ffff597          	auipc	a1,0x1ffff
    10c2:	f4258593          	addi	a1,a1,-190 # 20000000 <_data_vma>
c:\Users\rui\Desktop\iphone_screen\wch\code\hspi_usb3_ping_pong\hspi_usb3_ping_pong\obj/../Startup/startup_CH56x.S:132
	la a2, _edata
    10c6:	81818613          	addi	a2,gp,-2024 # 200000c8 <_edata>
c:\Users\rui\Desktop\iphone_screen\wch\code\hspi_usb3_ping_pong\hspi_usb3_ping_pong\obj/../Startup/startup_CH56x.S:133
	bgeu a1, a2, 2f
    10ca:	00c5fa63          	bgeu	a1,a2,10de <handle_reset+0x38>
c:\Users\rui\Desktop\iphone_screen\wch\code\hspi_usb3_ping_pong\hspi_usb3_ping_pong\obj/../Startup/startup_CH56x.S:135
1:
	lw t0, (a0)
    10ce:	00052283          	lw	t0,0(a0)
c:\Users\rui\Desktop\iphone_screen\wch\code\hspi_usb3_ping_pong\hspi_usb3_ping_pong\obj/../Startup/startup_CH56x.S:136
	sw t0, (a1)
    10d2:	0055a023          	sw	t0,0(a1)
c:\Users\rui\Desktop\iphone_screen\wch\code\hspi_usb3_ping_pong\hspi_usb3_ping_pong\obj/../Startup/startup_CH56x.S:137
	addi a0, a0, 4
    10d6:	0511                	addi	a0,a0,4
c:\Users\rui\Desktop\iphone_screen\wch\code\hspi_usb3_ping_pong\hspi_usb3_ping_pong\obj/../Startup/startup_CH56x.S:138
	addi a1, a1, 4
    10d8:	0591                	addi	a1,a1,4
c:\Users\rui\Desktop\iphone_screen\wch\code\hspi_usb3_ping_pong\hspi_usb3_ping_pong\obj/../Startup/startup_CH56x.S:139
	bltu a1, a2, 1b
    10da:	fec5eae3          	bltu	a1,a2,10ce <handle_reset+0x28>
c:\Users\rui\Desktop\iphone_screen\wch\code\hspi_usb3_ping_pong\hspi_usb3_ping_pong\obj/../Startup/startup_CH56x.S:142
2:
/* Clear bss section */
	la a0, _sbss
    10de:	81818513          	addi	a0,gp,-2024 # 200000c8 <_edata>
c:\Users\rui\Desktop\iphone_screen\wch\code\hspi_usb3_ping_pong\hspi_usb3_ping_pong\obj/../Startup/startup_CH56x.S:143
	la a1, _ebss
    10e2:	85018593          	addi	a1,gp,-1968 # 20000100 <_ebss>
c:\Users\rui\Desktop\iphone_screen\wch\code\hspi_usb3_ping_pong\hspi_usb3_ping_pong\obj/../Startup/startup_CH56x.S:144
	bgeu a0, a1, 2f
    10e6:	00b57763          	bgeu	a0,a1,10f4 <handle_reset+0x4e>
c:\Users\rui\Desktop\iphone_screen\wch\code\hspi_usb3_ping_pong\hspi_usb3_ping_pong\obj/../Startup/startup_CH56x.S:146
1:
	sw zero, (a0)
    10ea:	00052023          	sw	zero,0(a0)
c:\Users\rui\Desktop\iphone_screen\wch\code\hspi_usb3_ping_pong\hspi_usb3_ping_pong\obj/../Startup/startup_CH56x.S:147
	addi a0, a0, 4
    10ee:	0511                	addi	a0,a0,4
c:\Users\rui\Desktop\iphone_screen\wch\code\hspi_usb3_ping_pong\hspi_usb3_ping_pong\obj/../Startup/startup_CH56x.S:148
	bltu a0, a1, 1b
    10f0:	feb56de3          	bltu	a0,a1,10ea <handle_reset+0x44>
c:\Users\rui\Desktop\iphone_screen\wch\code\hspi_usb3_ping_pong\hspi_usb3_ping_pong\obj/../Startup/startup_CH56x.S:151
2:
/* Clear dmadata section */
    la a0, _dmadata_start
    10f4:	2001f517          	auipc	a0,0x2001f
    10f8:	f0c50513          	addi	a0,a0,-244 # 20020000 <endp0RTbuff>
c:\Users\rui\Desktop\iphone_screen\wch\code\hspi_usb3_ping_pong\hspi_usb3_ping_pong\obj/../Startup/startup_CH56x.S:152
    la a1, _dmadata_end
    10fc:	2001f597          	auipc	a1,0x2001f
    1100:	f0458593          	addi	a1,a1,-252 # 20020000 <endp0RTbuff>
c:\Users\rui\Desktop\iphone_screen\wch\code\hspi_usb3_ping_pong\hspi_usb3_ping_pong\obj/../Startup/startup_CH56x.S:153
    bgeu a0, a1, 2f
    1104:	00b57763          	bgeu	a0,a1,1112 <handle_reset+0x6c>
c:\Users\rui\Desktop\iphone_screen\wch\code\hspi_usb3_ping_pong\hspi_usb3_ping_pong\obj/../Startup/startup_CH56x.S:155
1:
    sw zero, (a0)
    1108:	00052023          	sw	zero,0(a0)
c:\Users\rui\Desktop\iphone_screen\wch\code\hspi_usb3_ping_pong\hspi_usb3_ping_pong\obj/../Startup/startup_CH56x.S:156
    addi a0, a0, 4
    110c:	0511                	addi	a0,a0,4
c:\Users\rui\Desktop\iphone_screen\wch\code\hspi_usb3_ping_pong\hspi_usb3_ping_pong\obj/../Startup/startup_CH56x.S:157
    bltu a0, a1, 1b
    110e:	feb56de3          	bltu	a0,a1,1108 <handle_reset+0x62>
c:\Users\rui\Desktop\iphone_screen\wch\code\hspi_usb3_ping_pong\hspi_usb3_ping_pong\obj/../Startup/startup_CH56x.S:160
2:
/* Enable global interrupt and configure privileged mode */
    li t0, 0x88
    1112:	08800293          	li	t0,136
c:\Users\rui\Desktop\iphone_screen\wch\code\hspi_usb3_ping_pong\hspi_usb3_ping_pong\obj/../Startup/startup_CH56x.S:161
    csrw mstatus, t0
    1116:	30029073          	csrw	mstatus,t0
c:\Users\rui\Desktop\iphone_screen\wch\code\hspi_usb3_ping_pong\hspi_usb3_ping_pong\obj/../Startup/startup_CH56x.S:163
/* Configure entry address mode */
	la t0, _vector_base
    111a:	fffff297          	auipc	t0,0xfffff
    111e:	eea28293          	addi	t0,t0,-278 # 4 <_einit>
c:\Users\rui\Desktop\iphone_screen\wch\code\hspi_usb3_ping_pong\hspi_usb3_ping_pong\obj/../Startup/startup_CH56x.S:164
    ori t0, t0, 1
    1122:	0012e293          	ori	t0,t0,1
c:\Users\rui\Desktop\iphone_screen\wch\code\hspi_usb3_ping_pong\hspi_usb3_ping_pong\obj/../Startup/startup_CH56x.S:165
	csrw mtvec, t0
    1126:	30529073          	csrw	mtvec,t0
c:\Users\rui\Desktop\iphone_screen\wch\code\hspi_usb3_ping_pong\hspi_usb3_ping_pong\obj/../Startup/startup_CH56x.S:167

	la t0, main
    112a:	00000297          	auipc	t0,0x0
    112e:	e0428293          	addi	t0,t0,-508 # f2e <main>
c:\Users\rui\Desktop\iphone_screen\wch\code\hspi_usb3_ping_pong\hspi_usb3_ping_pong\obj/../Startup/startup_CH56x.S:168
	csrw mepc, t0
    1132:	34129073          	csrw	mepc,t0
c:\Users\rui\Desktop\iphone_screen\wch\code\hspi_usb3_ping_pong\hspi_usb3_ping_pong\obj/../Startup/startup_CH56x.S:169
	mret
    1136:	30200073          	mret

0000113a <SystemInit>:
SystemInit():
c:\Users\rui\Desktop\iphone_screen\wch\code\hspi_usb3_ping_pong\hspi_usb3_ping_pong\obj/../Peripheral/src/CH56x_clk.c:29
 */
void SystemInit(uint32_t systemclck)
{	
	uint8_t sc;
	
	sc = systemclck/1000000;
    113a:	000f47b7          	lui	a5,0xf4
    113e:	24078793          	addi	a5,a5,576 # f4240 <_data_lma+0xf1a04>
    1142:	02f55533          	divu	a0,a0,a5
    1146:	03c00793          	li	a5,60
    114a:	0ff57513          	andi	a0,a0,255
    114e:	08f50c63          	beq	a0,a5,11e6 <SystemInit+0xac>
    1152:	00a7ed63          	bltu	a5,a0,116c <SystemInit+0x32>
    1156:	47bd                	li	a5,15
    1158:	04f50363          	beq	a0,a5,119e <SystemInit+0x64>
    115c:	47f9                	li	a5,30
    115e:	06f50363          	beq	a0,a5,11c4 <SystemInit+0x8a>
c:\Users\rui\Desktop\iphone_screen\wch\code\hspi_usb3_ping_pong\hspi_usb3_ping_pong\obj/../Peripheral/src/CH56x_clk.c:78
			
            break;
        default :
            break;		
    }	
    R8_SAFE_ACCESS_SIG = 0;
    1162:	400017b7          	lui	a5,0x40001
    1166:	00078023          	sb	zero,0(a5) # 40001000 <buffer0+0x1ffdfe00>
c:\Users\rui\Desktop\iphone_screen\wch\code\hspi_usb3_ping_pong\hspi_usb3_ping_pong\obj/../Peripheral/src/CH56x_clk.c:79
}
    116a:	8082                	ret
    116c:	06000793          	li	a5,96
    1170:	08f50863          	beq	a0,a5,1200 <SystemInit+0xc6>
    1174:	07800793          	li	a5,120
    1178:	0af50163          	beq	a0,a5,121a <SystemInit+0xe0>
    117c:	05000793          	li	a5,80
    1180:	fef511e3          	bne	a0,a5,1162 <SystemInit+0x28>
c:\Users\rui\Desktop\iphone_screen\wch\code\hspi_usb3_ping_pong\hspi_usb3_ping_pong\obj/../Peripheral/src/CH56x_clk.c:55
			R8_SAFE_ACCESS_SIG = 0x57; // enable safe access mode
    1184:	400017b7          	lui	a5,0x40001
    1188:	05700713          	li	a4,87
    118c:	00e78023          	sb	a4,0(a5) # 40001000 <buffer0+0x1ffdfe00>
c:\Users\rui\Desktop\iphone_screen\wch\code\hspi_usb3_ping_pong\hspi_usb3_ping_pong\obj/../Peripheral/src/CH56x_clk.c:56
			R8_SAFE_ACCESS_SIG = 0xa8;
    1190:	fa800713          	li	a4,-88
    1194:	00e78023          	sb	a4,0(a5)
c:\Users\rui\Desktop\iphone_screen\wch\code\hspi_usb3_ping_pong\hspi_usb3_ping_pong\obj/../Peripheral/src/CH56x_clk.c:57
			R8_CLK_PLL_DIV = 0x40 | 0x06;			
    1198:	04600713          	li	a4,70
    119c:	a081                	j	11dc <SystemInit+0xa2>
c:\Users\rui\Desktop\iphone_screen\wch\code\hspi_usb3_ping_pong\hspi_usb3_ping_pong\obj/../Peripheral/src/CH56x_clk.c:34
			R8_SAFE_ACCESS_SIG = 0x57; // enable safe access mode
    119e:	400017b7          	lui	a5,0x40001
    11a2:	05700713          	li	a4,87
    11a6:	00e78023          	sb	a4,0(a5) # 40001000 <buffer0+0x1ffdfe00>
c:\Users\rui\Desktop\iphone_screen\wch\code\hspi_usb3_ping_pong\hspi_usb3_ping_pong\obj/../Peripheral/src/CH56x_clk.c:35
			R8_SAFE_ACCESS_SIG = 0xa8;
    11aa:	fa800713          	li	a4,-88
    11ae:	00e78023          	sb	a4,0(a5)
c:\Users\rui\Desktop\iphone_screen\wch\code\hspi_usb3_ping_pong\hspi_usb3_ping_pong\obj/../Peripheral/src/CH56x_clk.c:36
			R8_CLK_PLL_DIV = 0x40 | 0x02;			
    11b2:	04200713          	li	a4,66
    11b6:	00e78423          	sb	a4,8(a5)
c:\Users\rui\Desktop\iphone_screen\wch\code\hspi_usb3_ping_pong\hspi_usb3_ping_pong\obj/../Peripheral/src/CH56x_clk.c:37
			R8_CLK_CFG_CTRL = 0x80 ;
    11ba:	f8000713          	li	a4,-128
c:\Users\rui\Desktop\iphone_screen\wch\code\hspi_usb3_ping_pong\hspi_usb3_ping_pong\obj/../Peripheral/src/CH56x_clk.c:72
			R8_CLK_CFG_CTRL = 0x80 | RB_CLK_SEL_PLL;
    11be:	00e78523          	sb	a4,10(a5)
c:\Users\rui\Desktop\iphone_screen\wch\code\hspi_usb3_ping_pong\hspi_usb3_ping_pong\obj/../Peripheral/src/CH56x_clk.c:74
            break;
    11c2:	b745                	j	1162 <SystemInit+0x28>
c:\Users\rui\Desktop\iphone_screen\wch\code\hspi_usb3_ping_pong\hspi_usb3_ping_pong\obj/../Peripheral/src/CH56x_clk.c:41
			R8_SAFE_ACCESS_SIG = 0x57; // enable safe access mode
    11c4:	400017b7          	lui	a5,0x40001
    11c8:	05700713          	li	a4,87
    11cc:	00e78023          	sb	a4,0(a5) # 40001000 <buffer0+0x1ffdfe00>
c:\Users\rui\Desktop\iphone_screen\wch\code\hspi_usb3_ping_pong\hspi_usb3_ping_pong\obj/../Peripheral/src/CH56x_clk.c:42
			R8_SAFE_ACCESS_SIG = 0xa8;
    11d0:	fa800713          	li	a4,-88
    11d4:	00e78023          	sb	a4,0(a5)
c:\Users\rui\Desktop\iphone_screen\wch\code\hspi_usb3_ping_pong\hspi_usb3_ping_pong\obj/../Peripheral/src/CH56x_clk.c:43
			R8_CLK_PLL_DIV = 0x40;		
    11d8:	04000713          	li	a4,64
c:\Users\rui\Desktop\iphone_screen\wch\code\hspi_usb3_ping_pong\hspi_usb3_ping_pong\obj/../Peripheral/src/CH56x_clk.c:71
			R8_CLK_PLL_DIV = 0x40 | 0x04;			
    11dc:	00e78423          	sb	a4,8(a5)
c:\Users\rui\Desktop\iphone_screen\wch\code\hspi_usb3_ping_pong\hspi_usb3_ping_pong\obj/../Peripheral/src/CH56x_clk.c:72
			R8_CLK_CFG_CTRL = 0x80 | RB_CLK_SEL_PLL;
    11e0:	f8200713          	li	a4,-126
    11e4:	bfe9                	j	11be <SystemInit+0x84>
c:\Users\rui\Desktop\iphone_screen\wch\code\hspi_usb3_ping_pong\hspi_usb3_ping_pong\obj/../Peripheral/src/CH56x_clk.c:48
			R8_SAFE_ACCESS_SIG = 0x57; // enable safe access mode
    11e6:	400017b7          	lui	a5,0x40001
    11ea:	05700713          	li	a4,87
    11ee:	00e78023          	sb	a4,0(a5) # 40001000 <buffer0+0x1ffdfe00>
c:\Users\rui\Desktop\iphone_screen\wch\code\hspi_usb3_ping_pong\hspi_usb3_ping_pong\obj/../Peripheral/src/CH56x_clk.c:49
			R8_SAFE_ACCESS_SIG = 0xa8;
    11f2:	fa800713          	li	a4,-88
    11f6:	00e78023          	sb	a4,0(a5)
c:\Users\rui\Desktop\iphone_screen\wch\code\hspi_usb3_ping_pong\hspi_usb3_ping_pong\obj/../Peripheral/src/CH56x_clk.c:50
			R8_CLK_PLL_DIV = 0x40 | 0x08;			
    11fa:	04800713          	li	a4,72
    11fe:	bff9                	j	11dc <SystemInit+0xa2>
c:\Users\rui\Desktop\iphone_screen\wch\code\hspi_usb3_ping_pong\hspi_usb3_ping_pong\obj/../Peripheral/src/CH56x_clk.c:62
			R8_SAFE_ACCESS_SIG = 0x57; // enable safe access mode
    1200:	400017b7          	lui	a5,0x40001
    1204:	05700713          	li	a4,87
    1208:	00e78023          	sb	a4,0(a5) # 40001000 <buffer0+0x1ffdfe00>
c:\Users\rui\Desktop\iphone_screen\wch\code\hspi_usb3_ping_pong\hspi_usb3_ping_pong\obj/../Peripheral/src/CH56x_clk.c:63
			R8_SAFE_ACCESS_SIG = 0xa8;
    120c:	fa800713          	li	a4,-88
    1210:	00e78023          	sb	a4,0(a5)
c:\Users\rui\Desktop\iphone_screen\wch\code\hspi_usb3_ping_pong\hspi_usb3_ping_pong\obj/../Peripheral/src/CH56x_clk.c:64
			R8_CLK_PLL_DIV = 0x40 | 0x05;			
    1214:	04500713          	li	a4,69
    1218:	b7d1                	j	11dc <SystemInit+0xa2>
c:\Users\rui\Desktop\iphone_screen\wch\code\hspi_usb3_ping_pong\hspi_usb3_ping_pong\obj/../Peripheral/src/CH56x_clk.c:69
			R8_SAFE_ACCESS_SIG = 0x57; // enable safe access mode
    121a:	400017b7          	lui	a5,0x40001
    121e:	05700713          	li	a4,87
    1222:	00e78023          	sb	a4,0(a5) # 40001000 <buffer0+0x1ffdfe00>
c:\Users\rui\Desktop\iphone_screen\wch\code\hspi_usb3_ping_pong\hspi_usb3_ping_pong\obj/../Peripheral/src/CH56x_clk.c:70
			R8_SAFE_ACCESS_SIG = 0xa8;
    1226:	fa800713          	li	a4,-88
    122a:	00e78023          	sb	a4,0(a5)
c:\Users\rui\Desktop\iphone_screen\wch\code\hspi_usb3_ping_pong\hspi_usb3_ping_pong\obj/../Peripheral/src/CH56x_clk.c:71
			R8_CLK_PLL_DIV = 0x40 | 0x04;			
    122e:	04400713          	li	a4,68
    1232:	b76d                	j	11dc <SystemInit+0xa2>

00001234 <Delay_Init>:
Delay_Init():
c:\Users\rui\Desktop\iphone_screen\wch\code\hspi_usb3_ping_pong\hspi_usb3_ping_pong\obj/../Peripheral/src/CH56x_sys.c:30
 *
 * @return   None
 **/
void Delay_Init(uint32_t systemclck)
{
    p_us = systemclck / 8000000;
    1234:	007a17b7          	lui	a5,0x7a1
    1238:	20078793          	addi	a5,a5,512 # 7a1200 <_data_lma+0x79e9c4>
    123c:	02f55533          	divu	a0,a0,a5
    1240:	0ff57513          	andi	a0,a0,255
    1244:	82a18a23          	sb	a0,-1996(gp) # 200000e4 <p_us>
c:\Users\rui\Desktop\iphone_screen\wch\code\hspi_usb3_ping_pong\hspi_usb3_ping_pong\obj/../Peripheral/src/CH56x_sys.c:31
    p_ms = (uint16_t)p_us * 1000;
    1248:	3e800793          	li	a5,1000
    124c:	02f50533          	mul	a0,a0,a5
    1250:	82a19923          	sh	a0,-1998(gp) # 200000e2 <p_ms>
c:\Users\rui\Desktop\iphone_screen\wch\code\hspi_usb3_ping_pong\hspi_usb3_ping_pong\obj/../Peripheral/src/CH56x_sys.c:32
}
    1254:	8082                	ret

00001256 <_write>:
_write():
c:\Users\rui\Desktop\iphone_screen\wch\code\hspi_usb3_ping_pong\hspi_usb3_ping_pong\obj/../Peripheral/src/CH56x_sys.c:179
 **/
__attribute__((used)) int _write(int fd, char *buf, int size)
{
    int i;

    for (i = 0; i < size; i++)
    1256:	4781                	li	a5,0
c:\Users\rui\Desktop\iphone_screen\wch\code\hspi_usb3_ping_pong\hspi_usb3_ping_pong\obj/../Peripheral/src/CH56x_sys.c:185
    {
#if DEBUG == Debug_UART0
        while (R8_UART0_TFC == UART_FIFO_SIZE);
        R8_UART0_THR = *buf++;
#elif DEBUG == Debug_UART1
        while (R8_UART1_TFC == UART_FIFO_SIZE);
    1258:	40003737          	lui	a4,0x40003
    125c:	46a1                	li	a3,8
c:\Users\rui\Desktop\iphone_screen\wch\code\hspi_usb3_ping_pong\hspi_usb3_ping_pong\obj/../Peripheral/src/CH56x_sys.c:179 (discriminator 1)
    for (i = 0; i < size; i++)
    125e:	00c7c463          	blt	a5,a2,1266 <_write+0x10>
c:\Users\rui\Desktop\iphone_screen\wch\code\hspi_usb3_ping_pong\hspi_usb3_ping_pong\obj/../Peripheral/src/CH56x_sys.c:197
        R8_UART3_THR = *buf++;
#endif
    }

    return size;
}
    1262:	8532                	mv	a0,a2
    1264:	8082                	ret
c:\Users\rui\Desktop\iphone_screen\wch\code\hspi_usb3_ping_pong\hspi_usb3_ping_pong\obj/../Peripheral/src/CH56x_sys.c:185 (discriminator 1)
        while (R8_UART1_TFC == UART_FIFO_SIZE);
    1266:	40b74503          	lbu	a0,1035(a4) # 4000340b <buffer0+0x1ffe220b>
    126a:	fea68ee3          	beq	a3,a0,1266 <_write+0x10>
c:\Users\rui\Desktop\iphone_screen\wch\code\hspi_usb3_ping_pong\hspi_usb3_ping_pong\obj/../Peripheral/src/CH56x_sys.c:186 (discriminator 2)
        R8_UART1_THR = *buf++;
    126e:	00f58533          	add	a0,a1,a5
    1272:	00054503          	lbu	a0,0(a0)
c:\Users\rui\Desktop\iphone_screen\wch\code\hspi_usb3_ping_pong\hspi_usb3_ping_pong\obj/../Peripheral/src/CH56x_sys.c:179 (discriminator 2)
    for (i = 0; i < size; i++)
    1276:	0785                	addi	a5,a5,1
c:\Users\rui\Desktop\iphone_screen\wch\code\hspi_usb3_ping_pong\hspi_usb3_ping_pong\obj/../Peripheral/src/CH56x_sys.c:186 (discriminator 2)
        R8_UART1_THR = *buf++;
    1278:	40a70423          	sb	a0,1032(a4)
    127c:	b7cd                	j	125e <_write+0x8>

0000127e <TMR0_TimerInit>:
TMR0_TimerInit():
c:\Users\rui\Desktop\iphone_screen\wch\code\hspi_usb3_ping_pong\hspi_usb3_ping_pong\obj/../Peripheral/src/CH56x_timer.c:27
 *
 * @return   None
 */
void TMR0_TimerInit( UINT32 t )
{
    R32_TMR0_CNT_END = t;
    127e:	400027b7          	lui	a5,0x40002
    1282:	c7c8                	sw	a0,12(a5)
c:\Users\rui\Desktop\iphone_screen\wch\code\hspi_usb3_ping_pong\hspi_usb3_ping_pong\obj/../Peripheral/src/CH56x_timer.c:28
    R8_TMR0_CTRL_MOD = RB_TMR_ALL_CLEAR;
    1284:	4709                	li	a4,2
    1286:	00e78023          	sb	a4,0(a5) # 40002000 <buffer0+0x1ffe0e00>
c:\Users\rui\Desktop\iphone_screen\wch\code\hspi_usb3_ping_pong\hspi_usb3_ping_pong\obj/../Peripheral/src/CH56x_timer.c:29
    R8_TMR0_CTRL_MOD = RB_TMR_COUNT_EN | RB_TMR_CAP_COUNT;
    128a:	4751                	li	a4,20
    128c:	00e78023          	sb	a4,0(a5)
c:\Users\rui\Desktop\iphone_screen\wch\code\hspi_usb3_ping_pong\hspi_usb3_ping_pong\obj/../Peripheral/src/CH56x_timer.c:30
}
    1290:	8082                	ret

00001292 <memcpy>:
memcpy():
    1292:	00a5c7b3          	xor	a5,a1,a0
    1296:	8b8d                	andi	a5,a5,3
    1298:	00c50733          	add	a4,a0,a2
    129c:	e781                	bnez	a5,12a4 <memcpy+0x12>
    129e:	478d                	li	a5,3
    12a0:	00c7ee63          	bltu	a5,a2,12bc <memcpy+0x2a>
    12a4:	87aa                	mv	a5,a0
    12a6:	0ae57063          	bgeu	a0,a4,1346 <memcpy+0xb4>
    12aa:	0005c683          	lbu	a3,0(a1)
    12ae:	0785                	addi	a5,a5,1
    12b0:	0585                	addi	a1,a1,1
    12b2:	fed78fa3          	sb	a3,-1(a5)
    12b6:	fee7eae3          	bltu	a5,a4,12aa <memcpy+0x18>
    12ba:	8082                	ret
    12bc:	00357693          	andi	a3,a0,3
    12c0:	87aa                	mv	a5,a0
    12c2:	ca91                	beqz	a3,12d6 <memcpy+0x44>
    12c4:	0005c683          	lbu	a3,0(a1)
    12c8:	0785                	addi	a5,a5,1
    12ca:	0585                	addi	a1,a1,1
    12cc:	fed78fa3          	sb	a3,-1(a5)
    12d0:	0037f693          	andi	a3,a5,3
    12d4:	b7fd                	j	12c2 <memcpy+0x30>
    12d6:	ffc77693          	andi	a3,a4,-4
    12da:	fe068613          	addi	a2,a3,-32 # 7fffe0 <_data_lma+0x7fd7a4>
    12de:	06c7f063          	bgeu	a5,a2,133e <memcpy+0xac>
    12e2:	0005a383          	lw	t2,0(a1)
    12e6:	0045a283          	lw	t0,4(a1)
    12ea:	0085af83          	lw	t6,8(a1)
    12ee:	00c5af03          	lw	t5,12(a1)
    12f2:	0105ae83          	lw	t4,16(a1)
    12f6:	0145ae03          	lw	t3,20(a1)
    12fa:	0185a303          	lw	t1,24(a1)
    12fe:	01c5a883          	lw	a7,28(a1)
    1302:	02458593          	addi	a1,a1,36
    1306:	0077a023          	sw	t2,0(a5)
    130a:	ffc5a803          	lw	a6,-4(a1)
    130e:	0057a223          	sw	t0,4(a5)
    1312:	01f7a423          	sw	t6,8(a5)
    1316:	01e7a623          	sw	t5,12(a5)
    131a:	01d7a823          	sw	t4,16(a5)
    131e:	01c7aa23          	sw	t3,20(a5)
    1322:	0067ac23          	sw	t1,24(a5)
    1326:	0117ae23          	sw	a7,28(a5)
    132a:	02478793          	addi	a5,a5,36
    132e:	ff07ae23          	sw	a6,-4(a5)
    1332:	b775                	j	12de <memcpy+0x4c>
    1334:	4190                	lw	a2,0(a1)
    1336:	0791                	addi	a5,a5,4
    1338:	0591                	addi	a1,a1,4
    133a:	fec7ae23          	sw	a2,-4(a5)
    133e:	fed7ebe3          	bltu	a5,a3,1334 <memcpy+0xa2>
    1342:	f6e7e4e3          	bltu	a5,a4,12aa <memcpy+0x18>
    1346:	8082                	ret

00001348 <iprintf>:
printf():
    1348:	7139                	addi	sp,sp,-64
    134a:	da3e                	sw	a5,52(sp)
    134c:	d22e                	sw	a1,36(sp)
    134e:	d432                	sw	a2,40(sp)
    1350:	d636                	sw	a3,44(sp)
    1352:	d83a                	sw	a4,48(sp)
    1354:	dc42                	sw	a6,56(sp)
    1356:	de46                	sw	a7,60(sp)
    1358:	1ffff797          	auipc	a5,0x1ffff
    135c:	d5c78793          	addi	a5,a5,-676 # 200000b4 <_impure_ptr>
    1360:	cc22                	sw	s0,24(sp)
    1362:	4380                	lw	s0,0(a5)
    1364:	ca26                	sw	s1,20(sp)
    1366:	ce06                	sw	ra,28(sp)
    1368:	84aa                	mv	s1,a0
    136a:	c409                	beqz	s0,1374 <iprintf+0x2c>
    136c:	4c1c                	lw	a5,24(s0)
    136e:	e399                	bnez	a5,1374 <iprintf+0x2c>
    1370:	8522                	mv	a0,s0
    1372:	2335                	jal	189e <__sinit>
    1374:	440c                	lw	a1,8(s0)
    1376:	1054                	addi	a3,sp,36
    1378:	8626                	mv	a2,s1
    137a:	8522                	mv	a0,s0
    137c:	c636                	sw	a3,12(sp)
    137e:	16f000ef          	jal	ra,1cec <_vfiprintf_r>
    1382:	40f2                	lw	ra,28(sp)
    1384:	4462                	lw	s0,24(sp)
    1386:	44d2                	lw	s1,20(sp)
    1388:	6121                	addi	sp,sp,64
    138a:	8082                	ret

0000138c <_puts_r>:
_puts_r():
    138c:	1101                	addi	sp,sp,-32
    138e:	ca26                	sw	s1,20(sp)
    1390:	c84a                	sw	s2,16(sp)
    1392:	ce06                	sw	ra,28(sp)
    1394:	cc22                	sw	s0,24(sp)
    1396:	c64e                	sw	s3,12(sp)
    1398:	c452                	sw	s4,8(sp)
    139a:	84aa                	mv	s1,a0
    139c:	892e                	mv	s2,a1
    139e:	c501                	beqz	a0,13a6 <_puts_r+0x1a>
    13a0:	4d1c                	lw	a5,24(a0)
    13a2:	e391                	bnez	a5,13a6 <_puts_r+0x1a>
    13a4:	29ed                	jal	189e <__sinit>
    13a6:	4c9c                	lw	a5,24(s1)
    13a8:	4480                	lw	s0,8(s1)
    13aa:	e399                	bnez	a5,13b0 <_puts_r+0x24>
    13ac:	8526                	mv	a0,s1
    13ae:	29c5                	jal	189e <__sinit>
    13b0:	00001797          	auipc	a5,0x1
    13b4:	41078793          	addi	a5,a5,1040 # 27c0 <__sf_fake_stdin>
    13b8:	02f41c63          	bne	s0,a5,13f0 <_puts_r+0x64>
    13bc:	40c0                	lw	s0,4(s1)
    13be:	00c45783          	lhu	a5,12(s0)
    13c2:	8ba1                	andi	a5,a5,8
    13c4:	c7b1                	beqz	a5,1410 <_puts_r+0x84>
    13c6:	481c                	lw	a5,16(s0)
    13c8:	c7a1                	beqz	a5,1410 <_puts_r+0x84>
    13ca:	59fd                	li	s3,-1
    13cc:	4a29                	li	s4,10
    13ce:	441c                	lw	a5,8(s0)
    13d0:	00094583          	lbu	a1,0(s2)
    13d4:	17fd                	addi	a5,a5,-1
    13d6:	e9b1                	bnez	a1,142a <_puts_r+0x9e>
    13d8:	c41c                	sw	a5,8(s0)
    13da:	0607de63          	bgez	a5,1456 <_puts_r+0xca>
    13de:	8622                	mv	a2,s0
    13e0:	45a9                	li	a1,10
    13e2:	8526                	mv	a0,s1
    13e4:	2841                	jal	1474 <__swbuf_r>
    13e6:	57fd                	li	a5,-1
    13e8:	02f50863          	beq	a0,a5,1418 <_puts_r+0x8c>
    13ec:	4529                	li	a0,10
    13ee:	a035                	j	141a <_puts_r+0x8e>
    13f0:	00001797          	auipc	a5,0x1
    13f4:	3f078793          	addi	a5,a5,1008 # 27e0 <__sf_fake_stdout>
    13f8:	00f41463          	bne	s0,a5,1400 <_puts_r+0x74>
    13fc:	4480                	lw	s0,8(s1)
    13fe:	b7c1                	j	13be <_puts_r+0x32>
    1400:	00001797          	auipc	a5,0x1
    1404:	3a078793          	addi	a5,a5,928 # 27a0 <__sf_fake_stderr>
    1408:	faf41be3          	bne	s0,a5,13be <_puts_r+0x32>
    140c:	44c0                	lw	s0,12(s1)
    140e:	bf45                	j	13be <_puts_r+0x32>
    1410:	85a2                	mv	a1,s0
    1412:	8526                	mv	a0,s1
    1414:	2205                	jal	1534 <__swsetup_r>
    1416:	d955                	beqz	a0,13ca <_puts_r+0x3e>
    1418:	557d                	li	a0,-1
    141a:	40f2                	lw	ra,28(sp)
    141c:	4462                	lw	s0,24(sp)
    141e:	44d2                	lw	s1,20(sp)
    1420:	4942                	lw	s2,16(sp)
    1422:	49b2                	lw	s3,12(sp)
    1424:	4a22                	lw	s4,8(sp)
    1426:	6105                	addi	sp,sp,32
    1428:	8082                	ret
    142a:	c41c                	sw	a5,8(s0)
    142c:	0905                	addi	s2,s2,1
    142e:	0007d763          	bgez	a5,143c <_puts_r+0xb0>
    1432:	4c18                	lw	a4,24(s0)
    1434:	00e7cb63          	blt	a5,a4,144a <_puts_r+0xbe>
    1438:	01458963          	beq	a1,s4,144a <_puts_r+0xbe>
    143c:	401c                	lw	a5,0(s0)
    143e:	00178713          	addi	a4,a5,1
    1442:	c018                	sw	a4,0(s0)
    1444:	00b78023          	sb	a1,0(a5)
    1448:	b759                	j	13ce <_puts_r+0x42>
    144a:	8622                	mv	a2,s0
    144c:	8526                	mv	a0,s1
    144e:	201d                	jal	1474 <__swbuf_r>
    1450:	f7351fe3          	bne	a0,s3,13ce <_puts_r+0x42>
    1454:	b7d1                	j	1418 <_puts_r+0x8c>
    1456:	401c                	lw	a5,0(s0)
    1458:	00178713          	addi	a4,a5,1
    145c:	c018                	sw	a4,0(s0)
    145e:	4729                	li	a4,10
    1460:	00e78023          	sb	a4,0(a5)
    1464:	b761                	j	13ec <_puts_r+0x60>

00001466 <puts>:
puts():
    1466:	1ffff797          	auipc	a5,0x1ffff
    146a:	c4e78793          	addi	a5,a5,-946 # 200000b4 <_impure_ptr>
    146e:	85aa                	mv	a1,a0
    1470:	4388                	lw	a0,0(a5)
    1472:	bf29                	j	138c <_puts_r>

00001474 <__swbuf_r>:
__swbuf_r():
    1474:	1101                	addi	sp,sp,-32
    1476:	cc22                	sw	s0,24(sp)
    1478:	ca26                	sw	s1,20(sp)
    147a:	c84a                	sw	s2,16(sp)
    147c:	ce06                	sw	ra,28(sp)
    147e:	c64e                	sw	s3,12(sp)
    1480:	84aa                	mv	s1,a0
    1482:	892e                	mv	s2,a1
    1484:	8432                	mv	s0,a2
    1486:	c501                	beqz	a0,148e <__swbuf_r+0x1a>
    1488:	4d1c                	lw	a5,24(a0)
    148a:	e391                	bnez	a5,148e <__swbuf_r+0x1a>
    148c:	2909                	jal	189e <__sinit>
    148e:	00001797          	auipc	a5,0x1
    1492:	33278793          	addi	a5,a5,818 # 27c0 <__sf_fake_stdin>
    1496:	06f41963          	bne	s0,a5,1508 <__swbuf_r+0x94>
    149a:	40c0                	lw	s0,4(s1)
    149c:	4c1c                	lw	a5,24(s0)
    149e:	c41c                	sw	a5,8(s0)
    14a0:	00c45783          	lhu	a5,12(s0)
    14a4:	8ba1                	andi	a5,a5,8
    14a6:	c3c9                	beqz	a5,1528 <__swbuf_r+0xb4>
    14a8:	481c                	lw	a5,16(s0)
    14aa:	cfbd                	beqz	a5,1528 <__swbuf_r+0xb4>
    14ac:	481c                	lw	a5,16(s0)
    14ae:	4008                	lw	a0,0(s0)
    14b0:	0ff97993          	andi	s3,s2,255
    14b4:	0ff97913          	andi	s2,s2,255
    14b8:	8d1d                	sub	a0,a0,a5
    14ba:	485c                	lw	a5,20(s0)
    14bc:	00f54663          	blt	a0,a5,14c8 <__swbuf_r+0x54>
    14c0:	85a2                	mv	a1,s0
    14c2:	8526                	mv	a0,s1
    14c4:	2c75                	jal	1780 <_fflush_r>
    14c6:	e52d                	bnez	a0,1530 <__swbuf_r+0xbc>
    14c8:	441c                	lw	a5,8(s0)
    14ca:	0505                	addi	a0,a0,1
    14cc:	17fd                	addi	a5,a5,-1
    14ce:	c41c                	sw	a5,8(s0)
    14d0:	401c                	lw	a5,0(s0)
    14d2:	00178713          	addi	a4,a5,1
    14d6:	c018                	sw	a4,0(s0)
    14d8:	01378023          	sb	s3,0(a5)
    14dc:	485c                	lw	a5,20(s0)
    14de:	00a78963          	beq	a5,a0,14f0 <__swbuf_r+0x7c>
    14e2:	00c45783          	lhu	a5,12(s0)
    14e6:	8b85                	andi	a5,a5,1
    14e8:	cb81                	beqz	a5,14f8 <__swbuf_r+0x84>
    14ea:	47a9                	li	a5,10
    14ec:	00f91663          	bne	s2,a5,14f8 <__swbuf_r+0x84>
    14f0:	85a2                	mv	a1,s0
    14f2:	8526                	mv	a0,s1
    14f4:	2471                	jal	1780 <_fflush_r>
    14f6:	ed0d                	bnez	a0,1530 <__swbuf_r+0xbc>
    14f8:	40f2                	lw	ra,28(sp)
    14fa:	4462                	lw	s0,24(sp)
    14fc:	854a                	mv	a0,s2
    14fe:	44d2                	lw	s1,20(sp)
    1500:	4942                	lw	s2,16(sp)
    1502:	49b2                	lw	s3,12(sp)
    1504:	6105                	addi	sp,sp,32
    1506:	8082                	ret
    1508:	00001797          	auipc	a5,0x1
    150c:	2d878793          	addi	a5,a5,728 # 27e0 <__sf_fake_stdout>
    1510:	00f41463          	bne	s0,a5,1518 <__swbuf_r+0xa4>
    1514:	4480                	lw	s0,8(s1)
    1516:	b759                	j	149c <__swbuf_r+0x28>
    1518:	00001797          	auipc	a5,0x1
    151c:	28878793          	addi	a5,a5,648 # 27a0 <__sf_fake_stderr>
    1520:	f6f41ee3          	bne	s0,a5,149c <__swbuf_r+0x28>
    1524:	44c0                	lw	s0,12(s1)
    1526:	bf9d                	j	149c <__swbuf_r+0x28>
    1528:	85a2                	mv	a1,s0
    152a:	8526                	mv	a0,s1
    152c:	2021                	jal	1534 <__swsetup_r>
    152e:	dd3d                	beqz	a0,14ac <__swbuf_r+0x38>
    1530:	597d                	li	s2,-1
    1532:	b7d9                	j	14f8 <__swbuf_r+0x84>

00001534 <__swsetup_r>:
__swsetup_r():
    1534:	1141                	addi	sp,sp,-16
    1536:	1ffff797          	auipc	a5,0x1ffff
    153a:	b7e78793          	addi	a5,a5,-1154 # 200000b4 <_impure_ptr>
    153e:	c226                	sw	s1,4(sp)
    1540:	4384                	lw	s1,0(a5)
    1542:	c422                	sw	s0,8(sp)
    1544:	c04a                	sw	s2,0(sp)
    1546:	c606                	sw	ra,12(sp)
    1548:	892a                	mv	s2,a0
    154a:	842e                	mv	s0,a1
    154c:	c489                	beqz	s1,1556 <__swsetup_r+0x22>
    154e:	4c9c                	lw	a5,24(s1)
    1550:	e399                	bnez	a5,1556 <__swsetup_r+0x22>
    1552:	8526                	mv	a0,s1
    1554:	26a9                	jal	189e <__sinit>
    1556:	00001797          	auipc	a5,0x1
    155a:	26a78793          	addi	a5,a5,618 # 27c0 <__sf_fake_stdin>
    155e:	02f41c63          	bne	s0,a5,1596 <__swsetup_r+0x62>
    1562:	40c0                	lw	s0,4(s1)
    1564:	00c41703          	lh	a4,12(s0)
    1568:	01071793          	slli	a5,a4,0x10
    156c:	83c1                	srli	a5,a5,0x10
    156e:	0087f693          	andi	a3,a5,8
    1572:	eeb5                	bnez	a3,15ee <__swsetup_r+0xba>
    1574:	0107f693          	andi	a3,a5,16
    1578:	ee9d                	bnez	a3,15b6 <__swsetup_r+0x82>
    157a:	47a5                	li	a5,9
    157c:	00f92023          	sw	a5,0(s2)
    1580:	04076713          	ori	a4,a4,64
    1584:	00e41623          	sh	a4,12(s0)
    1588:	557d                	li	a0,-1
    158a:	40b2                	lw	ra,12(sp)
    158c:	4422                	lw	s0,8(sp)
    158e:	4492                	lw	s1,4(sp)
    1590:	4902                	lw	s2,0(sp)
    1592:	0141                	addi	sp,sp,16
    1594:	8082                	ret
    1596:	00001797          	auipc	a5,0x1
    159a:	24a78793          	addi	a5,a5,586 # 27e0 <__sf_fake_stdout>
    159e:	00f41463          	bne	s0,a5,15a6 <__swsetup_r+0x72>
    15a2:	4480                	lw	s0,8(s1)
    15a4:	b7c1                	j	1564 <__swsetup_r+0x30>
    15a6:	00001797          	auipc	a5,0x1
    15aa:	1fa78793          	addi	a5,a5,506 # 27a0 <__sf_fake_stderr>
    15ae:	faf41be3          	bne	s0,a5,1564 <__swsetup_r+0x30>
    15b2:	44c0                	lw	s0,12(s1)
    15b4:	bf45                	j	1564 <__swsetup_r+0x30>
    15b6:	8b91                	andi	a5,a5,4
    15b8:	c78d                	beqz	a5,15e2 <__swsetup_r+0xae>
    15ba:	584c                	lw	a1,52(s0)
    15bc:	c989                	beqz	a1,15ce <__swsetup_r+0x9a>
    15be:	04440793          	addi	a5,s0,68
    15c2:	00f58463          	beq	a1,a5,15ca <__swsetup_r+0x96>
    15c6:	854a                	mv	a0,s2
    15c8:	2b35                	jal	1b04 <_free_r>
    15ca:	02042a23          	sw	zero,52(s0)
    15ce:	00c45783          	lhu	a5,12(s0)
    15d2:	00042223          	sw	zero,4(s0)
    15d6:	fdb7f793          	andi	a5,a5,-37
    15da:	00f41623          	sh	a5,12(s0)
    15de:	481c                	lw	a5,16(s0)
    15e0:	c01c                	sw	a5,0(s0)
    15e2:	00c45783          	lhu	a5,12(s0)
    15e6:	0087e793          	ori	a5,a5,8
    15ea:	00f41623          	sh	a5,12(s0)
    15ee:	481c                	lw	a5,16(s0)
    15f0:	ef81                	bnez	a5,1608 <__swsetup_r+0xd4>
    15f2:	00c45783          	lhu	a5,12(s0)
    15f6:	20000713          	li	a4,512
    15fa:	2807f793          	andi	a5,a5,640
    15fe:	00e78563          	beq	a5,a4,1608 <__swsetup_r+0xd4>
    1602:	85a2                	mv	a1,s0
    1604:	854a                	mv	a0,s2
    1606:	2185                	jal	1a66 <__smakebuf_r>
    1608:	00c45783          	lhu	a5,12(s0)
    160c:	0017f713          	andi	a4,a5,1
    1610:	c705                	beqz	a4,1638 <__swsetup_r+0x104>
    1612:	485c                	lw	a5,20(s0)
    1614:	00042423          	sw	zero,8(s0)
    1618:	40f007b3          	neg	a5,a5
    161c:	cc1c                	sw	a5,24(s0)
    161e:	481c                	lw	a5,16(s0)
    1620:	4501                	li	a0,0
    1622:	f7a5                	bnez	a5,158a <__swsetup_r+0x56>
    1624:	00c41783          	lh	a5,12(s0)
    1628:	0807f713          	andi	a4,a5,128
    162c:	df39                	beqz	a4,158a <__swsetup_r+0x56>
    162e:	0407e793          	ori	a5,a5,64
    1632:	00f41623          	sh	a5,12(s0)
    1636:	bf89                	j	1588 <__swsetup_r+0x54>
    1638:	8b89                	andi	a5,a5,2
    163a:	4701                	li	a4,0
    163c:	e391                	bnez	a5,1640 <__swsetup_r+0x10c>
    163e:	4858                	lw	a4,20(s0)
    1640:	c418                	sw	a4,8(s0)
    1642:	bff1                	j	161e <__swsetup_r+0xea>

00001644 <__sflush_r>:
__sflush_r():
    1644:	00c5d783          	lhu	a5,12(a1)
    1648:	1101                	addi	sp,sp,-32
    164a:	cc22                	sw	s0,24(sp)
    164c:	ca26                	sw	s1,20(sp)
    164e:	ce06                	sw	ra,28(sp)
    1650:	c84a                	sw	s2,16(sp)
    1652:	c64e                	sw	s3,12(sp)
    1654:	0087f713          	andi	a4,a5,8
    1658:	84aa                	mv	s1,a0
    165a:	842e                	mv	s0,a1
    165c:	ef71                	bnez	a4,1738 <__sflush_r+0xf4>
    165e:	41d8                	lw	a4,4(a1)
    1660:	00e04d63          	bgtz	a4,167a <__sflush_r+0x36>
    1664:	41b8                	lw	a4,64(a1)
    1666:	00e04a63          	bgtz	a4,167a <__sflush_r+0x36>
    166a:	4501                	li	a0,0
    166c:	40f2                	lw	ra,28(sp)
    166e:	4462                	lw	s0,24(sp)
    1670:	44d2                	lw	s1,20(sp)
    1672:	4942                	lw	s2,16(sp)
    1674:	49b2                	lw	s3,12(sp)
    1676:	6105                	addi	sp,sp,32
    1678:	8082                	ret
    167a:	5458                	lw	a4,44(s0)
    167c:	d77d                	beqz	a4,166a <__sflush_r+0x26>
    167e:	0004a903          	lw	s2,0(s1)
    1682:	01379693          	slli	a3,a5,0x13
    1686:	0004a023          	sw	zero,0(s1)
    168a:	0606dd63          	bgez	a3,1704 <__sflush_r+0xc0>
    168e:	4870                	lw	a2,84(s0)
    1690:	00c45783          	lhu	a5,12(s0)
    1694:	8b91                	andi	a5,a5,4
    1696:	c799                	beqz	a5,16a4 <__sflush_r+0x60>
    1698:	405c                	lw	a5,4(s0)
    169a:	8e1d                	sub	a2,a2,a5
    169c:	585c                	lw	a5,52(s0)
    169e:	c399                	beqz	a5,16a4 <__sflush_r+0x60>
    16a0:	403c                	lw	a5,64(s0)
    16a2:	8e1d                	sub	a2,a2,a5
    16a4:	545c                	lw	a5,44(s0)
    16a6:	500c                	lw	a1,32(s0)
    16a8:	4681                	li	a3,0
    16aa:	8526                	mv	a0,s1
    16ac:	9782                	jalr	a5
    16ae:	57fd                	li	a5,-1
    16b0:	00c45703          	lhu	a4,12(s0)
    16b4:	00f51d63          	bne	a0,a5,16ce <__sflush_r+0x8a>
    16b8:	4094                	lw	a3,0(s1)
    16ba:	47f5                	li	a5,29
    16bc:	06d7e863          	bltu	a5,a3,172c <__sflush_r+0xe8>
    16c0:	204007b7          	lui	a5,0x20400
    16c4:	0785                	addi	a5,a5,1
    16c6:	00d7d7b3          	srl	a5,a5,a3
    16ca:	8b85                	andi	a5,a5,1
    16cc:	c3a5                	beqz	a5,172c <__sflush_r+0xe8>
    16ce:	481c                	lw	a5,16(s0)
    16d0:	00042223          	sw	zero,4(s0)
    16d4:	c01c                	sw	a5,0(s0)
    16d6:	01371793          	slli	a5,a4,0x13
    16da:	0007d863          	bgez	a5,16ea <__sflush_r+0xa6>
    16de:	57fd                	li	a5,-1
    16e0:	00f51463          	bne	a0,a5,16e8 <__sflush_r+0xa4>
    16e4:	409c                	lw	a5,0(s1)
    16e6:	e391                	bnez	a5,16ea <__sflush_r+0xa6>
    16e8:	c868                	sw	a0,84(s0)
    16ea:	584c                	lw	a1,52(s0)
    16ec:	0124a023          	sw	s2,0(s1)
    16f0:	ddad                	beqz	a1,166a <__sflush_r+0x26>
    16f2:	04440793          	addi	a5,s0,68
    16f6:	00f58463          	beq	a1,a5,16fe <__sflush_r+0xba>
    16fa:	8526                	mv	a0,s1
    16fc:	2121                	jal	1b04 <_free_r>
    16fe:	02042a23          	sw	zero,52(s0)
    1702:	b7a5                	j	166a <__sflush_r+0x26>
    1704:	500c                	lw	a1,32(s0)
    1706:	4601                	li	a2,0
    1708:	4685                	li	a3,1
    170a:	8526                	mv	a0,s1
    170c:	9702                	jalr	a4
    170e:	57fd                	li	a5,-1
    1710:	862a                	mv	a2,a0
    1712:	f6f51fe3          	bne	a0,a5,1690 <__sflush_r+0x4c>
    1716:	409c                	lw	a5,0(s1)
    1718:	dfa5                	beqz	a5,1690 <__sflush_r+0x4c>
    171a:	4775                	li	a4,29
    171c:	00e78563          	beq	a5,a4,1726 <__sflush_r+0xe2>
    1720:	4759                	li	a4,22
    1722:	04e79463          	bne	a5,a4,176a <__sflush_r+0x126>
    1726:	0124a023          	sw	s2,0(s1)
    172a:	b781                	j	166a <__sflush_r+0x26>
    172c:	04076713          	ori	a4,a4,64
    1730:	00e41623          	sh	a4,12(s0)
    1734:	557d                	li	a0,-1
    1736:	bf1d                	j	166c <__sflush_r+0x28>
    1738:	0105a983          	lw	s3,16(a1)
    173c:	f20987e3          	beqz	s3,166a <__sflush_r+0x26>
    1740:	0005a903          	lw	s2,0(a1)
    1744:	8b8d                	andi	a5,a5,3
    1746:	0135a023          	sw	s3,0(a1)
    174a:	41390933          	sub	s2,s2,s3
    174e:	4701                	li	a4,0
    1750:	e391                	bnez	a5,1754 <__sflush_r+0x110>
    1752:	49d8                	lw	a4,20(a1)
    1754:	c418                	sw	a4,8(s0)
    1756:	f1205ae3          	blez	s2,166a <__sflush_r+0x26>
    175a:	541c                	lw	a5,40(s0)
    175c:	500c                	lw	a1,32(s0)
    175e:	86ca                	mv	a3,s2
    1760:	864e                	mv	a2,s3
    1762:	8526                	mv	a0,s1
    1764:	9782                	jalr	a5
    1766:	00a04963          	bgtz	a0,1778 <__sflush_r+0x134>
    176a:	00c45783          	lhu	a5,12(s0)
    176e:	0407e793          	ori	a5,a5,64
    1772:	00f41623          	sh	a5,12(s0)
    1776:	bf7d                	j	1734 <__sflush_r+0xf0>
    1778:	99aa                	add	s3,s3,a0
    177a:	40a90933          	sub	s2,s2,a0
    177e:	bfe1                	j	1756 <__sflush_r+0x112>

00001780 <_fflush_r>:
_fflush_r():
    1780:	499c                	lw	a5,16(a1)
    1782:	cfb9                	beqz	a5,17e0 <_fflush_r+0x60>
    1784:	1101                	addi	sp,sp,-32
    1786:	cc22                	sw	s0,24(sp)
    1788:	ce06                	sw	ra,28(sp)
    178a:	842a                	mv	s0,a0
    178c:	c511                	beqz	a0,1798 <_fflush_r+0x18>
    178e:	4d1c                	lw	a5,24(a0)
    1790:	e781                	bnez	a5,1798 <_fflush_r+0x18>
    1792:	c62e                	sw	a1,12(sp)
    1794:	2229                	jal	189e <__sinit>
    1796:	45b2                	lw	a1,12(sp)
    1798:	00001797          	auipc	a5,0x1
    179c:	02878793          	addi	a5,a5,40 # 27c0 <__sf_fake_stdin>
    17a0:	00f59b63          	bne	a1,a5,17b6 <_fflush_r+0x36>
    17a4:	404c                	lw	a1,4(s0)
    17a6:	00c59783          	lh	a5,12(a1)
    17aa:	c795                	beqz	a5,17d6 <_fflush_r+0x56>
    17ac:	8522                	mv	a0,s0
    17ae:	4462                	lw	s0,24(sp)
    17b0:	40f2                	lw	ra,28(sp)
    17b2:	6105                	addi	sp,sp,32
    17b4:	bd41                	j	1644 <__sflush_r>
    17b6:	00001797          	auipc	a5,0x1
    17ba:	02a78793          	addi	a5,a5,42 # 27e0 <__sf_fake_stdout>
    17be:	00f59463          	bne	a1,a5,17c6 <_fflush_r+0x46>
    17c2:	440c                	lw	a1,8(s0)
    17c4:	b7cd                	j	17a6 <_fflush_r+0x26>
    17c6:	00001797          	auipc	a5,0x1
    17ca:	fda78793          	addi	a5,a5,-38 # 27a0 <__sf_fake_stderr>
    17ce:	fcf59ce3          	bne	a1,a5,17a6 <_fflush_r+0x26>
    17d2:	444c                	lw	a1,12(s0)
    17d4:	bfc9                	j	17a6 <_fflush_r+0x26>
    17d6:	40f2                	lw	ra,28(sp)
    17d8:	4462                	lw	s0,24(sp)
    17da:	4501                	li	a0,0
    17dc:	6105                	addi	sp,sp,32
    17de:	8082                	ret
    17e0:	4501                	li	a0,0
    17e2:	8082                	ret

000017e4 <std>:
std():
    17e4:	1141                	addi	sp,sp,-16
    17e6:	c422                	sw	s0,8(sp)
    17e8:	c606                	sw	ra,12(sp)
    17ea:	842a                	mv	s0,a0
    17ec:	00b51623          	sh	a1,12(a0)
    17f0:	00c51723          	sh	a2,14(a0)
    17f4:	00052023          	sw	zero,0(a0)
    17f8:	00052223          	sw	zero,4(a0)
    17fc:	00052423          	sw	zero,8(a0)
    1800:	06052223          	sw	zero,100(a0)
    1804:	00052823          	sw	zero,16(a0)
    1808:	00052a23          	sw	zero,20(a0)
    180c:	00052c23          	sw	zero,24(a0)
    1810:	4621                	li	a2,8
    1812:	4581                	li	a1,0
    1814:	05c50513          	addi	a0,a0,92
    1818:	d93fe0ef          	jal	ra,5aa <memset>
    181c:	00001797          	auipc	a5,0x1
    1820:	b4478793          	addi	a5,a5,-1212 # 2360 <__sread>
    1824:	d05c                	sw	a5,36(s0)
    1826:	00001797          	auipc	a5,0x1
    182a:	b6a78793          	addi	a5,a5,-1174 # 2390 <__swrite>
    182e:	d41c                	sw	a5,40(s0)
    1830:	00001797          	auipc	a5,0x1
    1834:	bae78793          	addi	a5,a5,-1106 # 23de <__sseek>
    1838:	d45c                	sw	a5,44(s0)
    183a:	00001797          	auipc	a5,0x1
    183e:	bda78793          	addi	a5,a5,-1062 # 2414 <__sclose>
    1842:	d000                	sw	s0,32(s0)
    1844:	d81c                	sw	a5,48(s0)
    1846:	40b2                	lw	ra,12(sp)
    1848:	4422                	lw	s0,8(sp)
    184a:	0141                	addi	sp,sp,16
    184c:	8082                	ret

0000184e <_cleanup_r>:
_cleanup_r():
    184e:	00000597          	auipc	a1,0x0
    1852:	f3258593          	addi	a1,a1,-206 # 1780 <_fflush_r>
    1856:	a2a9                	j	19a0 <_fwalk_reent>

00001858 <__sfmoreglue>:
__sfmoreglue():
    1858:	1141                	addi	sp,sp,-16
    185a:	c226                	sw	s1,4(sp)
    185c:	06800613          	li	a2,104
    1860:	fff58493          	addi	s1,a1,-1
    1864:	02c484b3          	mul	s1,s1,a2
    1868:	c04a                	sw	s2,0(sp)
    186a:	892e                	mv	s2,a1
    186c:	c422                	sw	s0,8(sp)
    186e:	c606                	sw	ra,12(sp)
    1870:	07448593          	addi	a1,s1,116
    1874:	2e25                	jal	1bac <_malloc_r>
    1876:	842a                	mv	s0,a0
    1878:	cd01                	beqz	a0,1890 <__sfmoreglue+0x38>
    187a:	00052023          	sw	zero,0(a0)
    187e:	01252223          	sw	s2,4(a0)
    1882:	0531                	addi	a0,a0,12
    1884:	c408                	sw	a0,8(s0)
    1886:	06848613          	addi	a2,s1,104
    188a:	4581                	li	a1,0
    188c:	d1ffe0ef          	jal	ra,5aa <memset>
    1890:	8522                	mv	a0,s0
    1892:	40b2                	lw	ra,12(sp)
    1894:	4422                	lw	s0,8(sp)
    1896:	4492                	lw	s1,4(sp)
    1898:	4902                	lw	s2,0(sp)
    189a:	0141                	addi	sp,sp,16
    189c:	8082                	ret

0000189e <__sinit>:
__sinit():
    189e:	4d1c                	lw	a5,24(a0)
    18a0:	e3ad                	bnez	a5,1902 <__sinit+0x64>
    18a2:	1141                	addi	sp,sp,-16
    18a4:	c606                	sw	ra,12(sp)
    18a6:	c422                	sw	s0,8(sp)
    18a8:	00000797          	auipc	a5,0x0
    18ac:	fa678793          	addi	a5,a5,-90 # 184e <_cleanup_r>
    18b0:	d51c                	sw	a5,40(a0)
    18b2:	81418793          	addi	a5,gp,-2028 # 200000c4 <_global_impure_ptr>
    18b6:	439c                	lw	a5,0(a5)
    18b8:	04052423          	sw	zero,72(a0)
    18bc:	04052623          	sw	zero,76(a0)
    18c0:	04052823          	sw	zero,80(a0)
    18c4:	00f51463          	bne	a0,a5,18cc <__sinit+0x2e>
    18c8:	4785                	li	a5,1
    18ca:	cd1c                	sw	a5,24(a0)
    18cc:	842a                	mv	s0,a0
    18ce:	281d                	jal	1904 <__sfp>
    18d0:	c048                	sw	a0,4(s0)
    18d2:	8522                	mv	a0,s0
    18d4:	2805                	jal	1904 <__sfp>
    18d6:	c408                	sw	a0,8(s0)
    18d8:	8522                	mv	a0,s0
    18da:	202d                	jal	1904 <__sfp>
    18dc:	c448                	sw	a0,12(s0)
    18de:	4048                	lw	a0,4(s0)
    18e0:	4601                	li	a2,0
    18e2:	4591                	li	a1,4
    18e4:	3701                	jal	17e4 <std>
    18e6:	4408                	lw	a0,8(s0)
    18e8:	4605                	li	a2,1
    18ea:	45a5                	li	a1,9
    18ec:	3de5                	jal	17e4 <std>
    18ee:	4448                	lw	a0,12(s0)
    18f0:	4609                	li	a2,2
    18f2:	45c9                	li	a1,18
    18f4:	3dc5                	jal	17e4 <std>
    18f6:	4785                	li	a5,1
    18f8:	cc1c                	sw	a5,24(s0)
    18fa:	40b2                	lw	ra,12(sp)
    18fc:	4422                	lw	s0,8(sp)
    18fe:	0141                	addi	sp,sp,16
    1900:	8082                	ret
    1902:	8082                	ret

00001904 <__sfp>:
__sfp():
    1904:	1141                	addi	sp,sp,-16
    1906:	81418793          	addi	a5,gp,-2028 # 200000c4 <_global_impure_ptr>
    190a:	c226                	sw	s1,4(sp)
    190c:	4384                	lw	s1,0(a5)
    190e:	c04a                	sw	s2,0(sp)
    1910:	c606                	sw	ra,12(sp)
    1912:	4c9c                	lw	a5,24(s1)
    1914:	c422                	sw	s0,8(sp)
    1916:	892a                	mv	s2,a0
    1918:	e399                	bnez	a5,191e <__sfp+0x1a>
    191a:	8526                	mv	a0,s1
    191c:	3749                	jal	189e <__sinit>
    191e:	04848493          	addi	s1,s1,72
    1922:	4480                	lw	s0,8(s1)
    1924:	40dc                	lw	a5,4(s1)
    1926:	17fd                	addi	a5,a5,-1
    1928:	0007d663          	bgez	a5,1934 <__sfp+0x30>
    192c:	409c                	lw	a5,0(s1)
    192e:	cfb9                	beqz	a5,198c <__sfp+0x88>
    1930:	4084                	lw	s1,0(s1)
    1932:	bfc5                	j	1922 <__sfp+0x1e>
    1934:	00c41703          	lh	a4,12(s0)
    1938:	e739                	bnez	a4,1986 <__sfp+0x82>
    193a:	77c1                	lui	a5,0xffff0
    193c:	0785                	addi	a5,a5,1
    193e:	06042223          	sw	zero,100(s0)
    1942:	00042023          	sw	zero,0(s0)
    1946:	00042223          	sw	zero,4(s0)
    194a:	00042423          	sw	zero,8(s0)
    194e:	c45c                	sw	a5,12(s0)
    1950:	00042823          	sw	zero,16(s0)
    1954:	00042a23          	sw	zero,20(s0)
    1958:	00042c23          	sw	zero,24(s0)
    195c:	4621                	li	a2,8
    195e:	4581                	li	a1,0
    1960:	05c40513          	addi	a0,s0,92
    1964:	c47fe0ef          	jal	ra,5aa <memset>
    1968:	02042a23          	sw	zero,52(s0)
    196c:	02042c23          	sw	zero,56(s0)
    1970:	04042423          	sw	zero,72(s0)
    1974:	04042623          	sw	zero,76(s0)
    1978:	8522                	mv	a0,s0
    197a:	40b2                	lw	ra,12(sp)
    197c:	4422                	lw	s0,8(sp)
    197e:	4492                	lw	s1,4(sp)
    1980:	4902                	lw	s2,0(sp)
    1982:	0141                	addi	sp,sp,16
    1984:	8082                	ret
    1986:	06840413          	addi	s0,s0,104
    198a:	bf71                	j	1926 <__sfp+0x22>
    198c:	4591                	li	a1,4
    198e:	854a                	mv	a0,s2
    1990:	35e1                	jal	1858 <__sfmoreglue>
    1992:	c088                	sw	a0,0(s1)
    1994:	fd51                	bnez	a0,1930 <__sfp+0x2c>
    1996:	47b1                	li	a5,12
    1998:	00f92023          	sw	a5,0(s2)
    199c:	4401                	li	s0,0
    199e:	bfe9                	j	1978 <__sfp+0x74>

000019a0 <_fwalk_reent>:
_fwalk_reent():
    19a0:	7179                	addi	sp,sp,-48
    19a2:	d422                	sw	s0,40(sp)
    19a4:	d04a                	sw	s2,32(sp)
    19a6:	cc52                	sw	s4,24(sp)
    19a8:	ca56                	sw	s5,20(sp)
    19aa:	c85a                	sw	s6,16(sp)
    19ac:	c65e                	sw	s7,12(sp)
    19ae:	d606                	sw	ra,44(sp)
    19b0:	d226                	sw	s1,36(sp)
    19b2:	ce4e                	sw	s3,28(sp)
    19b4:	8a2a                	mv	s4,a0
    19b6:	8aae                	mv	s5,a1
    19b8:	04850413          	addi	s0,a0,72
    19bc:	4901                	li	s2,0
    19be:	4b05                	li	s6,1
    19c0:	5bfd                	li	s7,-1
    19c2:	ec09                	bnez	s0,19dc <_fwalk_reent+0x3c>
    19c4:	50b2                	lw	ra,44(sp)
    19c6:	5422                	lw	s0,40(sp)
    19c8:	854a                	mv	a0,s2
    19ca:	5492                	lw	s1,36(sp)
    19cc:	5902                	lw	s2,32(sp)
    19ce:	49f2                	lw	s3,28(sp)
    19d0:	4a62                	lw	s4,24(sp)
    19d2:	4ad2                	lw	s5,20(sp)
    19d4:	4b42                	lw	s6,16(sp)
    19d6:	4bb2                	lw	s7,12(sp)
    19d8:	6145                	addi	sp,sp,48
    19da:	8082                	ret
    19dc:	4404                	lw	s1,8(s0)
    19de:	00442983          	lw	s3,4(s0)
    19e2:	19fd                	addi	s3,s3,-1
    19e4:	0009d463          	bgez	s3,19ec <_fwalk_reent+0x4c>
    19e8:	4000                	lw	s0,0(s0)
    19ea:	bfe1                	j	19c2 <_fwalk_reent+0x22>
    19ec:	00c4d783          	lhu	a5,12(s1)
    19f0:	00fb7b63          	bgeu	s6,a5,1a06 <_fwalk_reent+0x66>
    19f4:	00e49783          	lh	a5,14(s1)
    19f8:	01778763          	beq	a5,s7,1a06 <_fwalk_reent+0x66>
    19fc:	85a6                	mv	a1,s1
    19fe:	8552                	mv	a0,s4
    1a00:	9a82                	jalr	s5
    1a02:	00a96933          	or	s2,s2,a0
    1a06:	06848493          	addi	s1,s1,104
    1a0a:	bfe1                	j	19e2 <_fwalk_reent+0x42>

00001a0c <__swhatbuf_r>:
__swhatbuf_r():
    1a0c:	7119                	addi	sp,sp,-128
    1a0e:	daa6                	sw	s1,116(sp)
    1a10:	84ae                	mv	s1,a1
    1a12:	00e59583          	lh	a1,14(a1)
    1a16:	dca2                	sw	s0,120(sp)
    1a18:	de86                	sw	ra,124(sp)
    1a1a:	8432                	mv	s0,a2
    1a1c:	0005dc63          	bgez	a1,1a34 <__swhatbuf_r+0x28>
    1a20:	00c4d783          	lhu	a5,12(s1)
    1a24:	0006a023          	sw	zero,0(a3)
    1a28:	0807f793          	andi	a5,a5,128
    1a2c:	e785                	bnez	a5,1a54 <__swhatbuf_r+0x48>
    1a2e:	40000793          	li	a5,1024
    1a32:	a01d                	j	1a58 <__swhatbuf_r+0x4c>
    1a34:	0830                	addi	a2,sp,24
    1a36:	c636                	sw	a3,12(sp)
    1a38:	239000ef          	jal	ra,2470 <_fstat_r>
    1a3c:	46b2                	lw	a3,12(sp)
    1a3e:	fe0541e3          	bltz	a0,1a20 <__swhatbuf_r+0x14>
    1a42:	4772                	lw	a4,28(sp)
    1a44:	67bd                	lui	a5,0xf
    1a46:	8ff9                	and	a5,a5,a4
    1a48:	7779                	lui	a4,0xffffe
    1a4a:	97ba                	add	a5,a5,a4
    1a4c:	0017b793          	seqz	a5,a5
    1a50:	c29c                	sw	a5,0(a3)
    1a52:	bff1                	j	1a2e <__swhatbuf_r+0x22>
    1a54:	04000793          	li	a5,64
    1a58:	c01c                	sw	a5,0(s0)
    1a5a:	50f6                	lw	ra,124(sp)
    1a5c:	5466                	lw	s0,120(sp)
    1a5e:	54d6                	lw	s1,116(sp)
    1a60:	4501                	li	a0,0
    1a62:	6109                	addi	sp,sp,128
    1a64:	8082                	ret

00001a66 <__smakebuf_r>:
__smakebuf_r():
    1a66:	00c5d783          	lhu	a5,12(a1)
    1a6a:	1101                	addi	sp,sp,-32
    1a6c:	cc22                	sw	s0,24(sp)
    1a6e:	ce06                	sw	ra,28(sp)
    1a70:	ca26                	sw	s1,20(sp)
    1a72:	c84a                	sw	s2,16(sp)
    1a74:	8b89                	andi	a5,a5,2
    1a76:	842e                	mv	s0,a1
    1a78:	cf89                	beqz	a5,1a92 <__smakebuf_r+0x2c>
    1a7a:	04740793          	addi	a5,s0,71
    1a7e:	c01c                	sw	a5,0(s0)
    1a80:	c81c                	sw	a5,16(s0)
    1a82:	4785                	li	a5,1
    1a84:	c85c                	sw	a5,20(s0)
    1a86:	40f2                	lw	ra,28(sp)
    1a88:	4462                	lw	s0,24(sp)
    1a8a:	44d2                	lw	s1,20(sp)
    1a8c:	4942                	lw	s2,16(sp)
    1a8e:	6105                	addi	sp,sp,32
    1a90:	8082                	ret
    1a92:	0074                	addi	a3,sp,12
    1a94:	0030                	addi	a2,sp,8
    1a96:	84aa                	mv	s1,a0
    1a98:	3f95                	jal	1a0c <__swhatbuf_r>
    1a9a:	45a2                	lw	a1,8(sp)
    1a9c:	892a                	mv	s2,a0
    1a9e:	8526                	mv	a0,s1
    1aa0:	2231                	jal	1bac <_malloc_r>
    1aa2:	ed01                	bnez	a0,1aba <__smakebuf_r+0x54>
    1aa4:	00c41783          	lh	a5,12(s0)
    1aa8:	2007f713          	andi	a4,a5,512
    1aac:	ff69                	bnez	a4,1a86 <__smakebuf_r+0x20>
    1aae:	9bf1                	andi	a5,a5,-4
    1ab0:	0027e793          	ori	a5,a5,2
    1ab4:	00f41623          	sh	a5,12(s0)
    1ab8:	b7c9                	j	1a7a <__smakebuf_r+0x14>
    1aba:	00000797          	auipc	a5,0x0
    1abe:	d9478793          	addi	a5,a5,-620 # 184e <_cleanup_r>
    1ac2:	d49c                	sw	a5,40(s1)
    1ac4:	00c45783          	lhu	a5,12(s0)
    1ac8:	c008                	sw	a0,0(s0)
    1aca:	c808                	sw	a0,16(s0)
    1acc:	0807e793          	ori	a5,a5,128
    1ad0:	00f41623          	sh	a5,12(s0)
    1ad4:	47a2                	lw	a5,8(sp)
    1ad6:	c85c                	sw	a5,20(s0)
    1ad8:	47b2                	lw	a5,12(sp)
    1ada:	cf91                	beqz	a5,1af6 <__smakebuf_r+0x90>
    1adc:	00e41583          	lh	a1,14(s0)
    1ae0:	8526                	mv	a0,s1
    1ae2:	1b9000ef          	jal	ra,249a <_isatty_r>
    1ae6:	c901                	beqz	a0,1af6 <__smakebuf_r+0x90>
    1ae8:	00c45783          	lhu	a5,12(s0)
    1aec:	9bf1                	andi	a5,a5,-4
    1aee:	0017e793          	ori	a5,a5,1
    1af2:	00f41623          	sh	a5,12(s0)
    1af6:	00c45783          	lhu	a5,12(s0)
    1afa:	00f96933          	or	s2,s2,a5
    1afe:	01241623          	sh	s2,12(s0)
    1b02:	b751                	j	1a86 <__smakebuf_r+0x20>

00001b04 <_free_r>:
_free_r():
    1b04:	c1dd                	beqz	a1,1baa <_free_r+0xa6>
    1b06:	ffc5a783          	lw	a5,-4(a1)
    1b0a:	1141                	addi	sp,sp,-16
    1b0c:	c422                	sw	s0,8(sp)
    1b0e:	c606                	sw	ra,12(sp)
    1b10:	c226                	sw	s1,4(sp)
    1b12:	ffc58413          	addi	s0,a1,-4
    1b16:	0007d363          	bgez	a5,1b1c <_free_r+0x18>
    1b1a:	943e                	add	s0,s0,a5
    1b1c:	84aa                	mv	s1,a0
    1b1e:	1eb000ef          	jal	ra,2508 <__malloc_lock>
    1b22:	83c18793          	addi	a5,gp,-1988 # 200000ec <__malloc_free_list>
    1b26:	439c                	lw	a5,0(a5)
    1b28:	ef81                	bnez	a5,1b40 <_free_r+0x3c>
    1b2a:	00042223          	sw	zero,4(s0)
    1b2e:	8281ae23          	sw	s0,-1988(gp) # 200000ec <__malloc_free_list>
    1b32:	4422                	lw	s0,8(sp)
    1b34:	40b2                	lw	ra,12(sp)
    1b36:	8526                	mv	a0,s1
    1b38:	4492                	lw	s1,4(sp)
    1b3a:	0141                	addi	sp,sp,16
    1b3c:	1cf0006f          	j	250a <__malloc_unlock>
    1b40:	00f47e63          	bgeu	s0,a5,1b5c <_free_r+0x58>
    1b44:	4014                	lw	a3,0(s0)
    1b46:	00d40733          	add	a4,s0,a3
    1b4a:	00e79663          	bne	a5,a4,1b56 <_free_r+0x52>
    1b4e:	4398                	lw	a4,0(a5)
    1b50:	43dc                	lw	a5,4(a5)
    1b52:	9736                	add	a4,a4,a3
    1b54:	c018                	sw	a4,0(s0)
    1b56:	c05c                	sw	a5,4(s0)
    1b58:	bfd9                	j	1b2e <_free_r+0x2a>
    1b5a:	87ba                	mv	a5,a4
    1b5c:	43d8                	lw	a4,4(a5)
    1b5e:	c319                	beqz	a4,1b64 <_free_r+0x60>
    1b60:	fee47de3          	bgeu	s0,a4,1b5a <_free_r+0x56>
    1b64:	4394                	lw	a3,0(a5)
    1b66:	00d78633          	add	a2,a5,a3
    1b6a:	00861f63          	bne	a2,s0,1b88 <_free_r+0x84>
    1b6e:	4010                	lw	a2,0(s0)
    1b70:	96b2                	add	a3,a3,a2
    1b72:	c394                	sw	a3,0(a5)
    1b74:	00d78633          	add	a2,a5,a3
    1b78:	fac71de3          	bne	a4,a2,1b32 <_free_r+0x2e>
    1b7c:	4310                	lw	a2,0(a4)
    1b7e:	4358                	lw	a4,4(a4)
    1b80:	96b2                	add	a3,a3,a2
    1b82:	c394                	sw	a3,0(a5)
    1b84:	c3d8                	sw	a4,4(a5)
    1b86:	b775                	j	1b32 <_free_r+0x2e>
    1b88:	00c47563          	bgeu	s0,a2,1b92 <_free_r+0x8e>
    1b8c:	47b1                	li	a5,12
    1b8e:	c09c                	sw	a5,0(s1)
    1b90:	b74d                	j	1b32 <_free_r+0x2e>
    1b92:	4010                	lw	a2,0(s0)
    1b94:	00c406b3          	add	a3,s0,a2
    1b98:	00d71663          	bne	a4,a3,1ba4 <_free_r+0xa0>
    1b9c:	4314                	lw	a3,0(a4)
    1b9e:	4358                	lw	a4,4(a4)
    1ba0:	96b2                	add	a3,a3,a2
    1ba2:	c014                	sw	a3,0(s0)
    1ba4:	c058                	sw	a4,4(s0)
    1ba6:	c3c0                	sw	s0,4(a5)
    1ba8:	b769                	j	1b32 <_free_r+0x2e>
    1baa:	8082                	ret

00001bac <_malloc_r>:
_malloc_r():
    1bac:	1101                	addi	sp,sp,-32
    1bae:	ca26                	sw	s1,20(sp)
    1bb0:	00358493          	addi	s1,a1,3
    1bb4:	98f1                	andi	s1,s1,-4
    1bb6:	ce06                	sw	ra,28(sp)
    1bb8:	cc22                	sw	s0,24(sp)
    1bba:	c84a                	sw	s2,16(sp)
    1bbc:	c64e                	sw	s3,12(sp)
    1bbe:	04a1                	addi	s1,s1,8
    1bc0:	47b1                	li	a5,12
    1bc2:	04f4f363          	bgeu	s1,a5,1c08 <_malloc_r+0x5c>
    1bc6:	44b1                	li	s1,12
    1bc8:	04b4e263          	bltu	s1,a1,1c0c <_malloc_r+0x60>
    1bcc:	892a                	mv	s2,a0
    1bce:	13b000ef          	jal	ra,2508 <__malloc_lock>
    1bd2:	83c18793          	addi	a5,gp,-1988 # 200000ec <__malloc_free_list>
    1bd6:	4398                	lw	a4,0(a5)
    1bd8:	843a                	mv	s0,a4
    1bda:	e039                	bnez	s0,1c20 <_malloc_r+0x74>
    1bdc:	84018793          	addi	a5,gp,-1984 # 200000f0 <__malloc_sbrk_start>
    1be0:	439c                	lw	a5,0(a5)
    1be2:	e791                	bnez	a5,1bee <_malloc_r+0x42>
    1be4:	4581                	li	a1,0
    1be6:	854a                	mv	a0,s2
    1be8:	2f81                	jal	2338 <_sbrk_r>
    1bea:	84a1a023          	sw	a0,-1984(gp) # 200000f0 <__malloc_sbrk_start>
    1bee:	85a6                	mv	a1,s1
    1bf0:	854a                	mv	a0,s2
    1bf2:	2799                	jal	2338 <_sbrk_r>
    1bf4:	59fd                	li	s3,-1
    1bf6:	07351963          	bne	a0,s3,1c68 <_malloc_r+0xbc>
    1bfa:	47b1                	li	a5,12
    1bfc:	00f92023          	sw	a5,0(s2)
    1c00:	854a                	mv	a0,s2
    1c02:	109000ef          	jal	ra,250a <__malloc_unlock>
    1c06:	a029                	j	1c10 <_malloc_r+0x64>
    1c08:	fc04d0e3          	bgez	s1,1bc8 <_malloc_r+0x1c>
    1c0c:	47b1                	li	a5,12
    1c0e:	c11c                	sw	a5,0(a0)
    1c10:	4501                	li	a0,0
    1c12:	40f2                	lw	ra,28(sp)
    1c14:	4462                	lw	s0,24(sp)
    1c16:	44d2                	lw	s1,20(sp)
    1c18:	4942                	lw	s2,16(sp)
    1c1a:	49b2                	lw	s3,12(sp)
    1c1c:	6105                	addi	sp,sp,32
    1c1e:	8082                	ret
    1c20:	401c                	lw	a5,0(s0)
    1c22:	8f85                	sub	a5,a5,s1
    1c24:	0207cf63          	bltz	a5,1c62 <_malloc_r+0xb6>
    1c28:	46ad                	li	a3,11
    1c2a:	00f6f663          	bgeu	a3,a5,1c36 <_malloc_r+0x8a>
    1c2e:	c01c                	sw	a5,0(s0)
    1c30:	943e                	add	s0,s0,a5
    1c32:	c004                	sw	s1,0(s0)
    1c34:	a031                	j	1c40 <_malloc_r+0x94>
    1c36:	405c                	lw	a5,4(s0)
    1c38:	02871363          	bne	a4,s0,1c5e <_malloc_r+0xb2>
    1c3c:	82f1ae23          	sw	a5,-1988(gp) # 200000ec <__malloc_free_list>
    1c40:	854a                	mv	a0,s2
    1c42:	0c9000ef          	jal	ra,250a <__malloc_unlock>
    1c46:	00b40513          	addi	a0,s0,11
    1c4a:	00440793          	addi	a5,s0,4
    1c4e:	9961                	andi	a0,a0,-8
    1c50:	40f50733          	sub	a4,a0,a5
    1c54:	df5d                	beqz	a4,1c12 <_malloc_r+0x66>
    1c56:	943a                	add	s0,s0,a4
    1c58:	8f89                	sub	a5,a5,a0
    1c5a:	c01c                	sw	a5,0(s0)
    1c5c:	bf5d                	j	1c12 <_malloc_r+0x66>
    1c5e:	c35c                	sw	a5,4(a4)
    1c60:	b7c5                	j	1c40 <_malloc_r+0x94>
    1c62:	8722                	mv	a4,s0
    1c64:	4040                	lw	s0,4(s0)
    1c66:	bf95                	j	1bda <_malloc_r+0x2e>
    1c68:	00350413          	addi	s0,a0,3
    1c6c:	9871                	andi	s0,s0,-4
    1c6e:	fc8502e3          	beq	a0,s0,1c32 <_malloc_r+0x86>
    1c72:	40a405b3          	sub	a1,s0,a0
    1c76:	854a                	mv	a0,s2
    1c78:	25c1                	jal	2338 <_sbrk_r>
    1c7a:	fb351ce3          	bne	a0,s3,1c32 <_malloc_r+0x86>
    1c7e:	bfb5                	j	1bfa <_malloc_r+0x4e>

00001c80 <__sfputc_r>:
__sfputc_r():
    1c80:	461c                	lw	a5,8(a2)
    1c82:	17fd                	addi	a5,a5,-1
    1c84:	c61c                	sw	a5,8(a2)
    1c86:	0007da63          	bgez	a5,1c9a <__sfputc_r+0x1a>
    1c8a:	4e18                	lw	a4,24(a2)
    1c8c:	00e7c563          	blt	a5,a4,1c96 <__sfputc_r+0x16>
    1c90:	47a9                	li	a5,10
    1c92:	00f59463          	bne	a1,a5,1c9a <__sfputc_r+0x1a>
    1c96:	fdeff06f          	j	1474 <__swbuf_r>
    1c9a:	421c                	lw	a5,0(a2)
    1c9c:	852e                	mv	a0,a1
    1c9e:	00178713          	addi	a4,a5,1
    1ca2:	c218                	sw	a4,0(a2)
    1ca4:	00b78023          	sb	a1,0(a5)
    1ca8:	8082                	ret

00001caa <__sfputs_r>:
__sfputs_r():
    1caa:	1101                	addi	sp,sp,-32
    1cac:	cc22                	sw	s0,24(sp)
    1cae:	ca26                	sw	s1,20(sp)
    1cb0:	c84a                	sw	s2,16(sp)
    1cb2:	c64e                	sw	s3,12(sp)
    1cb4:	c452                	sw	s4,8(sp)
    1cb6:	ce06                	sw	ra,28(sp)
    1cb8:	892a                	mv	s2,a0
    1cba:	89ae                	mv	s3,a1
    1cbc:	8432                	mv	s0,a2
    1cbe:	00d604b3          	add	s1,a2,a3
    1cc2:	5a7d                	li	s4,-1
    1cc4:	00941463          	bne	s0,s1,1ccc <__sfputs_r+0x22>
    1cc8:	4501                	li	a0,0
    1cca:	a809                	j	1cdc <__sfputs_r+0x32>
    1ccc:	00044583          	lbu	a1,0(s0)
    1cd0:	864e                	mv	a2,s3
    1cd2:	854a                	mv	a0,s2
    1cd4:	3775                	jal	1c80 <__sfputc_r>
    1cd6:	0405                	addi	s0,s0,1
    1cd8:	ff4516e3          	bne	a0,s4,1cc4 <__sfputs_r+0x1a>
    1cdc:	40f2                	lw	ra,28(sp)
    1cde:	4462                	lw	s0,24(sp)
    1ce0:	44d2                	lw	s1,20(sp)
    1ce2:	4942                	lw	s2,16(sp)
    1ce4:	49b2                	lw	s3,12(sp)
    1ce6:	4a22                	lw	s4,8(sp)
    1ce8:	6105                	addi	sp,sp,32
    1cea:	8082                	ret

00001cec <_vfiprintf_r>:
_vfiprintf_r():
    1cec:	7135                	addi	sp,sp,-160
    1cee:	cd22                	sw	s0,152(sp)
    1cf0:	cb26                	sw	s1,148(sp)
    1cf2:	c94a                	sw	s2,144(sp)
    1cf4:	c74e                	sw	s3,140(sp)
    1cf6:	cf06                	sw	ra,156(sp)
    1cf8:	c552                	sw	s4,136(sp)
    1cfa:	c356                	sw	s5,132(sp)
    1cfc:	c15a                	sw	s6,128(sp)
    1cfe:	dede                	sw	s7,124(sp)
    1d00:	dce2                	sw	s8,120(sp)
    1d02:	dae6                	sw	s9,116(sp)
    1d04:	89aa                	mv	s3,a0
    1d06:	84ae                	mv	s1,a1
    1d08:	8932                	mv	s2,a2
    1d0a:	8436                	mv	s0,a3
    1d0c:	c501                	beqz	a0,1d14 <_vfiprintf_r+0x28>
    1d0e:	4d1c                	lw	a5,24(a0)
    1d10:	e391                	bnez	a5,1d14 <_vfiprintf_r+0x28>
    1d12:	3671                	jal	189e <__sinit>
    1d14:	00001797          	auipc	a5,0x1
    1d18:	aac78793          	addi	a5,a5,-1364 # 27c0 <__sf_fake_stdin>
    1d1c:	0cf49b63          	bne	s1,a5,1df2 <_vfiprintf_r+0x106>
    1d20:	0049a483          	lw	s1,4(s3)
    1d24:	00c4d783          	lhu	a5,12(s1)
    1d28:	8ba1                	andi	a5,a5,8
    1d2a:	c7f5                	beqz	a5,1e16 <_vfiprintf_r+0x12a>
    1d2c:	489c                	lw	a5,16(s1)
    1d2e:	c7e5                	beqz	a5,1e16 <_vfiprintf_r+0x12a>
    1d30:	02000793          	li	a5,32
    1d34:	02f104a3          	sb	a5,41(sp)
    1d38:	03000793          	li	a5,48
    1d3c:	d202                	sw	zero,36(sp)
    1d3e:	02f10523          	sb	a5,42(sp)
    1d42:	c622                	sw	s0,12(sp)
    1d44:	02500b93          	li	s7,37
    1d48:	00001a97          	auipc	s5,0x1
    1d4c:	ab8a8a93          	addi	s5,s5,-1352 # 2800 <__sf_fake_stdout+0x20>
    1d50:	4c05                	li	s8,1
    1d52:	4b29                	li	s6,10
    1d54:	844a                	mv	s0,s2
    1d56:	00044783          	lbu	a5,0(s0)
    1d5a:	c399                	beqz	a5,1d60 <_vfiprintf_r+0x74>
    1d5c:	0f779063          	bne	a5,s7,1e3c <_vfiprintf_r+0x150>
    1d60:	41240cb3          	sub	s9,s0,s2
    1d64:	000c8d63          	beqz	s9,1d7e <_vfiprintf_r+0x92>
    1d68:	86e6                	mv	a3,s9
    1d6a:	864a                	mv	a2,s2
    1d6c:	85a6                	mv	a1,s1
    1d6e:	854e                	mv	a0,s3
    1d70:	3f2d                	jal	1caa <__sfputs_r>
    1d72:	57fd                	li	a5,-1
    1d74:	1ef50663          	beq	a0,a5,1f60 <_vfiprintf_r+0x274>
    1d78:	5692                	lw	a3,36(sp)
    1d7a:	96e6                	add	a3,a3,s9
    1d7c:	d236                	sw	a3,36(sp)
    1d7e:	00044783          	lbu	a5,0(s0)
    1d82:	1c078f63          	beqz	a5,1f60 <_vfiprintf_r+0x274>
    1d86:	57fd                	li	a5,-1
    1d88:	00140913          	addi	s2,s0,1
    1d8c:	c802                	sw	zero,16(sp)
    1d8e:	ce02                	sw	zero,28(sp)
    1d90:	ca3e                	sw	a5,20(sp)
    1d92:	cc02                	sw	zero,24(sp)
    1d94:	040109a3          	sb	zero,83(sp)
    1d98:	d482                	sw	zero,104(sp)
    1d9a:	00094583          	lbu	a1,0(s2)
    1d9e:	4615                	li	a2,5
    1da0:	8556                	mv	a0,s5
    1da2:	27b1                	jal	24ee <memchr>
    1da4:	00190413          	addi	s0,s2,1
    1da8:	47c2                	lw	a5,16(sp)
    1daa:	e959                	bnez	a0,1e40 <_vfiprintf_r+0x154>
    1dac:	0107f713          	andi	a4,a5,16
    1db0:	c709                	beqz	a4,1dba <_vfiprintf_r+0xce>
    1db2:	02000713          	li	a4,32
    1db6:	04e109a3          	sb	a4,83(sp)
    1dba:	0087f713          	andi	a4,a5,8
    1dbe:	c709                	beqz	a4,1dc8 <_vfiprintf_r+0xdc>
    1dc0:	02b00713          	li	a4,43
    1dc4:	04e109a3          	sb	a4,83(sp)
    1dc8:	00094683          	lbu	a3,0(s2)
    1dcc:	02a00713          	li	a4,42
    1dd0:	08e68063          	beq	a3,a4,1e50 <_vfiprintf_r+0x164>
    1dd4:	47f2                	lw	a5,28(sp)
    1dd6:	844a                	mv	s0,s2
    1dd8:	4681                	li	a3,0
    1dda:	4625                	li	a2,9
    1ddc:	00044703          	lbu	a4,0(s0)
    1de0:	00140593          	addi	a1,s0,1
    1de4:	fd070713          	addi	a4,a4,-48 # ffffdfd0 <buffer0+0xdffdcdd0>
    1de8:	0ae67963          	bgeu	a2,a4,1e9a <_vfiprintf_r+0x1ae>
    1dec:	cab5                	beqz	a3,1e60 <_vfiprintf_r+0x174>
    1dee:	ce3e                	sw	a5,28(sp)
    1df0:	a885                	j	1e60 <_vfiprintf_r+0x174>
    1df2:	00001797          	auipc	a5,0x1
    1df6:	9ee78793          	addi	a5,a5,-1554 # 27e0 <__sf_fake_stdout>
    1dfa:	00f49563          	bne	s1,a5,1e04 <_vfiprintf_r+0x118>
    1dfe:	0089a483          	lw	s1,8(s3)
    1e02:	b70d                	j	1d24 <_vfiprintf_r+0x38>
    1e04:	00001797          	auipc	a5,0x1
    1e08:	99c78793          	addi	a5,a5,-1636 # 27a0 <__sf_fake_stderr>
    1e0c:	f0f49ce3          	bne	s1,a5,1d24 <_vfiprintf_r+0x38>
    1e10:	00c9a483          	lw	s1,12(s3)
    1e14:	bf01                	j	1d24 <_vfiprintf_r+0x38>
    1e16:	85a6                	mv	a1,s1
    1e18:	854e                	mv	a0,s3
    1e1a:	f1aff0ef          	jal	ra,1534 <__swsetup_r>
    1e1e:	d909                	beqz	a0,1d30 <_vfiprintf_r+0x44>
    1e20:	557d                	li	a0,-1
    1e22:	40fa                	lw	ra,156(sp)
    1e24:	446a                	lw	s0,152(sp)
    1e26:	44da                	lw	s1,148(sp)
    1e28:	494a                	lw	s2,144(sp)
    1e2a:	49ba                	lw	s3,140(sp)
    1e2c:	4a2a                	lw	s4,136(sp)
    1e2e:	4a9a                	lw	s5,132(sp)
    1e30:	4b0a                	lw	s6,128(sp)
    1e32:	5bf6                	lw	s7,124(sp)
    1e34:	5c66                	lw	s8,120(sp)
    1e36:	5cd6                	lw	s9,116(sp)
    1e38:	610d                	addi	sp,sp,160
    1e3a:	8082                	ret
    1e3c:	0405                	addi	s0,s0,1
    1e3e:	bf21                	j	1d56 <_vfiprintf_r+0x6a>
    1e40:	41550533          	sub	a0,a0,s5
    1e44:	00ac1533          	sll	a0,s8,a0
    1e48:	8fc9                	or	a5,a5,a0
    1e4a:	c83e                	sw	a5,16(sp)
    1e4c:	8922                	mv	s2,s0
    1e4e:	b7b1                	j	1d9a <_vfiprintf_r+0xae>
    1e50:	4732                	lw	a4,12(sp)
    1e52:	00470693          	addi	a3,a4,4
    1e56:	4318                	lw	a4,0(a4)
    1e58:	c636                	sw	a3,12(sp)
    1e5a:	02074963          	bltz	a4,1e8c <_vfiprintf_r+0x1a0>
    1e5e:	ce3a                	sw	a4,28(sp)
    1e60:	00044703          	lbu	a4,0(s0)
    1e64:	02e00793          	li	a5,46
    1e68:	04f71f63          	bne	a4,a5,1ec6 <_vfiprintf_r+0x1da>
    1e6c:	00144703          	lbu	a4,1(s0)
    1e70:	02a00793          	li	a5,42
    1e74:	02f71b63          	bne	a4,a5,1eaa <_vfiprintf_r+0x1be>
    1e78:	47b2                	lw	a5,12(sp)
    1e7a:	0409                	addi	s0,s0,2
    1e7c:	00478713          	addi	a4,a5,4
    1e80:	439c                	lw	a5,0(a5)
    1e82:	c63a                	sw	a4,12(sp)
    1e84:	0207c163          	bltz	a5,1ea6 <_vfiprintf_r+0x1ba>
    1e88:	ca3e                	sw	a5,20(sp)
    1e8a:	a835                	j	1ec6 <_vfiprintf_r+0x1da>
    1e8c:	40e00733          	neg	a4,a4
    1e90:	0027e793          	ori	a5,a5,2
    1e94:	ce3a                	sw	a4,28(sp)
    1e96:	c83e                	sw	a5,16(sp)
    1e98:	b7e1                	j	1e60 <_vfiprintf_r+0x174>
    1e9a:	036787b3          	mul	a5,a5,s6
    1e9e:	4685                	li	a3,1
    1ea0:	842e                	mv	s0,a1
    1ea2:	97ba                	add	a5,a5,a4
    1ea4:	bf25                	j	1ddc <_vfiprintf_r+0xf0>
    1ea6:	57fd                	li	a5,-1
    1ea8:	b7c5                	j	1e88 <_vfiprintf_r+0x19c>
    1eaa:	0405                	addi	s0,s0,1
    1eac:	ca02                	sw	zero,20(sp)
    1eae:	4681                	li	a3,0
    1eb0:	4781                	li	a5,0
    1eb2:	4625                	li	a2,9
    1eb4:	00044703          	lbu	a4,0(s0)
    1eb8:	00140593          	addi	a1,s0,1
    1ebc:	fd070713          	addi	a4,a4,-48
    1ec0:	06e67663          	bgeu	a2,a4,1f2c <_vfiprintf_r+0x240>
    1ec4:	f2f1                	bnez	a3,1e88 <_vfiprintf_r+0x19c>
    1ec6:	00044583          	lbu	a1,0(s0)
    1eca:	460d                	li	a2,3
    1ecc:	00001517          	auipc	a0,0x1
    1ed0:	93c50513          	addi	a0,a0,-1732 # 2808 <__sf_fake_stdout+0x28>
    1ed4:	2d29                	jal	24ee <memchr>
    1ed6:	cd11                	beqz	a0,1ef2 <_vfiprintf_r+0x206>
    1ed8:	00001797          	auipc	a5,0x1
    1edc:	93078793          	addi	a5,a5,-1744 # 2808 <__sf_fake_stdout+0x28>
    1ee0:	8d1d                	sub	a0,a0,a5
    1ee2:	04000793          	li	a5,64
    1ee6:	00a797b3          	sll	a5,a5,a0
    1eea:	4542                	lw	a0,16(sp)
    1eec:	0405                	addi	s0,s0,1
    1eee:	8d5d                	or	a0,a0,a5
    1ef0:	c82a                	sw	a0,16(sp)
    1ef2:	00044583          	lbu	a1,0(s0)
    1ef6:	4619                	li	a2,6
    1ef8:	00001517          	auipc	a0,0x1
    1efc:	91450513          	addi	a0,a0,-1772 # 280c <__sf_fake_stdout+0x2c>
    1f00:	00140913          	addi	s2,s0,1
    1f04:	02b10423          	sb	a1,40(sp)
    1f08:	23dd                	jal	24ee <memchr>
    1f0a:	c13d                	beqz	a0,1f70 <_vfiprintf_r+0x284>
    1f0c:	ffffe797          	auipc	a5,0xffffe
    1f10:	0f478793          	addi	a5,a5,244 # 0 <_sinit>
    1f14:	e795                	bnez	a5,1f40 <_vfiprintf_r+0x254>
    1f16:	4742                	lw	a4,16(sp)
    1f18:	47b2                	lw	a5,12(sp)
    1f1a:	10077713          	andi	a4,a4,256
    1f1e:	cf09                	beqz	a4,1f38 <_vfiprintf_r+0x24c>
    1f20:	0791                	addi	a5,a5,4
    1f22:	c63e                	sw	a5,12(sp)
    1f24:	5792                	lw	a5,36(sp)
    1f26:	97d2                	add	a5,a5,s4
    1f28:	d23e                	sw	a5,36(sp)
    1f2a:	b52d                	j	1d54 <_vfiprintf_r+0x68>
    1f2c:	036787b3          	mul	a5,a5,s6
    1f30:	4685                	li	a3,1
    1f32:	842e                	mv	s0,a1
    1f34:	97ba                	add	a5,a5,a4
    1f36:	bfbd                	j	1eb4 <_vfiprintf_r+0x1c8>
    1f38:	079d                	addi	a5,a5,7
    1f3a:	9be1                	andi	a5,a5,-8
    1f3c:	07a1                	addi	a5,a5,8
    1f3e:	b7d5                	j	1f22 <_vfiprintf_r+0x236>
    1f40:	0078                	addi	a4,sp,12
    1f42:	00000697          	auipc	a3,0x0
    1f46:	d6868693          	addi	a3,a3,-664 # 1caa <__sfputs_r>
    1f4a:	8626                	mv	a2,s1
    1f4c:	080c                	addi	a1,sp,16
    1f4e:	854e                	mv	a0,s3
    1f50:	00000097          	auipc	ra,0x0
    1f54:	000000e7          	jalr	zero # 0 <_sinit>
    1f58:	57fd                	li	a5,-1
    1f5a:	8a2a                	mv	s4,a0
    1f5c:	fcf514e3          	bne	a0,a5,1f24 <_vfiprintf_r+0x238>
    1f60:	00c4d783          	lhu	a5,12(s1)
    1f64:	0407f793          	andi	a5,a5,64
    1f68:	ea079ce3          	bnez	a5,1e20 <_vfiprintf_r+0x134>
    1f6c:	5512                	lw	a0,36(sp)
    1f6e:	bd55                	j	1e22 <_vfiprintf_r+0x136>
    1f70:	0078                	addi	a4,sp,12
    1f72:	00000697          	auipc	a3,0x0
    1f76:	d3868693          	addi	a3,a3,-712 # 1caa <__sfputs_r>
    1f7a:	8626                	mv	a2,s1
    1f7c:	080c                	addi	a1,sp,16
    1f7e:	854e                	mv	a0,s3
    1f80:	2a01                	jal	2090 <_printf_i>
    1f82:	bfd9                	j	1f58 <_vfiprintf_r+0x26c>

00001f84 <_printf_common>:
_printf_common():
    1f84:	7179                	addi	sp,sp,-48
    1f86:	ca56                	sw	s5,20(sp)
    1f88:	499c                	lw	a5,16(a1)
    1f8a:	8aba                	mv	s5,a4
    1f8c:	4598                	lw	a4,8(a1)
    1f8e:	d422                	sw	s0,40(sp)
    1f90:	d226                	sw	s1,36(sp)
    1f92:	ce4e                	sw	s3,28(sp)
    1f94:	cc52                	sw	s4,24(sp)
    1f96:	d606                	sw	ra,44(sp)
    1f98:	d04a                	sw	s2,32(sp)
    1f9a:	c85a                	sw	s6,16(sp)
    1f9c:	c65e                	sw	s7,12(sp)
    1f9e:	89aa                	mv	s3,a0
    1fa0:	842e                	mv	s0,a1
    1fa2:	84b2                	mv	s1,a2
    1fa4:	8a36                	mv	s4,a3
    1fa6:	00e7d363          	bge	a5,a4,1fac <_printf_common+0x28>
    1faa:	87ba                	mv	a5,a4
    1fac:	c09c                	sw	a5,0(s1)
    1fae:	04344703          	lbu	a4,67(s0)
    1fb2:	c319                	beqz	a4,1fb8 <_printf_common+0x34>
    1fb4:	0785                	addi	a5,a5,1
    1fb6:	c09c                	sw	a5,0(s1)
    1fb8:	401c                	lw	a5,0(s0)
    1fba:	0207f793          	andi	a5,a5,32
    1fbe:	c781                	beqz	a5,1fc6 <_printf_common+0x42>
    1fc0:	409c                	lw	a5,0(s1)
    1fc2:	0789                	addi	a5,a5,2
    1fc4:	c09c                	sw	a5,0(s1)
    1fc6:	00042903          	lw	s2,0(s0)
    1fca:	00697913          	andi	s2,s2,6
    1fce:	00091a63          	bnez	s2,1fe2 <_printf_common+0x5e>
    1fd2:	01940b13          	addi	s6,s0,25
    1fd6:	5bfd                	li	s7,-1
    1fd8:	445c                	lw	a5,12(s0)
    1fda:	4098                	lw	a4,0(s1)
    1fdc:	8f99                	sub	a5,a5,a4
    1fde:	04f94c63          	blt	s2,a5,2036 <_printf_common+0xb2>
    1fe2:	401c                	lw	a5,0(s0)
    1fe4:	04344683          	lbu	a3,67(s0)
    1fe8:	0207f793          	andi	a5,a5,32
    1fec:	00d036b3          	snez	a3,a3
    1ff0:	eba5                	bnez	a5,2060 <_printf_common+0xdc>
    1ff2:	04340613          	addi	a2,s0,67
    1ff6:	85d2                	mv	a1,s4
    1ff8:	854e                	mv	a0,s3
    1ffa:	9a82                	jalr	s5
    1ffc:	57fd                	li	a5,-1
    1ffe:	04f50363          	beq	a0,a5,2044 <_printf_common+0xc0>
    2002:	401c                	lw	a5,0(s0)
    2004:	4611                	li	a2,4
    2006:	4098                	lw	a4,0(s1)
    2008:	8b99                	andi	a5,a5,6
    200a:	4454                	lw	a3,12(s0)
    200c:	4481                	li	s1,0
    200e:	00c79763          	bne	a5,a2,201c <_printf_common+0x98>
    2012:	40e684b3          	sub	s1,a3,a4
    2016:	0004d363          	bgez	s1,201c <_printf_common+0x98>
    201a:	4481                	li	s1,0
    201c:	441c                	lw	a5,8(s0)
    201e:	4818                	lw	a4,16(s0)
    2020:	00f75463          	bge	a4,a5,2028 <_printf_common+0xa4>
    2024:	8f99                	sub	a5,a5,a4
    2026:	94be                	add	s1,s1,a5
    2028:	4901                	li	s2,0
    202a:	0469                	addi	s0,s0,26
    202c:	5b7d                	li	s6,-1
    202e:	05249863          	bne	s1,s2,207e <_printf_common+0xfa>
    2032:	4501                	li	a0,0
    2034:	a809                	j	2046 <_printf_common+0xc2>
    2036:	4685                	li	a3,1
    2038:	865a                	mv	a2,s6
    203a:	85d2                	mv	a1,s4
    203c:	854e                	mv	a0,s3
    203e:	9a82                	jalr	s5
    2040:	01751e63          	bne	a0,s7,205c <_printf_common+0xd8>
    2044:	557d                	li	a0,-1
    2046:	50b2                	lw	ra,44(sp)
    2048:	5422                	lw	s0,40(sp)
    204a:	5492                	lw	s1,36(sp)
    204c:	5902                	lw	s2,32(sp)
    204e:	49f2                	lw	s3,28(sp)
    2050:	4a62                	lw	s4,24(sp)
    2052:	4ad2                	lw	s5,20(sp)
    2054:	4b42                	lw	s6,16(sp)
    2056:	4bb2                	lw	s7,12(sp)
    2058:	6145                	addi	sp,sp,48
    205a:	8082                	ret
    205c:	0905                	addi	s2,s2,1
    205e:	bfad                	j	1fd8 <_printf_common+0x54>
    2060:	00d40733          	add	a4,s0,a3
    2064:	03000613          	li	a2,48
    2068:	04c701a3          	sb	a2,67(a4)
    206c:	04544703          	lbu	a4,69(s0)
    2070:	00168793          	addi	a5,a3,1
    2074:	97a2                	add	a5,a5,s0
    2076:	0689                	addi	a3,a3,2
    2078:	04e781a3          	sb	a4,67(a5)
    207c:	bf9d                	j	1ff2 <_printf_common+0x6e>
    207e:	4685                	li	a3,1
    2080:	8622                	mv	a2,s0
    2082:	85d2                	mv	a1,s4
    2084:	854e                	mv	a0,s3
    2086:	9a82                	jalr	s5
    2088:	fb650ee3          	beq	a0,s6,2044 <_printf_common+0xc0>
    208c:	0905                	addi	s2,s2,1
    208e:	b745                	j	202e <_printf_common+0xaa>

00002090 <_printf_i>:
_printf_i():
    2090:	7179                	addi	sp,sp,-48
    2092:	d422                	sw	s0,40(sp)
    2094:	d226                	sw	s1,36(sp)
    2096:	d04a                	sw	s2,32(sp)
    2098:	ce4e                	sw	s3,28(sp)
    209a:	d606                	sw	ra,44(sp)
    209c:	cc52                	sw	s4,24(sp)
    209e:	ca56                	sw	s5,20(sp)
    20a0:	c85a                	sw	s6,16(sp)
    20a2:	89b6                	mv	s3,a3
    20a4:	0185c683          	lbu	a3,24(a1)
    20a8:	06900793          	li	a5,105
    20ac:	8932                	mv	s2,a2
    20ae:	84aa                	mv	s1,a0
    20b0:	842e                	mv	s0,a1
    20b2:	04358613          	addi	a2,a1,67
    20b6:	02f68d63          	beq	a3,a5,20f0 <_printf_i+0x60>
    20ba:	06d7e263          	bltu	a5,a3,211e <_printf_i+0x8e>
    20be:	05800793          	li	a5,88
    20c2:	18f68763          	beq	a3,a5,2250 <_printf_i+0x1c0>
    20c6:	00d7ed63          	bltu	a5,a3,20e0 <_printf_i+0x50>
    20ca:	22068063          	beqz	a3,22ea <_printf_i+0x25a>
    20ce:	04300793          	li	a5,67
    20d2:	0af68e63          	beq	a3,a5,218e <_printf_i+0xfe>
    20d6:	04240a93          	addi	s5,s0,66
    20da:	04d40123          	sb	a3,66(s0)
    20de:	a0c9                	j	21a0 <_printf_i+0x110>
    20e0:	06300793          	li	a5,99
    20e4:	0af68563          	beq	a3,a5,218e <_printf_i+0xfe>
    20e8:	06400793          	li	a5,100
    20ec:	fef695e3          	bne	a3,a5,20d6 <_printf_i+0x46>
    20f0:	401c                	lw	a5,0(s0)
    20f2:	4308                	lw	a0,0(a4)
    20f4:	0807f693          	andi	a3,a5,128
    20f8:	00450593          	addi	a1,a0,4
    20fc:	c6c5                	beqz	a3,21a4 <_printf_i+0x114>
    20fe:	411c                	lw	a5,0(a0)
    2100:	c30c                	sw	a1,0(a4)
    2102:	0007d863          	bgez	a5,2112 <_printf_i+0x82>
    2106:	02d00713          	li	a4,45
    210a:	40f007b3          	neg	a5,a5
    210e:	04e401a3          	sb	a4,67(s0)
    2112:	00000697          	auipc	a3,0x0
    2116:	70268693          	addi	a3,a3,1794 # 2814 <__sf_fake_stdout+0x34>
    211a:	4729                	li	a4,10
    211c:	a86d                	j	21d6 <_printf_i+0x146>
    211e:	07000793          	li	a5,112
    2122:	16f68363          	beq	a3,a5,2288 <_printf_i+0x1f8>
    2126:	02d7e563          	bltu	a5,a3,2150 <_printf_i+0xc0>
    212a:	06e00793          	li	a5,110
    212e:	18f68a63          	beq	a3,a5,22c2 <_printf_i+0x232>
    2132:	06f00793          	li	a5,111
    2136:	faf690e3          	bne	a3,a5,20d6 <_printf_i+0x46>
    213a:	400c                	lw	a1,0(s0)
    213c:	431c                	lw	a5,0(a4)
    213e:	0805f813          	andi	a6,a1,128
    2142:	00478513          	addi	a0,a5,4
    2146:	06080763          	beqz	a6,21b4 <_printf_i+0x124>
    214a:	c308                	sw	a0,0(a4)
    214c:	439c                	lw	a5,0(a5)
    214e:	a88d                	j	21c0 <_printf_i+0x130>
    2150:	07500793          	li	a5,117
    2154:	fef683e3          	beq	a3,a5,213a <_printf_i+0xaa>
    2158:	07800793          	li	a5,120
    215c:	12f68a63          	beq	a3,a5,2290 <_printf_i+0x200>
    2160:	07300793          	li	a5,115
    2164:	f6f699e3          	bne	a3,a5,20d6 <_printf_i+0x46>
    2168:	431c                	lw	a5,0(a4)
    216a:	41d0                	lw	a2,4(a1)
    216c:	4581                	li	a1,0
    216e:	00478693          	addi	a3,a5,4
    2172:	c314                	sw	a3,0(a4)
    2174:	0007aa83          	lw	s5,0(a5)
    2178:	8556                	mv	a0,s5
    217a:	2e95                	jal	24ee <memchr>
    217c:	c501                	beqz	a0,2184 <_printf_i+0xf4>
    217e:	41550533          	sub	a0,a0,s5
    2182:	c048                	sw	a0,4(s0)
    2184:	405c                	lw	a5,4(s0)
    2186:	c81c                	sw	a5,16(s0)
    2188:	040401a3          	sb	zero,67(s0)
    218c:	a871                	j	2228 <_printf_i+0x198>
    218e:	431c                	lw	a5,0(a4)
    2190:	04240a93          	addi	s5,s0,66
    2194:	00478693          	addi	a3,a5,4
    2198:	439c                	lw	a5,0(a5)
    219a:	c314                	sw	a3,0(a4)
    219c:	04f40123          	sb	a5,66(s0)
    21a0:	4785                	li	a5,1
    21a2:	b7d5                	j	2186 <_printf_i+0xf6>
    21a4:	0407f693          	andi	a3,a5,64
    21a8:	411c                	lw	a5,0(a0)
    21aa:	c30c                	sw	a1,0(a4)
    21ac:	dab9                	beqz	a3,2102 <_printf_i+0x72>
    21ae:	07c2                	slli	a5,a5,0x10
    21b0:	87c1                	srai	a5,a5,0x10
    21b2:	bf81                	j	2102 <_printf_i+0x72>
    21b4:	0405f593          	andi	a1,a1,64
    21b8:	c308                	sw	a0,0(a4)
    21ba:	d9c9                	beqz	a1,214c <_printf_i+0xbc>
    21bc:	0007d783          	lhu	a5,0(a5)
    21c0:	06f00713          	li	a4,111
    21c4:	0ee68763          	beq	a3,a4,22b2 <_printf_i+0x222>
    21c8:	00000697          	auipc	a3,0x0
    21cc:	64c68693          	addi	a3,a3,1612 # 2814 <__sf_fake_stdout+0x34>
    21d0:	4729                	li	a4,10
    21d2:	040401a3          	sb	zero,67(s0)
    21d6:	404c                	lw	a1,4(s0)
    21d8:	c40c                	sw	a1,8(s0)
    21da:	0005c563          	bltz	a1,21e4 <_printf_i+0x154>
    21de:	4008                	lw	a0,0(s0)
    21e0:	996d                	andi	a0,a0,-5
    21e2:	c008                	sw	a0,0(s0)
    21e4:	e399                	bnez	a5,21ea <_printf_i+0x15a>
    21e6:	8ab2                	mv	s5,a2
    21e8:	cd91                	beqz	a1,2204 <_printf_i+0x174>
    21ea:	8ab2                	mv	s5,a2
    21ec:	02e7f5b3          	remu	a1,a5,a4
    21f0:	1afd                	addi	s5,s5,-1
    21f2:	95b6                	add	a1,a1,a3
    21f4:	0005c583          	lbu	a1,0(a1)
    21f8:	00ba8023          	sb	a1,0(s5)
    21fc:	02e7d5b3          	divu	a1,a5,a4
    2200:	0ae7ff63          	bgeu	a5,a4,22be <_printf_i+0x22e>
    2204:	47a1                	li	a5,8
    2206:	00f71e63          	bne	a4,a5,2222 <_printf_i+0x192>
    220a:	401c                	lw	a5,0(s0)
    220c:	8b85                	andi	a5,a5,1
    220e:	cb91                	beqz	a5,2222 <_printf_i+0x192>
    2210:	4058                	lw	a4,4(s0)
    2212:	481c                	lw	a5,16(s0)
    2214:	00e7c763          	blt	a5,a4,2222 <_printf_i+0x192>
    2218:	03000793          	li	a5,48
    221c:	fefa8fa3          	sb	a5,-1(s5)
    2220:	1afd                	addi	s5,s5,-1
    2222:	41560633          	sub	a2,a2,s5
    2226:	c810                	sw	a2,16(s0)
    2228:	874e                	mv	a4,s3
    222a:	86ca                	mv	a3,s2
    222c:	0070                	addi	a2,sp,12
    222e:	85a2                	mv	a1,s0
    2230:	8526                	mv	a0,s1
    2232:	3b89                	jal	1f84 <_printf_common>
    2234:	5a7d                	li	s4,-1
    2236:	0b451e63          	bne	a0,s4,22f2 <_printf_i+0x262>
    223a:	557d                	li	a0,-1
    223c:	50b2                	lw	ra,44(sp)
    223e:	5422                	lw	s0,40(sp)
    2240:	5492                	lw	s1,36(sp)
    2242:	5902                	lw	s2,32(sp)
    2244:	49f2                	lw	s3,28(sp)
    2246:	4a62                	lw	s4,24(sp)
    2248:	4ad2                	lw	s5,20(sp)
    224a:	4b42                	lw	s6,16(sp)
    224c:	6145                	addi	sp,sp,48
    224e:	8082                	ret
    2250:	04d582a3          	sb	a3,69(a1)
    2254:	00000697          	auipc	a3,0x0
    2258:	5c068693          	addi	a3,a3,1472 # 2814 <__sf_fake_stdout+0x34>
    225c:	400c                	lw	a1,0(s0)
    225e:	4308                	lw	a0,0(a4)
    2260:	0805f813          	andi	a6,a1,128
    2264:	411c                	lw	a5,0(a0)
    2266:	0511                	addi	a0,a0,4
    2268:	02080d63          	beqz	a6,22a2 <_printf_i+0x212>
    226c:	c308                	sw	a0,0(a4)
    226e:	0015f713          	andi	a4,a1,1
    2272:	c701                	beqz	a4,227a <_printf_i+0x1ea>
    2274:	0205e593          	ori	a1,a1,32
    2278:	c00c                	sw	a1,0(s0)
    227a:	4741                	li	a4,16
    227c:	fbb9                	bnez	a5,21d2 <_printf_i+0x142>
    227e:	400c                	lw	a1,0(s0)
    2280:	fdf5f593          	andi	a1,a1,-33
    2284:	c00c                	sw	a1,0(s0)
    2286:	b7b1                	j	21d2 <_printf_i+0x142>
    2288:	419c                	lw	a5,0(a1)
    228a:	0207e793          	ori	a5,a5,32
    228e:	c19c                	sw	a5,0(a1)
    2290:	07800793          	li	a5,120
    2294:	04f402a3          	sb	a5,69(s0)
    2298:	00000697          	auipc	a3,0x0
    229c:	59068693          	addi	a3,a3,1424 # 2828 <__sf_fake_stdout+0x48>
    22a0:	bf75                	j	225c <_printf_i+0x1cc>
    22a2:	0405f813          	andi	a6,a1,64
    22a6:	c308                	sw	a0,0(a4)
    22a8:	fc0803e3          	beqz	a6,226e <_printf_i+0x1de>
    22ac:	07c2                	slli	a5,a5,0x10
    22ae:	83c1                	srli	a5,a5,0x10
    22b0:	bf7d                	j	226e <_printf_i+0x1de>
    22b2:	00000697          	auipc	a3,0x0
    22b6:	56268693          	addi	a3,a3,1378 # 2814 <__sf_fake_stdout+0x34>
    22ba:	4721                	li	a4,8
    22bc:	bf19                	j	21d2 <_printf_i+0x142>
    22be:	87ae                	mv	a5,a1
    22c0:	b735                	j	21ec <_printf_i+0x15c>
    22c2:	4194                	lw	a3,0(a1)
    22c4:	431c                	lw	a5,0(a4)
    22c6:	49cc                	lw	a1,20(a1)
    22c8:	0806f813          	andi	a6,a3,128
    22cc:	00478513          	addi	a0,a5,4
    22d0:	00080663          	beqz	a6,22dc <_printf_i+0x24c>
    22d4:	c308                	sw	a0,0(a4)
    22d6:	439c                	lw	a5,0(a5)
    22d8:	c38c                	sw	a1,0(a5)
    22da:	a801                	j	22ea <_printf_i+0x25a>
    22dc:	c308                	sw	a0,0(a4)
    22de:	0406f693          	andi	a3,a3,64
    22e2:	439c                	lw	a5,0(a5)
    22e4:	daf5                	beqz	a3,22d8 <_printf_i+0x248>
    22e6:	00b79023          	sh	a1,0(a5)
    22ea:	00042823          	sw	zero,16(s0)
    22ee:	8ab2                	mv	s5,a2
    22f0:	bf25                	j	2228 <_printf_i+0x198>
    22f2:	4814                	lw	a3,16(s0)
    22f4:	8656                	mv	a2,s5
    22f6:	85ca                	mv	a1,s2
    22f8:	8526                	mv	a0,s1
    22fa:	9982                	jalr	s3
    22fc:	f3450fe3          	beq	a0,s4,223a <_printf_i+0x1aa>
    2300:	401c                	lw	a5,0(s0)
    2302:	8b89                	andi	a5,a5,2
    2304:	e78d                	bnez	a5,232e <_printf_i+0x29e>
    2306:	47b2                	lw	a5,12(sp)
    2308:	4448                	lw	a0,12(s0)
    230a:	f2f559e3          	bge	a0,a5,223c <_printf_i+0x1ac>
    230e:	853e                	mv	a0,a5
    2310:	b735                	j	223c <_printf_i+0x1ac>
    2312:	4685                	li	a3,1
    2314:	8656                	mv	a2,s5
    2316:	85ca                	mv	a1,s2
    2318:	8526                	mv	a0,s1
    231a:	9982                	jalr	s3
    231c:	f1650fe3          	beq	a0,s6,223a <_printf_i+0x1aa>
    2320:	0a05                	addi	s4,s4,1
    2322:	445c                	lw	a5,12(s0)
    2324:	4732                	lw	a4,12(sp)
    2326:	8f99                	sub	a5,a5,a4
    2328:	fefa45e3          	blt	s4,a5,2312 <_printf_i+0x282>
    232c:	bfe9                	j	2306 <_printf_i+0x276>
    232e:	4a01                	li	s4,0
    2330:	01940a93          	addi	s5,s0,25
    2334:	5b7d                	li	s6,-1
    2336:	b7f5                	j	2322 <_printf_i+0x292>

00002338 <_sbrk_r>:
_sbrk_r():
    2338:	1141                	addi	sp,sp,-16
    233a:	c422                	sw	s0,8(sp)
    233c:	842a                	mv	s0,a0
    233e:	852e                	mv	a0,a1
    2340:	8401a623          	sw	zero,-1972(gp) # 200000fc <errno>
    2344:	c606                	sw	ra,12(sp)
    2346:	243d                	jal	2574 <_sbrk>
    2348:	57fd                	li	a5,-1
    234a:	00f51763          	bne	a0,a5,2358 <_sbrk_r+0x20>
    234e:	84c18793          	addi	a5,gp,-1972 # 200000fc <errno>
    2352:	439c                	lw	a5,0(a5)
    2354:	c391                	beqz	a5,2358 <_sbrk_r+0x20>
    2356:	c01c                	sw	a5,0(s0)
    2358:	40b2                	lw	ra,12(sp)
    235a:	4422                	lw	s0,8(sp)
    235c:	0141                	addi	sp,sp,16
    235e:	8082                	ret

00002360 <__sread>:
__sread():
    2360:	1141                	addi	sp,sp,-16
    2362:	c422                	sw	s0,8(sp)
    2364:	842e                	mv	s0,a1
    2366:	00e59583          	lh	a1,14(a1)
    236a:	c606                	sw	ra,12(sp)
    236c:	2245                	jal	250c <_read_r>
    236e:	00054963          	bltz	a0,2380 <__sread+0x20>
    2372:	487c                	lw	a5,84(s0)
    2374:	97aa                	add	a5,a5,a0
    2376:	c87c                	sw	a5,84(s0)
    2378:	40b2                	lw	ra,12(sp)
    237a:	4422                	lw	s0,8(sp)
    237c:	0141                	addi	sp,sp,16
    237e:	8082                	ret
    2380:	00c45783          	lhu	a5,12(s0)
    2384:	777d                	lui	a4,0xfffff
    2386:	177d                	addi	a4,a4,-1
    2388:	8ff9                	and	a5,a5,a4
    238a:	00f41623          	sh	a5,12(s0)
    238e:	b7ed                	j	2378 <__sread+0x18>

00002390 <__swrite>:
__swrite():
    2390:	00c5d783          	lhu	a5,12(a1)
    2394:	1101                	addi	sp,sp,-32
    2396:	cc22                	sw	s0,24(sp)
    2398:	ca26                	sw	s1,20(sp)
    239a:	c84a                	sw	s2,16(sp)
    239c:	c64e                	sw	s3,12(sp)
    239e:	ce06                	sw	ra,28(sp)
    23a0:	1007f793          	andi	a5,a5,256
    23a4:	84aa                	mv	s1,a0
    23a6:	842e                	mv	s0,a1
    23a8:	8932                	mv	s2,a2
    23aa:	89b6                	mv	s3,a3
    23ac:	c791                	beqz	a5,23b8 <__swrite+0x28>
    23ae:	00e59583          	lh	a1,14(a1)
    23b2:	4689                	li	a3,2
    23b4:	4601                	li	a2,0
    23b6:	2231                	jal	24c2 <_lseek_r>
    23b8:	00c45783          	lhu	a5,12(s0)
    23bc:	777d                	lui	a4,0xfffff
    23be:	177d                	addi	a4,a4,-1
    23c0:	8ff9                	and	a5,a5,a4
    23c2:	00f41623          	sh	a5,12(s0)
    23c6:	00e41583          	lh	a1,14(s0)
    23ca:	4462                	lw	s0,24(sp)
    23cc:	40f2                	lw	ra,28(sp)
    23ce:	86ce                	mv	a3,s3
    23d0:	864a                	mv	a2,s2
    23d2:	49b2                	lw	s3,12(sp)
    23d4:	4942                	lw	s2,16(sp)
    23d6:	8526                	mv	a0,s1
    23d8:	44d2                	lw	s1,20(sp)
    23da:	6105                	addi	sp,sp,32
    23dc:	a83d                	j	241a <_write_r>

000023de <__sseek>:
__sseek():
    23de:	1141                	addi	sp,sp,-16
    23e0:	c422                	sw	s0,8(sp)
    23e2:	842e                	mv	s0,a1
    23e4:	00e59583          	lh	a1,14(a1)
    23e8:	c606                	sw	ra,12(sp)
    23ea:	28e1                	jal	24c2 <_lseek_r>
    23ec:	57fd                	li	a5,-1
    23ee:	00c45703          	lhu	a4,12(s0)
    23f2:	00f51b63          	bne	a0,a5,2408 <__sseek+0x2a>
    23f6:	77fd                	lui	a5,0xfffff
    23f8:	17fd                	addi	a5,a5,-1
    23fa:	8ff9                	and	a5,a5,a4
    23fc:	00f41623          	sh	a5,12(s0)
    2400:	40b2                	lw	ra,12(sp)
    2402:	4422                	lw	s0,8(sp)
    2404:	0141                	addi	sp,sp,16
    2406:	8082                	ret
    2408:	6785                	lui	a5,0x1
    240a:	8fd9                	or	a5,a5,a4
    240c:	00f41623          	sh	a5,12(s0)
    2410:	c868                	sw	a0,84(s0)
    2412:	b7fd                	j	2400 <__sseek+0x22>

00002414 <__sclose>:
__sclose():
    2414:	00e59583          	lh	a1,14(a1)
    2418:	a805                	j	2448 <_close_r>

0000241a <_write_r>:
_write_r():
    241a:	1141                	addi	sp,sp,-16
    241c:	c422                	sw	s0,8(sp)
    241e:	842a                	mv	s0,a0
    2420:	852e                	mv	a0,a1
    2422:	85b2                	mv	a1,a2
    2424:	8636                	mv	a2,a3
    2426:	8401a623          	sw	zero,-1972(gp) # 200000fc <errno>
    242a:	c606                	sw	ra,12(sp)
    242c:	e2bfe0ef          	jal	ra,1256 <_write>
    2430:	57fd                	li	a5,-1
    2432:	00f51763          	bne	a0,a5,2440 <_write_r+0x26>
    2436:	84c18793          	addi	a5,gp,-1972 # 200000fc <errno>
    243a:	439c                	lw	a5,0(a5)
    243c:	c391                	beqz	a5,2440 <_write_r+0x26>
    243e:	c01c                	sw	a5,0(s0)
    2440:	40b2                	lw	ra,12(sp)
    2442:	4422                	lw	s0,8(sp)
    2444:	0141                	addi	sp,sp,16
    2446:	8082                	ret

00002448 <_close_r>:
_close_r():
    2448:	1141                	addi	sp,sp,-16
    244a:	c422                	sw	s0,8(sp)
    244c:	842a                	mv	s0,a0
    244e:	852e                	mv	a0,a1
    2450:	8401a623          	sw	zero,-1972(gp) # 200000fc <errno>
    2454:	c606                	sw	ra,12(sp)
    2456:	20cd                	jal	2538 <_close>
    2458:	57fd                	li	a5,-1
    245a:	00f51763          	bne	a0,a5,2468 <_close_r+0x20>
    245e:	84c18793          	addi	a5,gp,-1972 # 200000fc <errno>
    2462:	439c                	lw	a5,0(a5)
    2464:	c391                	beqz	a5,2468 <_close_r+0x20>
    2466:	c01c                	sw	a5,0(s0)
    2468:	40b2                	lw	ra,12(sp)
    246a:	4422                	lw	s0,8(sp)
    246c:	0141                	addi	sp,sp,16
    246e:	8082                	ret

00002470 <_fstat_r>:
_fstat_r():
    2470:	1141                	addi	sp,sp,-16
    2472:	c422                	sw	s0,8(sp)
    2474:	842a                	mv	s0,a0
    2476:	852e                	mv	a0,a1
    2478:	85b2                	mv	a1,a2
    247a:	8401a623          	sw	zero,-1972(gp) # 200000fc <errno>
    247e:	c606                	sw	ra,12(sp)
    2480:	20d1                	jal	2544 <_fstat>
    2482:	57fd                	li	a5,-1
    2484:	00f51763          	bne	a0,a5,2492 <_fstat_r+0x22>
    2488:	84c18793          	addi	a5,gp,-1972 # 200000fc <errno>
    248c:	439c                	lw	a5,0(a5)
    248e:	c391                	beqz	a5,2492 <_fstat_r+0x22>
    2490:	c01c                	sw	a5,0(s0)
    2492:	40b2                	lw	ra,12(sp)
    2494:	4422                	lw	s0,8(sp)
    2496:	0141                	addi	sp,sp,16
    2498:	8082                	ret

0000249a <_isatty_r>:
_isatty_r():
    249a:	1141                	addi	sp,sp,-16
    249c:	c422                	sw	s0,8(sp)
    249e:	842a                	mv	s0,a0
    24a0:	852e                	mv	a0,a1
    24a2:	8401a623          	sw	zero,-1972(gp) # 200000fc <errno>
    24a6:	c606                	sw	ra,12(sp)
    24a8:	2065                	jal	2550 <_isatty>
    24aa:	57fd                	li	a5,-1
    24ac:	00f51763          	bne	a0,a5,24ba <_isatty_r+0x20>
    24b0:	84c18793          	addi	a5,gp,-1972 # 200000fc <errno>
    24b4:	439c                	lw	a5,0(a5)
    24b6:	c391                	beqz	a5,24ba <_isatty_r+0x20>
    24b8:	c01c                	sw	a5,0(s0)
    24ba:	40b2                	lw	ra,12(sp)
    24bc:	4422                	lw	s0,8(sp)
    24be:	0141                	addi	sp,sp,16
    24c0:	8082                	ret

000024c2 <_lseek_r>:
_lseek_r():
    24c2:	1141                	addi	sp,sp,-16
    24c4:	c422                	sw	s0,8(sp)
    24c6:	842a                	mv	s0,a0
    24c8:	852e                	mv	a0,a1
    24ca:	85b2                	mv	a1,a2
    24cc:	8636                	mv	a2,a3
    24ce:	8401a623          	sw	zero,-1972(gp) # 200000fc <errno>
    24d2:	c606                	sw	ra,12(sp)
    24d4:	2061                	jal	255c <_lseek>
    24d6:	57fd                	li	a5,-1
    24d8:	00f51763          	bne	a0,a5,24e6 <_lseek_r+0x24>
    24dc:	84c18793          	addi	a5,gp,-1972 # 200000fc <errno>
    24e0:	439c                	lw	a5,0(a5)
    24e2:	c391                	beqz	a5,24e6 <_lseek_r+0x24>
    24e4:	c01c                	sw	a5,0(s0)
    24e6:	40b2                	lw	ra,12(sp)
    24e8:	4422                	lw	s0,8(sp)
    24ea:	0141                	addi	sp,sp,16
    24ec:	8082                	ret

000024ee <memchr>:
memchr():
    24ee:	0ff5f593          	andi	a1,a1,255
    24f2:	962a                	add	a2,a2,a0
    24f4:	00c51463          	bne	a0,a2,24fc <memchr+0xe>
    24f8:	4501                	li	a0,0
    24fa:	8082                	ret
    24fc:	00054783          	lbu	a5,0(a0)
    2500:	feb78de3          	beq	a5,a1,24fa <memchr+0xc>
    2504:	0505                	addi	a0,a0,1
    2506:	b7fd                	j	24f4 <memchr+0x6>

00002508 <__malloc_lock>:
__malloc_lock():
    2508:	8082                	ret

0000250a <__malloc_unlock>:
__malloc_unlock():
    250a:	8082                	ret

0000250c <_read_r>:
_read_r():
    250c:	1141                	addi	sp,sp,-16
    250e:	c422                	sw	s0,8(sp)
    2510:	842a                	mv	s0,a0
    2512:	852e                	mv	a0,a1
    2514:	85b2                	mv	a1,a2
    2516:	8636                	mv	a2,a3
    2518:	8401a623          	sw	zero,-1972(gp) # 200000fc <errno>
    251c:	c606                	sw	ra,12(sp)
    251e:	20a9                	jal	2568 <_read>
    2520:	57fd                	li	a5,-1
    2522:	00f51763          	bne	a0,a5,2530 <_read_r+0x24>
    2526:	84c18793          	addi	a5,gp,-1972 # 200000fc <errno>
    252a:	439c                	lw	a5,0(a5)
    252c:	c391                	beqz	a5,2530 <_read_r+0x24>
    252e:	c01c                	sw	a5,0(s0)
    2530:	40b2                	lw	ra,12(sp)
    2532:	4422                	lw	s0,8(sp)
    2534:	0141                	addi	sp,sp,16
    2536:	8082                	ret

00002538 <_close>:
_close():
    2538:	05800793          	li	a5,88
    253c:	84f1a623          	sw	a5,-1972(gp) # 200000fc <errno>
    2540:	557d                	li	a0,-1
    2542:	8082                	ret

00002544 <_fstat>:
_fstat():
    2544:	05800793          	li	a5,88
    2548:	84f1a623          	sw	a5,-1972(gp) # 200000fc <errno>
    254c:	557d                	li	a0,-1
    254e:	8082                	ret

00002550 <_isatty>:
_isatty():
    2550:	05800793          	li	a5,88
    2554:	84f1a623          	sw	a5,-1972(gp) # 200000fc <errno>
    2558:	4501                	li	a0,0
    255a:	8082                	ret

0000255c <_lseek>:
_lseek():
    255c:	05800793          	li	a5,88
    2560:	84f1a623          	sw	a5,-1972(gp) # 200000fc <errno>
    2564:	557d                	li	a0,-1
    2566:	8082                	ret

00002568 <_read>:
_read():
    2568:	05800793          	li	a5,88
    256c:	84f1a623          	sw	a5,-1972(gp) # 200000fc <errno>
    2570:	557d                	li	a0,-1
    2572:	8082                	ret

00002574 <_sbrk>:
_sbrk():
    2574:	84418793          	addi	a5,gp,-1980 # 200000f4 <heap_end.1518>
    2578:	439c                	lw	a5,0(a5)
    257a:	c791                	beqz	a5,2586 <_sbrk+0x12>
    257c:	953e                	add	a0,a0,a5
    257e:	84a1a223          	sw	a0,-1980(gp) # 200000f4 <heap_end.1518>
    2582:	853e                	mv	a0,a5
    2584:	8082                	ret
    2586:	85018793          	addi	a5,gp,-1968 # 20000100 <_ebss>
    258a:	953e                	add	a0,a0,a5
    258c:	84a1a223          	sw	a0,-1980(gp) # 200000f4 <heap_end.1518>
    2590:	853e                	mv	a0,a5
    2592:	8082                	ret

00002594 <BOSDescriptor>:
    2594:	0f05 0016 0702 0210 0006 0000 100a 0003     ................
    25a4:	000e 0a01 07ff 0000 7874 4520 5252 0000     ........tx ERR..
    25b4:	5355 5342 2d53 4c3e 4e49 5f4b 4e49 5f54     USBSS->LINK_INT_
    25c4:	4c46 4741 2620 4c20 4e49 5f4b 4944 4153     FLAG & LINK_DISA
    25d4:	4c42 5f45 4c46 4741 2c20 5520 4253 3033     BLE_FLAG , USB30
    25e4:	5f44 6e69 7469 4428 5349 4241 454c 0029     D_init(DISABLE).

000025f4 <OSStringDescriptor>:
    25f4:	0312 004d 0053 0046 0054 0031 0030 0030     ..M.S.F.T.1.0.0.
    2604:	0001 0000                                   ....

00002608 <PropertyHeader>:
    2608:	008e 0000 0100 0005 0001 0084 0000 0001     ................
    2618:	0000 0028 0044 0065 0076 0069 0063 0065     ..(.D.e.v.i.c.e.
    2628:	0049 006e 0074 0065 0072 0066 0061 0063     I.n.t.e.r.f.a.c.
    2638:	0065 0047 0055 0049 0044 0000 004e 0000     e.G.U.I.D...N...
    2648:	007b 0031 0032 0033 0034 0035 0036 0037     {.1.2.3.4.5.6.7.
    2658:	0038 002d 0031 0032 0033 0034 002d 0031     8.-.1.2.3.4.-.1.
    2668:	0032 0033 0034 002d 0031 0032 0033 0034     2.3.4.-.1.2.3.4.
    2678:	002d 0031 0032 0033 0034 0035 0036 0037     -.1.2.3.4.5.6.7.
    2688:	0038 0039 0041 0042 0043 007d 0000 0000     8.9.A.B.C.}.....

00002698 <SS_ConfigDescriptor>:
    2698:	0209 002c 0101 8000 0964 0004 0200 ffff     ..,.....d.......
    26a8:	00ff 0507 0281 0400 0600 0230 0000 0700     ..........0.....
    26b8:	0105 0002 0004 3006 0003 0000               .......0....

000026c4 <SS_DeviceDescriptor>:
    26c4:	0112 0300 80ff 0955 1a86 5537 0100 0201     ......U...7U....
    26d4:	0103 0000                                   ....

000026d8 <StringProduct>:
    26d8:	0326 0057 0043 0048 0020 0055 0053 0042     &.W.C.H. .U.S.B.
    26e8:	0033 002e 0030 0020 0044 0045 0056 0049     3...0. .D.E.V.I.
    26f8:	0043 0045 0020 0000 5355 3342 302e 6420     C.E. ...USB3.0 d
    2708:	7369 6261 656c 0000 694c 6b6e 535f 6174     isable..Link_Sta
    2718:	2120 203d 494c 4b4e 535f 4154 335f 2c20      != LINK_STA_3 ,
    2728:	5520 4253 3033 5f44 6e69 7469 4428 5349      USB30D_init(DIS
    2738:	4241 454c 0029 0000 6e49 7469 6520 7272     ABLE)...Init err
    2748:	0000 0000 5243 6520 7272 0000 554e 6520     ....CR err..NU e
    2758:	7272 0000 4946 4f46 4f20 0d56 0000 0000     rr..FIFO OV.....
    2768:	0a0a 0a0a 0a0a 2b0a 2b2b 2b2b 2b2b 2b2b     .......+++++++++
    2778:	2b2b 2b2b 2b2b 002b 7453 7261 2074 4340     +++++++.Start @C
    2788:	6968 4970 3d44 3025 5838 0a0d 0000 0000     hipID=%08X......
    2798:	6568 6c6c 006f 0000                         hello...

000027a0 <__sf_fake_stderr>:
	...

000027c0 <__sf_fake_stdin>:
	...

000027e0 <__sf_fake_stdout>:
	...
    2800:	2d23 2b30 0020 0000 6c68 004c 6665 4567     #-0+ ...hlL.efgE
    2810:	4746 0000 3130 3332 3534 3736 3938 4241     FG..0123456789AB
    2820:	4443 4645 0000 0000 3130 3332 3534 3736     CDEF....01234567
    2830:	3938 6261 6463 6665 0000 0000               89abcdef....
